ARM GAS  C:\Users\SAMEER~1.ALM\AppData\Local\Temp\ccamSRGt.s 			page 1


   1              		.cpu cortex-m3
   2              		.arch armv7-m
   3              		.fpu softvfp
   4              		.eabi_attribute 20, 1
   5              		.eabi_attribute 21, 1
   6              		.eabi_attribute 23, 3
   7              		.eabi_attribute 24, 1
   8              		.eabi_attribute 25, 1
   9              		.eabi_attribute 26, 1
  10              		.eabi_attribute 30, 6
  11              		.eabi_attribute 34, 1
  12              		.eabi_attribute 18, 4
  13              		.file	"mem.c"
  14              		.text
  15              	.Ltext0:
  16              		.cfi_sections	.debug_frame
  17              		.section	.text.memmem,"ax",%progbits
  18              		.align	1
  19              		.global	memmem
  20              		.syntax unified
  21              		.thumb
  22              		.thumb_func
  24              	memmem:
  25              	.LFB4:
  26              		.file 1 "./basic/mem.c"
   1:./basic/mem.c **** /**
   2:./basic/mem.c ****  * @brief mem.c
   3:./basic/mem.c **** *  this source implements mem algorithems 
   4:./basic/mem.c ****  * that support memory allocation and process manipulation
   5:./basic/mem.c ****  * @param student: Sameer Almaldein
   6:./basic/mem.c ****  * @param ID: 679699
   7:./basic/mem.c ****  * @param University TU-Chemnitz
   8:./basic/mem.c ****  * @param Master : ASE(Automotive Software Engineering )
   9:./basic/mem.c ****  */ 
  10:./basic/mem.c **** //********************************************************************************************
  11:./basic/mem.c **** //
  12:./basic/mem.c **** // including header  files
  13:./basic/mem.c **** //
  14:./basic/mem.c **** //********************************************************************************************
  15:./basic/mem.c ****  #include "mem.h"
  16:./basic/mem.c **** //********************************************************************************************
  17:./basic/mem.c **** //
  18:./basic/mem.c **** // Global variables 
  19:./basic/mem.c **** //
  20:./basic/mem.c **** //********************************************************************************************
  21:./basic/mem.c **** 
  22:./basic/mem.c **** //********************************************************************************************
  23:./basic/mem.c **** //
  24:./basic/mem.c **** // Method definitions
  25:./basic/mem.c **** //
  26:./basic/mem.c **** //********************************************************************************************
  27:./basic/mem.c **** /**
  28:./basic/mem.c ****  * @brief  find the substring s in the long string l and return a pointer for it or NULL
  29:./basic/mem.c ****  * 
  30:./basic/mem.c ****  * @details memmem() function finds the start of the first occurrence of
  31:./basic/mem.c ****             the substring s of length s_len in the memory area l of length l_len.
  32:./basic/mem.c ****             it returns a pointer to the beginning of the substring, or NULL if the substring is not
ARM GAS  C:\Users\SAMEER~1.ALM\AppData\Local\Temp\ccamSRGt.s 			page 2


  33:./basic/mem.c ****  * 
  34:./basic/mem.c ****  * @param l         : the main long string
  35:./basic/mem.c ****  * @param l_len     : the length of the main string
  36:./basic/mem.c ****  * @param s         : the substring looking for
  37:./basic/mem.c ****  * @param s_len     : the length of the substring
  38:./basic/mem.c ****  * @return void*    a pointer to the beginning of the substring in the main string or NULL
  39:./basic/mem.c ****  */
  40:./basic/mem.c **** 
  41:./basic/mem.c **** 
  42:./basic/mem.c **** void * memmem(const void *l, size_t l_len, const void *s, size_t s_len)
  43:./basic/mem.c **** {
  27              		.loc 1 43 1
  28              		.cfi_startproc
  29              		@ args = 0, pretend = 0, frame = 32
  30              		@ frame_needed = 1, uses_anonymous_args = 0
  31 0000 80B5     		push	{r7, lr}
  32              	.LCFI0:
  33              		.cfi_def_cfa_offset 8
  34              		.cfi_offset 7, -8
  35              		.cfi_offset 14, -4
  36 0002 88B0     		sub	sp, sp, #32
  37              	.LCFI1:
  38              		.cfi_def_cfa_offset 40
  39 0004 00AF     		add	r7, sp, #0
  40              	.LCFI2:
  41              		.cfi_def_cfa_register 7
  42 0006 F860     		str	r0, [r7, #12]
  43 0008 B960     		str	r1, [r7, #8]
  44 000a 7A60     		str	r2, [r7, #4]
  45 000c 3B60     		str	r3, [r7]
  44:./basic/mem.c **** 	char *cur, *last;//register
  45:./basic/mem.c **** 	const char *cl = (const char *)l;
  46              		.loc 1 45 14
  47 000e FB68     		ldr	r3, [r7, #12]
  48 0010 BB61     		str	r3, [r7, #24]
  46:./basic/mem.c **** 	const char *cs = (const char *)s;
  49              		.loc 1 46 14
  50 0012 7B68     		ldr	r3, [r7, #4]
  51 0014 7B61     		str	r3, [r7, #20]
  47:./basic/mem.c **** 
  48:./basic/mem.c **** 	/* we need something to compare */
  49:./basic/mem.c **** 	if (l_len == 0 || s_len == 0)
  52              		.loc 1 49 5
  53 0016 BB68     		ldr	r3, [r7, #8]
  54 0018 002B     		cmp	r3, #0
  55 001a 02D0     		beq	.L2
  56              		.loc 1 49 17 discriminator 1
  57 001c 3B68     		ldr	r3, [r7]
  58 001e 002B     		cmp	r3, #0
  59 0020 01D1     		bne	.L3
  60              	.L2:
  50:./basic/mem.c **** 		return NULL;
  61              		.loc 1 50 10
  62 0022 0023     		movs	r3, #0
  63 0024 32E0     		b	.L4
  64              	.L3:
  51:./basic/mem.c **** 
ARM GAS  C:\Users\SAMEER~1.ALM\AppData\Local\Temp\ccamSRGt.s 			page 3


  52:./basic/mem.c **** 	/* "s" must be smaller or equal to "l" */
  53:./basic/mem.c **** 	if (l_len < s_len)
  65              		.loc 1 53 5
  66 0026 BA68     		ldr	r2, [r7, #8]
  67 0028 3B68     		ldr	r3, [r7]
  68 002a 9A42     		cmp	r2, r3
  69 002c 01D2     		bcs	.L5
  54:./basic/mem.c **** 		return NULL;
  70              		.loc 1 54 10
  71 002e 0023     		movs	r3, #0
  72 0030 2CE0     		b	.L4
  73              	.L5:
  55:./basic/mem.c **** 
  56:./basic/mem.c **** 	/* special case where s_len == 1 */
  57:./basic/mem.c **** 	if (s_len == 1)
  74              		.loc 1 57 5
  75 0032 3B68     		ldr	r3, [r7]
  76 0034 012B     		cmp	r3, #1
  77 0036 08D1     		bne	.L6
  58:./basic/mem.c **** 		return memchr(l, (int)*cs, l_len);
  78              		.loc 1 58 25
  79 0038 7B69     		ldr	r3, [r7, #20]
  80 003a 1B78     		ldrb	r3, [r3]	@ zero_extendqisi2
  81              		.loc 1 58 10
  82 003c BA68     		ldr	r2, [r7, #8]
  83 003e 1946     		mov	r1, r3
  84 0040 F868     		ldr	r0, [r7, #12]
  85 0042 FFF7FEFF 		bl	memchr
  86 0046 0346     		mov	r3, r0
  87 0048 20E0     		b	.L4
  88              	.L6:
  59:./basic/mem.c **** 
  60:./basic/mem.c **** 	/* the last position where its possible to find "s" in "l" */
  61:./basic/mem.c **** 	last = (char *)cl + l_len - s_len;
  89              		.loc 1 61 28
  90 004a BA68     		ldr	r2, [r7, #8]
  91 004c 3B68     		ldr	r3, [r7]
  92 004e D31A     		subs	r3, r2, r3
  93              		.loc 1 61 7
  94 0050 BA69     		ldr	r2, [r7, #24]
  95 0052 1344     		add	r3, r3, r2
  96 0054 3B61     		str	r3, [r7, #16]
  62:./basic/mem.c **** 
  63:./basic/mem.c **** 	for (cur = (char *)cl; cur <= last; cur++)
  97              		.loc 1 63 11
  98 0056 BB69     		ldr	r3, [r7, #24]
  99 0058 FB61     		str	r3, [r7, #28]
 100              		.loc 1 63 2
 101 005a 12E0     		b	.L7
 102              	.L9:
  64:./basic/mem.c **** 		if (cur[0] == cs[0] && memcmp(cur, cs, s_len) == 0)
 103              		.loc 1 64 10
 104 005c FB69     		ldr	r3, [r7, #28]
 105 005e 1A78     		ldrb	r2, [r3]	@ zero_extendqisi2
 106              		.loc 1 64 14
 107 0060 7B69     		ldr	r3, [r7, #20]
 108 0062 1B78     		ldrb	r3, [r3]	@ zero_extendqisi2
ARM GAS  C:\Users\SAMEER~1.ALM\AppData\Local\Temp\ccamSRGt.s 			page 4


 109              		.loc 1 64 6
 110 0064 9A42     		cmp	r2, r3
 111 0066 09D1     		bne	.L8
 112              		.loc 1 64 26 discriminator 1
 113 0068 3A68     		ldr	r2, [r7]
 114 006a 7969     		ldr	r1, [r7, #20]
 115 006c F869     		ldr	r0, [r7, #28]
 116 006e FFF7FEFF 		bl	memcmp
 117 0072 0346     		mov	r3, r0
 118              		.loc 1 64 23 discriminator 1
 119 0074 002B     		cmp	r3, #0
 120 0076 01D1     		bne	.L8
  65:./basic/mem.c **** 			return cur;
 121              		.loc 1 65 11
 122 0078 FB69     		ldr	r3, [r7, #28]
 123 007a 07E0     		b	.L4
 124              	.L8:
  63:./basic/mem.c **** 		if (cur[0] == cs[0] && memcmp(cur, cs, s_len) == 0)
 125              		.loc 1 63 41 discriminator 2
 126 007c FB69     		ldr	r3, [r7, #28]
 127 007e 0133     		adds	r3, r3, #1
 128 0080 FB61     		str	r3, [r7, #28]
 129              	.L7:
  63:./basic/mem.c **** 		if (cur[0] == cs[0] && memcmp(cur, cs, s_len) == 0)
 130              		.loc 1 63 2 discriminator 1
 131 0082 FA69     		ldr	r2, [r7, #28]
 132 0084 3B69     		ldr	r3, [r7, #16]
 133 0086 9A42     		cmp	r2, r3
 134 0088 E8D9     		bls	.L9
  66:./basic/mem.c **** 
  67:./basic/mem.c **** 	return NULL;
 135              		.loc 1 67 9
 136 008a 0023     		movs	r3, #0
 137              	.L4:
  68:./basic/mem.c **** }
 138              		.loc 1 68 1
 139 008c 1846     		mov	r0, r3
 140 008e 2037     		adds	r7, r7, #32
 141              	.LCFI3:
 142              		.cfi_def_cfa_offset 8
 143 0090 BD46     		mov	sp, r7
 144              	.LCFI4:
 145              		.cfi_def_cfa_register 13
 146              		@ sp needed
 147 0092 80BD     		pop	{r7, pc}
 148              		.cfi_endproc
 149              	.LFE4:
 151              		.text
 152              	.Letext0:
 153              		.file 2 "c:\\arm-tool\\gcc-arm-none-eabi-10.3-2021.10\\lib\\gcc\\arm-none-eabi\\10.3.1\\include\\s
ARM GAS  C:\Users\SAMEER~1.ALM\AppData\Local\Temp\ccamSRGt.s 			page 5

