ARM GAS  C:\Users\SAMEER~1.ALM\AppData\Local\Temp\ccKQVuZd.s 			page 1


   1              		.cpu cortex-m3
   2              		.arch armv7-m
   3              		.fpu softvfp
   4              		.eabi_attribute 20, 1
   5              		.eabi_attribute 21, 1
   6              		.eabi_attribute 23, 3
   7              		.eabi_attribute 24, 1
   8              		.eabi_attribute 25, 1
   9              		.eabi_attribute 26, 1
  10              		.eabi_attribute 30, 6
  11              		.eabi_attribute 34, 1
  12              		.eabi_attribute 18, 4
  13              		.file	"mpu6050.c"
  14              		.text
  15              	.Ltext0:
  16              		.cfi_sections	.debug_frame
  17              		.global	myMPU6050
  18              		.section	.data.myMPU6050,"aw"
  19              		.align	2
  22              	myMPU6050:
  23 0000 D0       		.byte	-48
  24 0001 00       		.byte	0
  25 0002 00       		.byte	0
  26 0003 00       		.byte	0
  27 0004 00       		.byte	0
  28 0005 00       		.byte	0
  29 0006 00       		.byte	0
  30 0007 00       		.byte	0
  31 0008 00       		.byte	0
  32 0009 00       		.byte	0
  33 000a 00       		.byte	0
  34 000b 00       		.byte	0
  35 000c 00       		.byte	0
  36 000d 00       		.byte	0
  37 000e 00       		.byte	0
  38 000f 00       		.space	1
  39 0010 0000     		.short	0
  40 0012 0000     		.short	0
  41 0014 0000     		.short	0
  42 0016 0000     		.short	0
  43 0018 0000     		.short	0
  44 001a 0000     		.short	0
  45 001c 0000803F 		.word	1065353216
  46 0020 0000803F 		.word	1065353216
  47 0024 00000000 		.word	0
  48 0028 00000000 		.word	0
  49 002c 00000000 		.word	0
  50 0030 00000000 		.word	0
  51 0034 00000000 		.word	0
  52 0038 00000000 		.word	0
  53 003c 00000000 		.word	0
  54 0040 00000000 		.word	0
  55 0044 00000000 		.word	0
  56 0048 00000000 		.word	0
  57 004c 00000000 		.word	0
  58 0050 00000000 		.word	0
  59 0054 00000000 		.word	0
ARM GAS  C:\Users\SAMEER~1.ALM\AppData\Local\Temp\ccKQVuZd.s 			page 2


  60              		.global	mpu_settings
  61              		.section	.data.mpu_settings,"aw"
  62              		.align	2
  65              	mpu_settings:
  66 0000 00       		.byte	0
  67 0001 01       		.byte	1
  68 0002 02       		.byte	2
  69 0003 02       		.byte	2
  70 0004 04       		.byte	4
  71 0005 00       		.byte	0
  72 0006 00       		.byte	0
  73 0007 00       		.space	1
  74 0008 6400     		.short	100
  75              		.section	.rodata
  76              		.align	2
  77              	.LC0:
  78 0000 6D70755F 		.ascii	"mpu_rst:\000"
  78      7273743A 
  78      00
  79 0009 000000   		.align	2
  80              	.LC1:
  81 000c 0A00     		.ascii	"\012\000"
  82 000e 0000     		.align	2
  83              	.LC2:
  84 0010 6D70755F 		.ascii	"mpu_smpl:\000"
  84      736D706C 
  84      3A00
  85 001a 0000     		.align	2
  86              	.LC3:
  87 001c 6D70755F 		.ascii	"mpu_lpf:\000"
  87      6C70663A 
  87      00
  88 0025 000000   		.align	2
  89              	.LC4:
  90 0028 6D70755F 		.ascii	"mpu_hpf:\000"
  90      6870663A 
  90      00
  91 0031 000000   		.align	2
  92              	.LC5:
  93 0034 6D70755F 		.ascii	"mpu_accel_rng:\000"
  93      61636365 
  93      6C5F726E 
  93      673A00
  94 0043 00       		.align	2
  95              	.LC6:
  96 0044 6D70755F 		.ascii	"mpu_gyro_rng:\000"
  96      6779726F 
  96      5F726E67 
  96      3A00
  97              		.section	.text.mpu6050_init,"ax",%progbits
  98              		.align	1
  99              		.global	mpu6050_init
 100              		.syntax unified
 101              		.thumb
 102              		.thumb_func
 104              	mpu6050_init:
 105              	.LFB33:
ARM GAS  C:\Users\SAMEER~1.ALM\AppData\Local\Temp\ccKQVuZd.s 			page 3


 106              		.file 1 "./mpu6050/mpu6050.c"
   1:./mpu6050/mpu6050.c **** 
   2:./mpu6050/mpu6050.c **** /**
   3:./mpu6050/mpu6050.c ****  * @brief mpu6050.c
   4:./mpu6050/mpu6050.c ****  *
   5:./mpu6050/mpu6050.c ****  * @param student: Sameer Almaldein* @param ID: 679699
   6:./mpu6050/mpu6050.c ****  * @param University TU-Chemnitz
   7:./mpu6050/mpu6050.c ****  * @param Master : ASE(Automotive Software Engineering )
   8:./mpu6050/mpu6050.c ****  */ 
   9:./mpu6050/mpu6050.c **** 
  10:./mpu6050/mpu6050.c **** //********************************************************************************************
  11:./mpu6050/mpu6050.c **** //
  12:./mpu6050/mpu6050.c **** //  header  files
  13:./mpu6050/mpu6050.c **** //
  14:./mpu6050/mpu6050.c **** //********************************************************************************************
  15:./mpu6050/mpu6050.c **** #include "init.h"
  16:./mpu6050/mpu6050.c **** 
  17:./mpu6050/mpu6050.c **** //********************************************************************************************
  18:./mpu6050/mpu6050.c **** //
  19:./mpu6050/mpu6050.c **** //  extern variables
  20:./mpu6050/mpu6050.c **** //
  21:./mpu6050/mpu6050.c **** //********************************************************************************************
  22:./mpu6050/mpu6050.c ****  MPU6050_t myMPU6050={
  23:./mpu6050/mpu6050.c ****   MPU6050_I2CADDR1, //! I2C address of device
  24:./mpu6050/mpu6050.c **** 	 {{0,0,0,0,0,0,0,0,0,0,0,0,0,0}}, //! raw data array
  25:./mpu6050/mpu6050.c **** 		
  26:./mpu6050/mpu6050.c **** 		/*integer data */
  27:./mpu6050/mpu6050.c **** 	  0,          //! Accelerometer value X axis
  28:./mpu6050/mpu6050.c **** 	  0,          //! Accelerometer value Y axis
  29:./mpu6050/mpu6050.c **** 	  0,          //! Accelerometer value Z axis
  30:./mpu6050/mpu6050.c **** 	  0,          //! Gyroscope value X axis 
  31:./mpu6050/mpu6050.c **** 	  0,          //! Gyroscope value Y axis 
  32:./mpu6050/mpu6050.c **** 	  0,          //! Gyroscope value Z axis 
  33:./mpu6050/mpu6050.c **** 	  
  34:./mpu6050/mpu6050.c **** 		/*decimal data */
  35:./mpu6050/mpu6050.c **** 	  1.0f,        //! Gyroscope corrector from raw data to "degrees/s"
  36:./mpu6050/mpu6050.c **** 	  1.0f,        //! Accelerometer corrector from raw data to "g"
  37:./mpu6050/mpu6050.c **** 	  0.0f,        //! Decimal Accelerometer value X axis 
  38:./mpu6050/mpu6050.c **** 	  0.0f,        //! Decimal Accelerometer value Y axis 
  39:./mpu6050/mpu6050.c **** 	  0.0f,        //! Decimal Accelerometer value Z axis 
  40:./mpu6050/mpu6050.c **** 	  0.0f,        //! Decimal Gyroscope value X axis 
  41:./mpu6050/mpu6050.c **** 	  0.0f,        //! Decimal Gyroscope value Y axis 
  42:./mpu6050/mpu6050.c **** 	  0.0f,        //! Decimal Gyroscope value Z axis 
  43:./mpu6050/mpu6050.c ****     
  44:./mpu6050/mpu6050.c **** 	  0.0f,       //! Decimal Accelerometer value X axis multiplied by SENSORS_GRAVITY_STANDARD
  45:./mpu6050/mpu6050.c **** 	  0.0f,       //! Decimal Accelerometer value Y axis multiplied by SENSORS_GRAVITY_STANDARD
  46:./mpu6050/mpu6050.c **** 	  0.0f,       //! Decimal Accelerometer value Z axis multiplied by SENSORS_GRAVITY_STANDARD 
  47:./mpu6050/mpu6050.c **** 	  0.0f,       //! Decimal Gyroscope value X axis multiplied by SENSORS_DPS_TO_RADS */
  48:./mpu6050/mpu6050.c **** 	  0.0f,       //! Decimal Gyroscope value Y axis multiplied by SENSORS_DPS_TO_RADS 
  49:./mpu6050/mpu6050.c **** 	  0.0f,       //! Decimal Gyroscope value Z axis multiplied by SENSORS_DPS_TO_RADS 
  50:./mpu6050/mpu6050.c **** 		
  51:./mpu6050/mpu6050.c **** 	  0.0f       //! Temperature in degrees 
  52:./mpu6050/mpu6050.c ****  };
  53:./mpu6050/mpu6050.c **** 
  54:./mpu6050/mpu6050.c **** mpu_config_t mpu_settings={
  55:./mpu6050/mpu6050.c ****  //0, 												//mpu is not initialized,
  56:./mpu6050/mpu6050.c ****  MPU6050_Accel_Range_2G,	  //mpu accelerometer range ==0:+-2G 
ARM GAS  C:\Users\SAMEER~1.ALM\AppData\Local\Temp\ccKQVuZd.s 			page 4


  57:./mpu6050/mpu6050.c ****  MPU6050_Gyro_Range_500s,	  //mpu gyroscope  range == 1:+-500 d/s
  58:./mpu6050/mpu6050.c ****  2,													//mpu accelerometer thershold 0..100  
  59:./mpu6050/mpu6050.c ****  2,													//mpu gyroscope thershold 0..100
  60:./mpu6050/mpu6050.c ****  MPU_ACQ_SENSE_ACC_GYR,			// ACQ sense {0:all ,1:accel,2:gyro,3:temp,4:accel+gyro,5:acceel+temp, 6:
  61:./mpu6050/mpu6050.c ****  MPU_ACQ_MODE_SAMPLE,				// ACQ mode {0:samples ,1: normal read, 2:AI reading to be done later}
  62:./mpu6050/mpu6050.c ****  0,													// ACQ run {0: off, 1: run}													
  63:./mpu6050/mpu6050.c ****  100,
  64:./mpu6050/mpu6050.c **** };
  65:./mpu6050/mpu6050.c ****  
  66:./mpu6050/mpu6050.c **** //********** **********************************************************************************
  67:./mpu6050/mpu6050.c **** //
  68:./mpu6050/mpu6050.c **** //  static Methods
  69:./mpu6050/mpu6050.c **** //
  70:./mpu6050/mpu6050.c **** //********************************************************************************************
  71:./mpu6050/mpu6050.c **** 
  72:./mpu6050/mpu6050.c **** //********************************************************************************************
  73:./mpu6050/mpu6050.c **** //
  74:./mpu6050/mpu6050.c **** //  static  Methods definition
  75:./mpu6050/mpu6050.c **** //
  76:./mpu6050/mpu6050.c **** //********************************************************************************************
  77:./mpu6050/mpu6050.c **** 
  78:./mpu6050/mpu6050.c **** //********************************************************************************************
  79:./mpu6050/mpu6050.c **** //
  80:./mpu6050/mpu6050.c **** //  extern Methods
  81:./mpu6050/mpu6050.c **** //
  82:./mpu6050/mpu6050.c **** //********************************************************************************************
  83:./mpu6050/mpu6050.c **** 
  84:./mpu6050/mpu6050.c **** /**
  85:./mpu6050/mpu6050.c ****  * @brief  Initializes MPU6050 and I2C peripheral
  86:./mpu6050/mpu6050.c ****  * @param  mpu: Pointer to empty @ref TM_MPU6050_t structure
  87:./mpu6050/mpu6050.c ****  * 		Device_ID: MPU6050 has one pin, AD0 which can be used to set address of device.
  88:./mpu6050/mpu6050.c ****  *          This feature allows you to use 2 different sensors on the same board with same library.
  89:./mpu6050/mpu6050.c ****  *          If you set AD0 pin to low, then this parameter should be MPU6050_Device_0,
  90:./mpu6050/mpu6050.c ****  *          but if AD0 pin is high, then you should use MPU6050_Device_1
  91:./mpu6050/mpu6050.c ****  *          
  92:./mpu6050/mpu6050.c ****  *          Parameter can be a value of @ref MPU6050_Device_t enumeration
  93:./mpu6050/mpu6050.c ****  * @param  Accel_Range: Set accelerometer sensitivity. This parameter can be a value of @ref MPU605
  94:./mpu6050/mpu6050.c ****  * @param  Gyro_Range: Set gyroscope sensitivity. This parameter can be a value of @ref TM_MPU6050_
  95:./mpu6050/mpu6050.c ****  * @retval Initialization status:
  96:./mpu6050/mpu6050.c ****  *            - MPU6050_Result_t: Everything OK
  97:./mpu6050/mpu6050.c ****  *            - Other member: in other cases
  98:./mpu6050/mpu6050.c ****  */
  99:./mpu6050/mpu6050.c **** uint8_t mpu6050_init(MPU6050_t* mpu, MPU6050_Accel_Range_t Accel_Range,MPU6050_Gyro_Range_t Gyro_Ra
 100:./mpu6050/mpu6050.c **** {
 107              		.loc 1 100 1
 108              		.cfi_startproc
 109              		@ args = 0, pretend = 0, frame = 16
 110              		@ frame_needed = 1, uses_anonymous_args = 0
 111 0000 80B5     		push	{r7, lr}
 112              	.LCFI0:
 113              		.cfi_def_cfa_offset 8
 114              		.cfi_offset 7, -8
 115              		.cfi_offset 14, -4
 116 0002 84B0     		sub	sp, sp, #16
 117              	.LCFI1:
 118              		.cfi_def_cfa_offset 24
 119 0004 00AF     		add	r7, sp, #0
ARM GAS  C:\Users\SAMEER~1.ALM\AppData\Local\Temp\ccKQVuZd.s 			page 5


 120              	.LCFI2:
 121              		.cfi_def_cfa_register 7
 122 0006 7860     		str	r0, [r7, #4]
 123 0008 0B46     		mov	r3, r1
 124 000a FB70     		strb	r3, [r7, #3]
 125 000c 1346     		mov	r3, r2
 126 000e BB70     		strb	r3, [r7, #2]
 101:./mpu6050/mpu6050.c ****   uint8_t temp=0,error=0;
 127              		.loc 1 101 11
 128 0010 0023     		movs	r3, #0
 129 0012 BB73     		strb	r3, [r7, #14]
 130              		.loc 1 101 18
 131 0014 0023     		movs	r3, #0
 132 0016 FB73     		strb	r3, [r7, #15]
 102:./mpu6050/mpu6050.c **** 
 103:./mpu6050/mpu6050.c ****   error=i2c_read_7bit_base_byte_std(MPU6050_I2C, mpu->Address, MPU6050_WHO_AM_I, &temp);
 133              		.loc 1 103 9
 134 0018 7B68     		ldr	r3, [r7, #4]
 135 001a 1978     		ldrb	r1, [r3]	@ zero_extendqisi2
 136 001c 07F10E03 		add	r3, r7, #14
 137 0020 7522     		movs	r2, #117
 138 0022 5E48     		ldr	r0, .L12
 139 0024 FFF7FEFF 		bl	i2c_read_7bit_base_byte_std
 140 0028 0346     		mov	r3, r0
 141 002a FB73     		strb	r3, [r7, #15]
 104:./mpu6050/mpu6050.c ****   if(error) return error;
 142              		.loc 1 104 5
 143 002c FB7B     		ldrb	r3, [r7, #15]	@ zero_extendqisi2
 144 002e 002B     		cmp	r3, #0
 145 0030 01D0     		beq	.L2
 146              		.loc 1 104 20 discriminator 1
 147 0032 FB7B     		ldrb	r3, [r7, #15]	@ zero_extendqisi2
 148 0034 AEE0     		b	.L11
 149              	.L2:
 105:./mpu6050/mpu6050.c **** 	if (temp != MPU6050_DEVICE_ID ) 
 150              		.loc 1 105 11
 151 0036 BB7B     		ldrb	r3, [r7, #14]	@ zero_extendqisi2
 152              		.loc 1 105 5
 153 0038 682B     		cmp	r3, #104
 154 003a 01D0     		beq	.L4
 106:./mpu6050/mpu6050.c **** 	 return MPU6050_DeviceInvalid;
 155              		.loc 1 106 10
 156 003c 6323     		movs	r3, #99
 157 003e A9E0     		b	.L11
 158              	.L4:
 107:./mpu6050/mpu6050.c **** 	
 108:./mpu6050/mpu6050.c **** 	// Wakeup MPU6050 
 109:./mpu6050/mpu6050.c ****     uart_print(USART1,"mpu_rst:");
 159              		.loc 1 109 5
 160 0040 5749     		ldr	r1, .L12+4
 161 0042 5848     		ldr	r0, .L12+8
 162 0044 FFF7FEFF 		bl	uart_print
 110:./mpu6050/mpu6050.c ****     error=mpu6050_reset(mpu);
 163              		.loc 1 110 11
 164 0048 7868     		ldr	r0, [r7, #4]
 165 004a FFF7FEFF 		bl	mpu6050_reset
 166 004e 0346     		mov	r3, r0
ARM GAS  C:\Users\SAMEER~1.ALM\AppData\Local\Temp\ccKQVuZd.s 			page 6


 167 0050 FB73     		strb	r3, [r7, #15]
 111:./mpu6050/mpu6050.c **** 	uart_print_integer(USART1,error,10);
 168              		.loc 1 111 2
 169 0052 FB7B     		ldrb	r3, [r7, #15]	@ zero_extendqisi2
 170 0054 0A22     		movs	r2, #10
 171 0056 1946     		mov	r1, r3
 172 0058 5248     		ldr	r0, .L12+8
 173 005a FFF7FEFF 		bl	uart_print_integer
 112:./mpu6050/mpu6050.c ****     uart_print(USART1,"\n");
 174              		.loc 1 112 5
 175 005e 5249     		ldr	r1, .L12+12
 176 0060 5048     		ldr	r0, .L12+8
 177 0062 FFF7FEFF 		bl	uart_print
 113:./mpu6050/mpu6050.c **** 	i2c_uart_print(USART1);	
 178              		.loc 1 113 2
 179 0066 4F48     		ldr	r0, .L12+8
 180 0068 FFF7FEFF 		bl	i2c_uart_print
 114:./mpu6050/mpu6050.c **** 	if(error) return error;
 181              		.loc 1 114 4
 182 006c FB7B     		ldrb	r3, [r7, #15]	@ zero_extendqisi2
 183 006e 002B     		cmp	r3, #0
 184 0070 01D0     		beq	.L5
 185              		.loc 1 114 19 discriminator 1
 186 0072 FB7B     		ldrb	r3, [r7, #15]	@ zero_extendqisi2
 187 0074 8EE0     		b	.L11
 188              	.L5:
 115:./mpu6050/mpu6050.c **** 
 116:./mpu6050/mpu6050.c **** 	// Config SampleRateDivisor 
 117:./mpu6050/mpu6050.c **** 	uart_print(USART1,"mpu_smpl:");	
 189              		.loc 1 117 2
 190 0076 4D49     		ldr	r1, .L12+16
 191 0078 4A48     		ldr	r0, .L12+8
 192 007a FFF7FEFF 		bl	uart_print
 118:./mpu6050/mpu6050.c **** 	error=mpu6050_setSampleRateDivisor(mpu,MPU6050_DataRate_1KHz);
 193              		.loc 1 118 8
 194 007e 0721     		movs	r1, #7
 195 0080 7868     		ldr	r0, [r7, #4]
 196 0082 FFF7FEFF 		bl	mpu6050_setSampleRateDivisor
 197 0086 0346     		mov	r3, r0
 198 0088 FB73     		strb	r3, [r7, #15]
 119:./mpu6050/mpu6050.c ****     uart_print_integer(USART1,error,10);
 199              		.loc 1 119 5
 200 008a FB7B     		ldrb	r3, [r7, #15]	@ zero_extendqisi2
 201 008c 0A22     		movs	r2, #10
 202 008e 1946     		mov	r1, r3
 203 0090 4448     		ldr	r0, .L12+8
 204 0092 FFF7FEFF 		bl	uart_print_integer
 120:./mpu6050/mpu6050.c ****     uart_print(USART1,"\n");
 205              		.loc 1 120 5
 206 0096 4449     		ldr	r1, .L12+12
 207 0098 4248     		ldr	r0, .L12+8
 208 009a FFF7FEFF 		bl	uart_print
 121:./mpu6050/mpu6050.c **** 	i2c_uart_print(USART1);	
 209              		.loc 1 121 2
 210 009e 4148     		ldr	r0, .L12+8
 211 00a0 FFF7FEFF 		bl	i2c_uart_print
 122:./mpu6050/mpu6050.c **** 	 if(error) return error;
ARM GAS  C:\Users\SAMEER~1.ALM\AppData\Local\Temp\ccKQVuZd.s 			page 7


 212              		.loc 1 122 5
 213 00a4 FB7B     		ldrb	r3, [r7, #15]	@ zero_extendqisi2
 214 00a6 002B     		cmp	r3, #0
 215 00a8 01D0     		beq	.L6
 216              		.loc 1 122 20 discriminator 1
 217 00aa FB7B     		ldrb	r3, [r7, #15]	@ zero_extendqisi2
 218 00ac 72E0     		b	.L11
 219              	.L6:
 123:./mpu6050/mpu6050.c ****  	
 124:./mpu6050/mpu6050.c **** 	// Config low pass filter 
 125:./mpu6050/mpu6050.c **** 	uart_print(USART1,"mpu_lpf:");
 220              		.loc 1 125 2
 221 00ae 4049     		ldr	r1, .L12+20
 222 00b0 3C48     		ldr	r0, .L12+8
 223 00b2 FFF7FEFF 		bl	uart_print
 126:./mpu6050/mpu6050.c **** 	error=mpu6050_set_lpf(mpu,MPU6050_BAND_260_HZ);
 224              		.loc 1 126 8
 225 00b6 0021     		movs	r1, #0
 226 00b8 7868     		ldr	r0, [r7, #4]
 227 00ba FFF7FEFF 		bl	mpu6050_set_lpf
 228 00be 0346     		mov	r3, r0
 229 00c0 FB73     		strb	r3, [r7, #15]
 127:./mpu6050/mpu6050.c **** 	uart_print_integer(USART1,error,10);
 230              		.loc 1 127 2
 231 00c2 FB7B     		ldrb	r3, [r7, #15]	@ zero_extendqisi2
 232 00c4 0A22     		movs	r2, #10
 233 00c6 1946     		mov	r1, r3
 234 00c8 3648     		ldr	r0, .L12+8
 235 00ca FFF7FEFF 		bl	uart_print_integer
 128:./mpu6050/mpu6050.c ****     uart_print(USART1,"\n");
 236              		.loc 1 128 5
 237 00ce 3649     		ldr	r1, .L12+12
 238 00d0 3448     		ldr	r0, .L12+8
 239 00d2 FFF7FEFF 		bl	uart_print
 129:./mpu6050/mpu6050.c **** 	i2c_uart_print(USART1);	
 240              		.loc 1 129 2
 241 00d6 3348     		ldr	r0, .L12+8
 242 00d8 FFF7FEFF 		bl	i2c_uart_print
 130:./mpu6050/mpu6050.c **** 	if(error) return error;
 243              		.loc 1 130 4
 244 00dc FB7B     		ldrb	r3, [r7, #15]	@ zero_extendqisi2
 245 00de 002B     		cmp	r3, #0
 246 00e0 01D0     		beq	.L7
 247              		.loc 1 130 19 discriminator 1
 248 00e2 FB7B     		ldrb	r3, [r7, #15]	@ zero_extendqisi2
 249 00e4 56E0     		b	.L11
 250              	.L7:
 131:./mpu6050/mpu6050.c **** 
 132:./mpu6050/mpu6050.c **** 	// Configure High pass filter 
 133:./mpu6050/mpu6050.c **** 	uart_print(USART1,"mpu_hpf:");
 251              		.loc 1 133 2
 252 00e6 3349     		ldr	r1, .L12+24
 253 00e8 2E48     		ldr	r0, .L12+8
 254 00ea FFF7FEFF 		bl	uart_print
 134:./mpu6050/mpu6050.c **** 	error=mpu6050_set_hpf(mpu,MPU6050_HIGHPASS_2_5_HZ);
 255              		.loc 1 134 8
 256 00ee 0221     		movs	r1, #2
ARM GAS  C:\Users\SAMEER~1.ALM\AppData\Local\Temp\ccKQVuZd.s 			page 8


 257 00f0 7868     		ldr	r0, [r7, #4]
 258 00f2 FFF7FEFF 		bl	mpu6050_set_hpf
 259 00f6 0346     		mov	r3, r0
 260 00f8 FB73     		strb	r3, [r7, #15]
 135:./mpu6050/mpu6050.c **** 	uart_print_integer(USART1,error,10);
 261              		.loc 1 135 2
 262 00fa FB7B     		ldrb	r3, [r7, #15]	@ zero_extendqisi2
 263 00fc 0A22     		movs	r2, #10
 264 00fe 1946     		mov	r1, r3
 265 0100 2848     		ldr	r0, .L12+8
 266 0102 FFF7FEFF 		bl	uart_print_integer
 136:./mpu6050/mpu6050.c ****     uart_print(USART1,"\n");
 267              		.loc 1 136 5
 268 0106 2849     		ldr	r1, .L12+12
 269 0108 2648     		ldr	r0, .L12+8
 270 010a FFF7FEFF 		bl	uart_print
 137:./mpu6050/mpu6050.c **** 	i2c_uart_print(USART1);	
 271              		.loc 1 137 2
 272 010e 2548     		ldr	r0, .L12+8
 273 0110 FFF7FEFF 		bl	i2c_uart_print
 138:./mpu6050/mpu6050.c **** 	if(error) return error;
 274              		.loc 1 138 4
 275 0114 FB7B     		ldrb	r3, [r7, #15]	@ zero_extendqisi2
 276 0116 002B     		cmp	r3, #0
 277 0118 01D0     		beq	.L8
 278              		.loc 1 138 19 discriminator 1
 279 011a FB7B     		ldrb	r3, [r7, #15]	@ zero_extendqisi2
 280 011c 3AE0     		b	.L11
 281              	.L8:
 139:./mpu6050/mpu6050.c **** 
 140:./mpu6050/mpu6050.c ****    // Config accelerometer 
 141:./mpu6050/mpu6050.c **** 	uart_print(USART1,"mpu_accel_rng:");
 282              		.loc 1 141 2
 283 011e 2649     		ldr	r1, .L12+28
 284 0120 2048     		ldr	r0, .L12+8
 285 0122 FFF7FEFF 		bl	uart_print
 142:./mpu6050/mpu6050.c **** 	error=mpu6050_setAccelRange(mpu,Accel_Range);
 286              		.loc 1 142 8
 287 0126 FB78     		ldrb	r3, [r7, #3]	@ zero_extendqisi2
 288 0128 1946     		mov	r1, r3
 289 012a 7868     		ldr	r0, [r7, #4]
 290 012c FFF7FEFF 		bl	mpu6050_setAccelRange
 291 0130 0346     		mov	r3, r0
 292 0132 FB73     		strb	r3, [r7, #15]
 143:./mpu6050/mpu6050.c **** 	uart_print_integer(USART1,error,10);
 293              		.loc 1 143 2
 294 0134 FB7B     		ldrb	r3, [r7, #15]	@ zero_extendqisi2
 295 0136 0A22     		movs	r2, #10
 296 0138 1946     		mov	r1, r3
 297 013a 1A48     		ldr	r0, .L12+8
 298 013c FFF7FEFF 		bl	uart_print_integer
 144:./mpu6050/mpu6050.c ****     uart_print(USART1,"\n");
 299              		.loc 1 144 5
 300 0140 1949     		ldr	r1, .L12+12
 301 0142 1848     		ldr	r0, .L12+8
 302 0144 FFF7FEFF 		bl	uart_print
 145:./mpu6050/mpu6050.c **** 	i2c_uart_print(USART1);	
ARM GAS  C:\Users\SAMEER~1.ALM\AppData\Local\Temp\ccKQVuZd.s 			page 9


 303              		.loc 1 145 2
 304 0148 1648     		ldr	r0, .L12+8
 305 014a FFF7FEFF 		bl	i2c_uart_print
 146:./mpu6050/mpu6050.c **** 	if(error) return error;
 306              		.loc 1 146 4
 307 014e FB7B     		ldrb	r3, [r7, #15]	@ zero_extendqisi2
 308 0150 002B     		cmp	r3, #0
 309 0152 01D0     		beq	.L9
 310              		.loc 1 146 19 discriminator 1
 311 0154 FB7B     		ldrb	r3, [r7, #15]	@ zero_extendqisi2
 312 0156 1DE0     		b	.L11
 313              	.L9:
 147:./mpu6050/mpu6050.c **** 
 148:./mpu6050/mpu6050.c **** 	///Config gyroscope 
 149:./mpu6050/mpu6050.c **** 	uart_print(USART1,"mpu_gyro_rng:");
 314              		.loc 1 149 2
 315 0158 1849     		ldr	r1, .L12+32
 316 015a 1248     		ldr	r0, .L12+8
 317 015c FFF7FEFF 		bl	uart_print
 150:./mpu6050/mpu6050.c **** 	error=mpu6050_setGyroRange(mpu,Gyro_Range);
 318              		.loc 1 150 8
 319 0160 BB78     		ldrb	r3, [r7, #2]	@ zero_extendqisi2
 320 0162 1946     		mov	r1, r3
 321 0164 7868     		ldr	r0, [r7, #4]
 322 0166 FFF7FEFF 		bl	mpu6050_setGyroRange
 323 016a 0346     		mov	r3, r0
 324 016c FB73     		strb	r3, [r7, #15]
 151:./mpu6050/mpu6050.c ****   uart_print_integer(USART1,error,10);
 325              		.loc 1 151 3
 326 016e FB7B     		ldrb	r3, [r7, #15]	@ zero_extendqisi2
 327 0170 0A22     		movs	r2, #10
 328 0172 1946     		mov	r1, r3
 329 0174 0B48     		ldr	r0, .L12+8
 330 0176 FFF7FEFF 		bl	uart_print_integer
 152:./mpu6050/mpu6050.c ****   uart_print(USART1,"\n");
 331              		.loc 1 152 3
 332 017a 0B49     		ldr	r1, .L12+12
 333 017c 0948     		ldr	r0, .L12+8
 334 017e FFF7FEFF 		bl	uart_print
 153:./mpu6050/mpu6050.c **** 	i2c_uart_print(USART1);	
 335              		.loc 1 153 2
 336 0182 0848     		ldr	r0, .L12+8
 337 0184 FFF7FEFF 		bl	i2c_uart_print
 154:./mpu6050/mpu6050.c **** 	if(error) return error;
 338              		.loc 1 154 4
 339 0188 FB7B     		ldrb	r3, [r7, #15]	@ zero_extendqisi2
 340 018a 002B     		cmp	r3, #0
 341 018c 01D0     		beq	.L10
 342              		.loc 1 154 19 discriminator 1
 343 018e FB7B     		ldrb	r3, [r7, #15]	@ zero_extendqisi2
 344 0190 00E0     		b	.L11
 345              	.L10:
 155:./mpu6050/mpu6050.c ****   
 156:./mpu6050/mpu6050.c ****  /* Return OK */
 157:./mpu6050/mpu6050.c **** 	return  MPU6050_OK; //I2C_OK; 
 346              		.loc 1 157 10
 347 0192 0023     		movs	r3, #0
ARM GAS  C:\Users\SAMEER~1.ALM\AppData\Local\Temp\ccKQVuZd.s 			page 10


 348              	.L11:
 158:./mpu6050/mpu6050.c **** }
 349              		.loc 1 158 1 discriminator 1
 350 0194 1846     		mov	r0, r3
 351 0196 1037     		adds	r7, r7, #16
 352              	.LCFI3:
 353              		.cfi_def_cfa_offset 8
 354 0198 BD46     		mov	sp, r7
 355              	.LCFI4:
 356              		.cfi_def_cfa_register 13
 357              		@ sp needed
 358 019a 80BD     		pop	{r7, pc}
 359              	.L13:
 360              		.align	2
 361              	.L12:
 362 019c 00540040 		.word	1073763328
 363 01a0 00000000 		.word	.LC0
 364 01a4 00380140 		.word	1073821696
 365 01a8 0C000000 		.word	.LC1
 366 01ac 10000000 		.word	.LC2
 367 01b0 1C000000 		.word	.LC3
 368 01b4 28000000 		.word	.LC4
 369 01b8 34000000 		.word	.LC5
 370 01bc 44000000 		.word	.LC6
 371              		.cfi_endproc
 372              	.LFE33:
 374              		.section	.text.mpu6050_reset,"ax",%progbits
 375              		.align	1
 376              		.global	mpu6050_reset
 377              		.syntax unified
 378              		.thumb
 379              		.thumb_func
 381              	mpu6050_reset:
 382              	.LFB34:
 159:./mpu6050/mpu6050.c **** //-------------------------------------------------------------------------------------------------
 160:./mpu6050/mpu6050.c **** uint8_t mpu6050_reset(MPU6050_t* mpu)
 161:./mpu6050/mpu6050.c **** {
 383              		.loc 1 161 1
 384              		.cfi_startproc
 385              		@ args = 0, pretend = 0, frame = 16
 386              		@ frame_needed = 1, uses_anonymous_args = 0
 387 0000 80B5     		push	{r7, lr}
 388              	.LCFI5:
 389              		.cfi_def_cfa_offset 8
 390              		.cfi_offset 7, -8
 391              		.cfi_offset 14, -4
 392 0002 84B0     		sub	sp, sp, #16
 393              	.LCFI6:
 394              		.cfi_def_cfa_offset 24
 395 0004 00AF     		add	r7, sp, #0
 396              	.LCFI7:
 397              		.cfi_def_cfa_register 7
 398 0006 7860     		str	r0, [r7, #4]
 162:./mpu6050/mpu6050.c ****   uint8_t error=0;
 399              		.loc 1 162 11
 400 0008 0023     		movs	r3, #0
 401 000a FB73     		strb	r3, [r7, #15]
ARM GAS  C:\Users\SAMEER~1.ALM\AppData\Local\Temp\ccKQVuZd.s 			page 11


 163:./mpu6050/mpu6050.c ****  
 164:./mpu6050/mpu6050.c ****  error=i2c_write_7bit_base_byte_std(MPU6050_I2C,mpu->Address,MPU6050_PWR_MGMT_1, 0x00); // should b
 402              		.loc 1 164 8
 403 000c 7B68     		ldr	r3, [r7, #4]
 404 000e 1978     		ldrb	r1, [r3]	@ zero_extendqisi2
 405 0010 0023     		movs	r3, #0
 406 0012 6B22     		movs	r2, #107
 407 0014 1148     		ldr	r0, .L18
 408 0016 FFF7FEFF 		bl	i2c_write_7bit_base_byte_std
 409 001a 0346     		mov	r3, r0
 410 001c FB73     		strb	r3, [r7, #15]
 165:./mpu6050/mpu6050.c ****  if(error) return error;
 411              		.loc 1 165 4
 412 001e FB7B     		ldrb	r3, [r7, #15]	@ zero_extendqisi2
 413 0020 002B     		cmp	r3, #0
 414 0022 01D0     		beq	.L15
 415              		.loc 1 165 19 discriminator 1
 416 0024 FB7B     		ldrb	r3, [r7, #15]	@ zero_extendqisi2
 417 0026 14E0     		b	.L16
 418              	.L15:
 166:./mpu6050/mpu6050.c **** 	_delay_ms(100);
 419              		.loc 1 166 2
 420 0028 6420     		movs	r0, #100
 421 002a FFF7FEFF 		bl	_delay_ms
 167:./mpu6050/mpu6050.c ****   error=i2c_write_7bit_base_byte_std(MPU6050_I2C,mpu->Address,MPU6050_SIGNAL_PATH_RESET, 0x07); // 
 422              		.loc 1 167 9
 423 002e 7B68     		ldr	r3, [r7, #4]
 424 0030 1978     		ldrb	r1, [r3]	@ zero_extendqisi2
 425 0032 0723     		movs	r3, #7
 426 0034 6822     		movs	r2, #104
 427 0036 0948     		ldr	r0, .L18
 428 0038 FFF7FEFF 		bl	i2c_write_7bit_base_byte_std
 429 003c 0346     		mov	r3, r0
 430 003e FB73     		strb	r3, [r7, #15]
 168:./mpu6050/mpu6050.c **** 	if(error) return error;
 431              		.loc 1 168 4
 432 0040 FB7B     		ldrb	r3, [r7, #15]	@ zero_extendqisi2
 433 0042 002B     		cmp	r3, #0
 434 0044 01D0     		beq	.L17
 435              		.loc 1 168 19 discriminator 1
 436 0046 FB7B     		ldrb	r3, [r7, #15]	@ zero_extendqisi2
 437 0048 03E0     		b	.L16
 438              	.L17:
 169:./mpu6050/mpu6050.c **** 	_delay_ms(100);
 439              		.loc 1 169 2
 440 004a 6420     		movs	r0, #100
 441 004c FFF7FEFF 		bl	_delay_ms
 170:./mpu6050/mpu6050.c **** 	
 171:./mpu6050/mpu6050.c ****  /* Return OK */
 172:./mpu6050/mpu6050.c **** 	return  MPU6050_OK; 
 442              		.loc 1 172 10
 443 0050 0023     		movs	r3, #0
 444              	.L16:
 173:./mpu6050/mpu6050.c **** }
 445              		.loc 1 173 1
 446 0052 1846     		mov	r0, r3
 447 0054 1037     		adds	r7, r7, #16
ARM GAS  C:\Users\SAMEER~1.ALM\AppData\Local\Temp\ccKQVuZd.s 			page 12


 448              	.LCFI8:
 449              		.cfi_def_cfa_offset 8
 450 0056 BD46     		mov	sp, r7
 451              	.LCFI9:
 452              		.cfi_def_cfa_register 13
 453              		@ sp needed
 454 0058 80BD     		pop	{r7, pc}
 455              	.L19:
 456 005a 00BF     		.align	2
 457              	.L18:
 458 005c 00540040 		.word	1073763328
 459              		.cfi_endproc
 460              	.LFE34:
 462              		.section	.text.mpu6050_EnableInterrupts,"ax",%progbits
 463              		.align	1
 464              		.global	mpu6050_EnableInterrupts
 465              		.syntax unified
 466              		.thumb
 467              		.thumb_func
 469              	mpu6050_EnableInterrupts:
 470              	.LFB35:
 174:./mpu6050/mpu6050.c **** //-------------------------------------------------------------------------------------------------
 175:./mpu6050/mpu6050.c **** //********************************************************************************************
 176:./mpu6050/mpu6050.c **** //
 177:./mpu6050/mpu6050.c **** //   related interrupt Methods
 178:./mpu6050/mpu6050.c **** //
 179:./mpu6050/mpu6050.c **** //********************************************************************************************
 180:./mpu6050/mpu6050.c **** /*
 181:./mpu6050/mpu6050.c ****  * @brief  Enables interrupts
 182:./mpu6050/mpu6050.c ****  * @param  mpu: Pointer to @ref MPU6050_t structure indicating MPU6050 device
 183:./mpu6050/mpu6050.c ****  * @retval Member of @ref MPU6050_Result_t enumeration
 184:./mpu6050/mpu6050.c ****  */
 185:./mpu6050/mpu6050.c **** uint8_t mpu6050_EnableInterrupts(MPU6050_t* mpu)
 186:./mpu6050/mpu6050.c **** {
 471              		.loc 1 186 1
 472              		.cfi_startproc
 473              		@ args = 0, pretend = 0, frame = 16
 474              		@ frame_needed = 1, uses_anonymous_args = 0
 475 0000 80B5     		push	{r7, lr}
 476              	.LCFI10:
 477              		.cfi_def_cfa_offset 8
 478              		.cfi_offset 7, -8
 479              		.cfi_offset 14, -4
 480 0002 84B0     		sub	sp, sp, #16
 481              	.LCFI11:
 482              		.cfi_def_cfa_offset 24
 483 0004 00AF     		add	r7, sp, #0
 484              	.LCFI12:
 485              		.cfi_def_cfa_register 7
 486 0006 7860     		str	r0, [r7, #4]
 187:./mpu6050/mpu6050.c **** 	uint8_t temp=0,error=0;	
 487              		.loc 1 187 10
 488 0008 0023     		movs	r3, #0
 489 000a BB73     		strb	r3, [r7, #14]
 490              		.loc 1 187 17
 491 000c 0023     		movs	r3, #0
 492 000e FB73     		strb	r3, [r7, #15]
ARM GAS  C:\Users\SAMEER~1.ALM\AppData\Local\Temp\ccKQVuZd.s 			page 13


 188:./mpu6050/mpu6050.c **** 	
 189:./mpu6050/mpu6050.c **** 	/* Enable interrupts for data ready and motion detect */
 190:./mpu6050/mpu6050.c **** 	error=i2c_write_7bit_base_byte_std(MPU6050_I2C, mpu->Address, MPU6050_INT_ENABLE, 0x21);//I2C_Writ
 493              		.loc 1 190 8
 494 0010 7B68     		ldr	r3, [r7, #4]
 495 0012 1978     		ldrb	r1, [r3]	@ zero_extendqisi2
 496 0014 2123     		movs	r3, #33
 497 0016 3822     		movs	r2, #56
 498 0018 1848     		ldr	r0, .L26
 499 001a FFF7FEFF 		bl	i2c_write_7bit_base_byte_std
 500 001e 0346     		mov	r3, r0
 501 0020 FB73     		strb	r3, [r7, #15]
 191:./mpu6050/mpu6050.c **** 	if(error) return error;
 502              		.loc 1 191 4
 503 0022 FB7B     		ldrb	r3, [r7, #15]	@ zero_extendqisi2
 504 0024 002B     		cmp	r3, #0
 505 0026 01D0     		beq	.L21
 506              		.loc 1 191 19 discriminator 1
 507 0028 FB7B     		ldrb	r3, [r7, #15]	@ zero_extendqisi2
 508 002a 22E0     		b	.L25
 509              	.L21:
 192:./mpu6050/mpu6050.c **** 	/* Clear IRQ flag on any read operation */
 193:./mpu6050/mpu6050.c **** 	error=i2c_read_7bit_base_byte_std(MPU6050_I2C, mpu->Address, MPU6050_INT_PIN_CFG, &temp);//I2C_Rea
 510              		.loc 1 193 8
 511 002c 7B68     		ldr	r3, [r7, #4]
 512 002e 1978     		ldrb	r1, [r3]	@ zero_extendqisi2
 513 0030 07F10E03 		add	r3, r7, #14
 514 0034 3722     		movs	r2, #55
 515 0036 1148     		ldr	r0, .L26
 516 0038 FFF7FEFF 		bl	i2c_read_7bit_base_byte_std
 517 003c 0346     		mov	r3, r0
 518 003e FB73     		strb	r3, [r7, #15]
 194:./mpu6050/mpu6050.c **** 	if(error) return error;
 519              		.loc 1 194 4
 520 0040 FB7B     		ldrb	r3, [r7, #15]	@ zero_extendqisi2
 521 0042 002B     		cmp	r3, #0
 522 0044 01D0     		beq	.L23
 523              		.loc 1 194 19 discriminator 1
 524 0046 FB7B     		ldrb	r3, [r7, #15]	@ zero_extendqisi2
 525 0048 13E0     		b	.L25
 526              	.L23:
 195:./mpu6050/mpu6050.c **** 	temp |= 0x10;
 527              		.loc 1 195 7
 528 004a BB7B     		ldrb	r3, [r7, #14]	@ zero_extendqisi2
 529 004c 43F01003 		orr	r3, r3, #16
 530 0050 DBB2     		uxtb	r3, r3
 531 0052 BB73     		strb	r3, [r7, #14]
 196:./mpu6050/mpu6050.c **** 	error=i2c_write_7bit_base_byte_std(MPU6050_I2C, mpu->Address, MPU6050_INT_PIN_CFG, temp);//I2C_Wri
 532              		.loc 1 196 8
 533 0054 7B68     		ldr	r3, [r7, #4]
 534 0056 1978     		ldrb	r1, [r3]	@ zero_extendqisi2
 535 0058 BB7B     		ldrb	r3, [r7, #14]	@ zero_extendqisi2
 536 005a 3722     		movs	r2, #55
 537 005c 0748     		ldr	r0, .L26
 538 005e FFF7FEFF 		bl	i2c_write_7bit_base_byte_std
 539 0062 0346     		mov	r3, r0
 540 0064 FB73     		strb	r3, [r7, #15]
ARM GAS  C:\Users\SAMEER~1.ALM\AppData\Local\Temp\ccKQVuZd.s 			page 14


 197:./mpu6050/mpu6050.c **** 	if(error) return error;
 541              		.loc 1 197 4
 542 0066 FB7B     		ldrb	r3, [r7, #15]	@ zero_extendqisi2
 543 0068 002B     		cmp	r3, #0
 544 006a 01D0     		beq	.L24
 545              		.loc 1 197 19 discriminator 1
 546 006c FB7B     		ldrb	r3, [r7, #15]	@ zero_extendqisi2
 547 006e 00E0     		b	.L25
 548              	.L24:
 198:./mpu6050/mpu6050.c **** 	
 199:./mpu6050/mpu6050.c **** 	/* Return OK */
 200:./mpu6050/mpu6050.c **** 	return MPU6050_OK; //  or return I2C_OK;
 549              		.loc 1 200 9
 550 0070 0023     		movs	r3, #0
 551              	.L25:
 201:./mpu6050/mpu6050.c **** }
 552              		.loc 1 201 1 discriminator 1
 553 0072 1846     		mov	r0, r3
 554 0074 1037     		adds	r7, r7, #16
 555              	.LCFI13:
 556              		.cfi_def_cfa_offset 8
 557 0076 BD46     		mov	sp, r7
 558              	.LCFI14:
 559              		.cfi_def_cfa_register 13
 560              		@ sp needed
 561 0078 80BD     		pop	{r7, pc}
 562              	.L27:
 563 007a 00BF     		.align	2
 564              	.L26:
 565 007c 00540040 		.word	1073763328
 566              		.cfi_endproc
 567              	.LFE35:
 569              		.section	.text.mpu6050_DisableInterrupts,"ax",%progbits
 570              		.align	1
 571              		.global	mpu6050_DisableInterrupts
 572              		.syntax unified
 573              		.thumb
 574              		.thumb_func
 576              	mpu6050_DisableInterrupts:
 577              	.LFB36:
 202:./mpu6050/mpu6050.c **** //-------------------------------------------------------------------------------------------------
 203:./mpu6050/mpu6050.c **** /**
 204:./mpu6050/mpu6050.c ****  * @brief  Disables interrupts
 205:./mpu6050/mpu6050.c ****  * @param  mpu: Pointer to @ref MPU6050_t structure indicating MPU6050 device
 206:./mpu6050/mpu6050.c ****  * @retval Member of @ref MPU6050_Result_t enumeration
 207:./mpu6050/mpu6050.c ****  */
 208:./mpu6050/mpu6050.c **** uint8_t mpu6050_DisableInterrupts(MPU6050_t* mpu)
 209:./mpu6050/mpu6050.c **** {
 578              		.loc 1 209 1
 579              		.cfi_startproc
 580              		@ args = 0, pretend = 0, frame = 8
 581              		@ frame_needed = 1, uses_anonymous_args = 0
 582 0000 80B5     		push	{r7, lr}
 583              	.LCFI15:
 584              		.cfi_def_cfa_offset 8
 585              		.cfi_offset 7, -8
 586              		.cfi_offset 14, -4
ARM GAS  C:\Users\SAMEER~1.ALM\AppData\Local\Temp\ccKQVuZd.s 			page 15


 587 0002 82B0     		sub	sp, sp, #8
 588              	.LCFI16:
 589              		.cfi_def_cfa_offset 16
 590 0004 00AF     		add	r7, sp, #0
 591              	.LCFI17:
 592              		.cfi_def_cfa_register 7
 593 0006 7860     		str	r0, [r7, #4]
 210:./mpu6050/mpu6050.c **** 	/* Disable interrupts */
 211:./mpu6050/mpu6050.c ****   return i2c_write_7bit_base_byte_std(MPU6050_I2C, mpu->Address, MPU6050_INT_ENABLE, 0x00);
 594              		.loc 1 211 10
 595 0008 7B68     		ldr	r3, [r7, #4]
 596 000a 1978     		ldrb	r1, [r3]	@ zero_extendqisi2
 597 000c 0023     		movs	r3, #0
 598 000e 3822     		movs	r2, #56
 599 0010 0348     		ldr	r0, .L30
 600 0012 FFF7FEFF 		bl	i2c_write_7bit_base_byte_std
 601 0016 0346     		mov	r3, r0
 212:./mpu6050/mpu6050.c **** }
 602              		.loc 1 212 1
 603 0018 1846     		mov	r0, r3
 604 001a 0837     		adds	r7, r7, #8
 605              	.LCFI18:
 606              		.cfi_def_cfa_offset 8
 607 001c BD46     		mov	sp, r7
 608              	.LCFI19:
 609              		.cfi_def_cfa_register 13
 610              		@ sp needed
 611 001e 80BD     		pop	{r7, pc}
 612              	.L31:
 613              		.align	2
 614              	.L30:
 615 0020 00540040 		.word	1073763328
 616              		.cfi_endproc
 617              	.LFE36:
 619              		.section	.text.mpu6050_read_Interrupts,"ax",%progbits
 620              		.align	1
 621              		.global	mpu6050_read_Interrupts
 622              		.syntax unified
 623              		.thumb
 624              		.thumb_func
 626              	mpu6050_read_Interrupts:
 627              	.LFB37:
 213:./mpu6050/mpu6050.c **** //-------------------------------------------------------------------------------------------------
 214:./mpu6050/mpu6050.c **** /**
 215:./mpu6050/mpu6050.c ****  * @brief  Reads and clears interrupts
 216:./mpu6050/mpu6050.c ****  * @param  mpu: Pointer to @ref MPU6050_t structure indicating MPU6050 device
 217:./mpu6050/mpu6050.c ****  * @param  *InterruptsStruct: Pointer to @ref MPU6050_Interrupt_t structure to store status in
 218:./mpu6050/mpu6050.c ****  * @retval Member of @ref MPU6050_Result_t enumeration
 219:./mpu6050/mpu6050.c ****  */
 220:./mpu6050/mpu6050.c **** uint8_t mpu6050_read_Interrupts(MPU6050_t* mpu, MPU6050_Interrupt_t* InterruptsStruct)
 221:./mpu6050/mpu6050.c **** {
 628              		.loc 1 221 1
 629              		.cfi_startproc
 630              		@ args = 0, pretend = 0, frame = 16
 631              		@ frame_needed = 1, uses_anonymous_args = 0
 632 0000 80B5     		push	{r7, lr}
 633              	.LCFI20:
ARM GAS  C:\Users\SAMEER~1.ALM\AppData\Local\Temp\ccKQVuZd.s 			page 16


 634              		.cfi_def_cfa_offset 8
 635              		.cfi_offset 7, -8
 636              		.cfi_offset 14, -4
 637 0002 84B0     		sub	sp, sp, #16
 638              	.LCFI21:
 639              		.cfi_def_cfa_offset 24
 640 0004 00AF     		add	r7, sp, #0
 641              	.LCFI22:
 642              		.cfi_def_cfa_register 7
 643 0006 7860     		str	r0, [r7, #4]
 644 0008 3960     		str	r1, [r7]
 222:./mpu6050/mpu6050.c **** 	uint8_t read,error=0;
 645              		.loc 1 222 15
 646 000a 0023     		movs	r3, #0
 647 000c FB73     		strb	r3, [r7, #15]
 223:./mpu6050/mpu6050.c **** 	
 224:./mpu6050/mpu6050.c **** 	/* Reset structure */
 225:./mpu6050/mpu6050.c **** 	InterruptsStruct->Status = 0;
 648              		.loc 1 225 27
 649 000e 3B68     		ldr	r3, [r7]
 650 0010 0022     		movs	r2, #0
 651 0012 1A70     		strb	r2, [r3]
 226:./mpu6050/mpu6050.c **** 	
 227:./mpu6050/mpu6050.c **** 	/* Read interrupts status register */
 228:./mpu6050/mpu6050.c ****   error=i2c_read_7bit_base_byte_std(MPU6050_I2C, mpu->Address, MPU6050_INT_STATUS, &read);
 652              		.loc 1 228 9
 653 0014 7B68     		ldr	r3, [r7, #4]
 654 0016 1978     		ldrb	r1, [r3]	@ zero_extendqisi2
 655 0018 07F10E03 		add	r3, r7, #14
 656 001c 3A22     		movs	r2, #58
 657 001e 0948     		ldr	r0, .L36
 658 0020 FFF7FEFF 		bl	i2c_read_7bit_base_byte_std
 659 0024 0346     		mov	r3, r0
 660 0026 FB73     		strb	r3, [r7, #15]
 229:./mpu6050/mpu6050.c ****   if(error) return error;	
 661              		.loc 1 229 5
 662 0028 FB7B     		ldrb	r3, [r7, #15]	@ zero_extendqisi2
 663 002a 002B     		cmp	r3, #0
 664 002c 01D0     		beq	.L33
 665              		.loc 1 229 20 discriminator 1
 666 002e FB7B     		ldrb	r3, [r7, #15]	@ zero_extendqisi2
 667 0030 03E0     		b	.L35
 668              	.L33:
 230:./mpu6050/mpu6050.c **** 	/* Fill value */
 231:./mpu6050/mpu6050.c **** 	InterruptsStruct->Status = read;
 669              		.loc 1 231 27
 670 0032 BA7B     		ldrb	r2, [r7, #14]	@ zero_extendqisi2
 671 0034 3B68     		ldr	r3, [r7]
 672 0036 1A70     		strb	r2, [r3]
 232:./mpu6050/mpu6050.c **** 
 233:./mpu6050/mpu6050.c **** 	/* Return OK */
 234:./mpu6050/mpu6050.c **** 	return MPU6050_OK; //  or return I2C_OK;
 673              		.loc 1 234 9
 674 0038 0023     		movs	r3, #0
 675              	.L35:
 235:./mpu6050/mpu6050.c **** }
 676              		.loc 1 235 1 discriminator 1
ARM GAS  C:\Users\SAMEER~1.ALM\AppData\Local\Temp\ccKQVuZd.s 			page 17


 677 003a 1846     		mov	r0, r3
 678 003c 1037     		adds	r7, r7, #16
 679              	.LCFI23:
 680              		.cfi_def_cfa_offset 8
 681 003e BD46     		mov	sp, r7
 682              	.LCFI24:
 683              		.cfi_def_cfa_register 13
 684              		@ sp needed
 685 0040 80BD     		pop	{r7, pc}
 686              	.L37:
 687 0042 00BF     		.align	2
 688              	.L36:
 689 0044 00540040 		.word	1073763328
 690              		.cfi_endproc
 691              	.LFE37:
 693              		.section	.text.mpu6050_setGyroRange,"ax",%progbits
 694              		.align	1
 695              		.global	mpu6050_setGyroRange
 696              		.syntax unified
 697              		.thumb
 698              		.thumb_func
 700              	mpu6050_setGyroRange:
 701              	.LFB38:
 236:./mpu6050/mpu6050.c **** //-------------------------------------------------------------------------------------------------
 237:./mpu6050/mpu6050.c **** 
 238:./mpu6050/mpu6050.c **** //********************************************************************************************
 239:./mpu6050/mpu6050.c **** //
 240:./mpu6050/mpu6050.c **** //   set methods: used to change the internal registers values for MPU6050
 241:./mpu6050/mpu6050.c **** //
 242:./mpu6050/mpu6050.c **** //********************************************************************************************
 243:./mpu6050/mpu6050.c **** 
 244:./mpu6050/mpu6050.c **** /**
 245:./mpu6050/mpu6050.c ****  * @brief  Sets gyroscope sensitivity
 246:./mpu6050/mpu6050.c ****  * @param  *mpu: Pointer to @ref TM_MPU6050_t structure indicating MPU6050 device
 247:./mpu6050/mpu6050.c ****  * @param  GyroscopeSensitivity: Gyro sensitivity value. This parameter can be a value of @ref MPU6
 248:./mpu6050/mpu6050.c ****  * @retval Member of @ref TM_MPU6050_Result_t enumeration
 249:./mpu6050/mpu6050.c ****  */
 250:./mpu6050/mpu6050.c **** uint8_t mpu6050_setGyroRange(MPU6050_t* mpu, MPU6050_Gyro_Range_t Gyro_range)
 251:./mpu6050/mpu6050.c **** {
 702              		.loc 1 251 1
 703              		.cfi_startproc
 704              		@ args = 0, pretend = 0, frame = 16
 705              		@ frame_needed = 1, uses_anonymous_args = 0
 706 0000 80B5     		push	{r7, lr}
 707              	.LCFI25:
 708              		.cfi_def_cfa_offset 8
 709              		.cfi_offset 7, -8
 710              		.cfi_offset 14, -4
 711 0002 84B0     		sub	sp, sp, #16
 712              	.LCFI26:
 713              		.cfi_def_cfa_offset 24
 714 0004 00AF     		add	r7, sp, #0
 715              	.LCFI27:
 716              		.cfi_def_cfa_register 7
 717 0006 7860     		str	r0, [r7, #4]
 718 0008 0B46     		mov	r3, r1
 719 000a FB70     		strb	r3, [r7, #3]
ARM GAS  C:\Users\SAMEER~1.ALM\AppData\Local\Temp\ccKQVuZd.s 			page 18


 252:./mpu6050/mpu6050.c ****   uint8_t temp=0,error=0;
 720              		.loc 1 252 11
 721 000c 0023     		movs	r3, #0
 722 000e BB73     		strb	r3, [r7, #14]
 723              		.loc 1 252 18
 724 0010 0023     		movs	r3, #0
 725 0012 FB73     		strb	r3, [r7, #15]
 253:./mpu6050/mpu6050.c **** 	/* Config gyroscope */
 254:./mpu6050/mpu6050.c **** 	error=i2c_read_7bit_base_byte_std(MPU6050_I2C,mpu->Address,MPU6050_GYRO_CONFIG, &temp);
 726              		.loc 1 254 8
 727 0014 7B68     		ldr	r3, [r7, #4]
 728 0016 1978     		ldrb	r1, [r3]	@ zero_extendqisi2
 729 0018 07F10E03 		add	r3, r7, #14
 730 001c 1B22     		movs	r2, #27
 731 001e 2448     		ldr	r0, .L51
 732 0020 FFF7FEFF 		bl	i2c_read_7bit_base_byte_std
 733 0024 0346     		mov	r3, r0
 734 0026 FB73     		strb	r3, [r7, #15]
 255:./mpu6050/mpu6050.c ****   if(error) return error;
 735              		.loc 1 255 5
 736 0028 FB7B     		ldrb	r3, [r7, #15]	@ zero_extendqisi2
 737 002a 002B     		cmp	r3, #0
 738 002c 01D0     		beq	.L39
 739              		.loc 1 255 20 discriminator 1
 740 002e FB7B     		ldrb	r3, [r7, #15]	@ zero_extendqisi2
 741 0030 3AE0     		b	.L49
 742              	.L39:
 256:./mpu6050/mpu6050.c **** 	temp = (temp & 0xE7) | (uint8_t)Gyro_range << 3;
 743              		.loc 1 256 15
 744 0032 BB7B     		ldrb	r3, [r7, #14]	@ zero_extendqisi2
 745 0034 5BB2     		sxtb	r3, r3
 746 0036 23F01803 		bic	r3, r3, #24
 747 003a 5AB2     		sxtb	r2, r3
 748              		.loc 1 256 25
 749 003c FB78     		ldrb	r3, [r7, #3]	@ zero_extendqisi2
 750              		.loc 1 256 45
 751 003e DB00     		lsls	r3, r3, #3
 752              		.loc 1 256 23
 753 0040 5BB2     		sxtb	r3, r3
 754 0042 1343     		orrs	r3, r3, r2
 755 0044 5BB2     		sxtb	r3, r3
 756 0046 DBB2     		uxtb	r3, r3
 757              		.loc 1 256 7
 758 0048 BB73     		strb	r3, [r7, #14]
 257:./mpu6050/mpu6050.c **** 	error=i2c_write_7bit_base_byte_std(MPU6050_I2C, mpu->Address, MPU6050_GYRO_CONFIG, temp);//TM_I2C_
 759              		.loc 1 257 8
 760 004a 7B68     		ldr	r3, [r7, #4]
 761 004c 1978     		ldrb	r1, [r3]	@ zero_extendqisi2
 762 004e BB7B     		ldrb	r3, [r7, #14]	@ zero_extendqisi2
 763 0050 1B22     		movs	r2, #27
 764 0052 1748     		ldr	r0, .L51
 765 0054 FFF7FEFF 		bl	i2c_write_7bit_base_byte_std
 766 0058 0346     		mov	r3, r0
 767 005a FB73     		strb	r3, [r7, #15]
 258:./mpu6050/mpu6050.c **** 	if(error) return error;
 768              		.loc 1 258 4
 769 005c FB7B     		ldrb	r3, [r7, #15]	@ zero_extendqisi2
ARM GAS  C:\Users\SAMEER~1.ALM\AppData\Local\Temp\ccKQVuZd.s 			page 19


 770 005e 002B     		cmp	r3, #0
 771 0060 01D0     		beq	.L41
 772              		.loc 1 258 19 discriminator 1
 773 0062 FB7B     		ldrb	r3, [r7, #15]	@ zero_extendqisi2
 774 0064 20E0     		b	.L49
 775              	.L41:
 259:./mpu6050/mpu6050.c **** 
 260:./mpu6050/mpu6050.c **** 	switch (Gyro_range) 
 776              		.loc 1 260 2
 777 0066 FB78     		ldrb	r3, [r7, #3]	@ zero_extendqisi2
 778 0068 032B     		cmp	r3, #3
 779 006a 1BD8     		bhi	.L50
 780 006c 01A2     		adr	r2, .L44
 781 006e 52F823F0 		ldr	pc, [r2, r3, lsl #2]
 782 0072 00BF     		.p2align 2
 783              	.L44:
 784 0074 85000000 		.word	.L47+1
 785 0078 8D000000 		.word	.L46+1
 786 007c 95000000 		.word	.L45+1
 787 0080 9D000000 		.word	.L43+1
 788              		.p2align 1
 789              	.L47:
 261:./mpu6050/mpu6050.c ****     {
 262:./mpu6050/mpu6050.c **** 		case MPU6050_Gyro_Range_250s: mpu->Gyro_scale = (float) MPU6050_GYRO_SENS_250;  break;
 790              		.loc 1 262 49
 791 0084 7B68     		ldr	r3, [r7, #4]
 792 0086 0B4A     		ldr	r2, .L51+4
 793 0088 1A62     		str	r2, [r3, #32]	@ float
 794              		.loc 1 262 3
 795 008a 0CE0     		b	.L48
 796              	.L46:
 263:./mpu6050/mpu6050.c **** 		case MPU6050_Gyro_Range_500s: mpu->Gyro_scale = (float) MPU6050_GYRO_SENS_500;  break;
 797              		.loc 1 263 49
 798 008c 7B68     		ldr	r3, [r7, #4]
 799 008e 0A4A     		ldr	r2, .L51+8
 800 0090 1A62     		str	r2, [r3, #32]	@ float
 801              		.loc 1 263 3
 802 0092 08E0     		b	.L48
 803              	.L45:
 264:./mpu6050/mpu6050.c **** 		case MPU6050_Gyro_Range_1000s:mpu->Gyro_scale = (float) MPU6050_GYRO_SENS_1000; break;
 804              		.loc 1 264 49
 805 0094 7B68     		ldr	r3, [r7, #4]
 806 0096 094A     		ldr	r2, .L51+12
 807 0098 1A62     		str	r2, [r3, #32]	@ float
 808              		.loc 1 264 3
 809 009a 04E0     		b	.L48
 810              	.L43:
 265:./mpu6050/mpu6050.c **** 		case MPU6050_Gyro_Range_2000s:mpu->Gyro_scale = (float) MPU6050_GYRO_SENS_2000; break;
 811              		.loc 1 265 49
 812 009c 7B68     		ldr	r3, [r7, #4]
 813 009e 084A     		ldr	r2, .L51+16
 814 00a0 1A62     		str	r2, [r3, #32]	@ float
 815              		.loc 1 265 3
 816 00a2 00E0     		b	.L48
 817              	.L50:
 266:./mpu6050/mpu6050.c **** 		default:
 267:./mpu6050/mpu6050.c **** 		break;
ARM GAS  C:\Users\SAMEER~1.ALM\AppData\Local\Temp\ccKQVuZd.s 			page 20


 818              		.loc 1 267 3
 819 00a4 00BF     		nop
 820              	.L48:
 268:./mpu6050/mpu6050.c **** 	}
 269:./mpu6050/mpu6050.c **** 	/* Return OK */
 270:./mpu6050/mpu6050.c **** 	return MPU6050_OK; //  or return I2C_OK;
 821              		.loc 1 270 9
 822 00a6 0023     		movs	r3, #0
 823              	.L49:
 271:./mpu6050/mpu6050.c **** }
 824              		.loc 1 271 1 discriminator 1
 825 00a8 1846     		mov	r0, r3
 826 00aa 1037     		adds	r7, r7, #16
 827              	.LCFI28:
 828              		.cfi_def_cfa_offset 8
 829 00ac BD46     		mov	sp, r7
 830              	.LCFI29:
 831              		.cfi_def_cfa_register 13
 832              		@ sp needed
 833 00ae 80BD     		pop	{r7, pc}
 834              	.L52:
 835              		.align	2
 836              	.L51:
 837 00b0 00540040 		.word	1073763328
 838 00b4 00000343 		.word	1124270080
 839 00b8 00008342 		.word	1115881472
 840 00bc 33330342 		.word	1107505971
 841 00c0 33338341 		.word	1099117363
 842              		.cfi_endproc
 843              	.LFE38:
 845              		.section	.text.mpu6050_setAccelRange,"ax",%progbits
 846              		.align	1
 847              		.global	mpu6050_setAccelRange
 848              		.syntax unified
 849              		.thumb
 850              		.thumb_func
 852              	mpu6050_setAccelRange:
 853              	.LFB39:
 272:./mpu6050/mpu6050.c **** //-------------------------------------------------------------------------------------------------
 273:./mpu6050/mpu6050.c **** /**
 274:./mpu6050/mpu6050.c ****  * @brief  Sets accelerometer sensitivity
 275:./mpu6050/mpu6050.c ****  * @param  *mpu: Pointer to @ref MPU6050_t structure indicating MPU6050 device
 276:./mpu6050/mpu6050.c ****  * @param  AccelerometerSensitivity: Gyro sensitivity value. This parameter can be a value of @ref 
 277:./mpu6050/mpu6050.c ****  * @retval Member of @ref MPU6050_Result_t enumeration
 278:./mpu6050/mpu6050.c ****  */
 279:./mpu6050/mpu6050.c **** uint8_t mpu6050_setAccelRange(MPU6050_t* mpu, MPU6050_Accel_Range_t Accel_Range)
 280:./mpu6050/mpu6050.c **** {
 854              		.loc 1 280 1
 855              		.cfi_startproc
 856              		@ args = 0, pretend = 0, frame = 16
 857              		@ frame_needed = 1, uses_anonymous_args = 0
 858 0000 80B5     		push	{r7, lr}
 859              	.LCFI30:
 860              		.cfi_def_cfa_offset 8
 861              		.cfi_offset 7, -8
 862              		.cfi_offset 14, -4
 863 0002 84B0     		sub	sp, sp, #16
ARM GAS  C:\Users\SAMEER~1.ALM\AppData\Local\Temp\ccKQVuZd.s 			page 21


 864              	.LCFI31:
 865              		.cfi_def_cfa_offset 24
 866 0004 00AF     		add	r7, sp, #0
 867              	.LCFI32:
 868              		.cfi_def_cfa_register 7
 869 0006 7860     		str	r0, [r7, #4]
 870 0008 0B46     		mov	r3, r1
 871 000a FB70     		strb	r3, [r7, #3]
 281:./mpu6050/mpu6050.c **** 	uint8_t temp=0;
 872              		.loc 1 281 10
 873 000c 0023     		movs	r3, #0
 874 000e BB73     		strb	r3, [r7, #14]
 282:./mpu6050/mpu6050.c **** 	uint8_t error=0;
 875              		.loc 1 282 10
 876 0010 0023     		movs	r3, #0
 877 0012 FB73     		strb	r3, [r7, #15]
 283:./mpu6050/mpu6050.c **** 	/* Config accelerometer */
 284:./mpu6050/mpu6050.c **** 	error=i2c_read_7bit_base_byte_std(MPU6050_I2C, mpu->Address, MPU6050_ACCEL_CONFIG, &temp);
 878              		.loc 1 284 8
 879 0014 7B68     		ldr	r3, [r7, #4]
 880 0016 1978     		ldrb	r1, [r3]	@ zero_extendqisi2
 881 0018 07F10E03 		add	r3, r7, #14
 882 001c 1C22     		movs	r2, #28
 883 001e 2648     		ldr	r0, .L66
 884 0020 FFF7FEFF 		bl	i2c_read_7bit_base_byte_std
 885 0024 0346     		mov	r3, r0
 886 0026 FB73     		strb	r3, [r7, #15]
 285:./mpu6050/mpu6050.c ****   if(error) return error;
 887              		.loc 1 285 5
 888 0028 FB7B     		ldrb	r3, [r7, #15]	@ zero_extendqisi2
 889 002a 002B     		cmp	r3, #0
 890 002c 01D0     		beq	.L54
 891              		.loc 1 285 20 discriminator 1
 892 002e FB7B     		ldrb	r3, [r7, #15]	@ zero_extendqisi2
 893 0030 3EE0     		b	.L64
 894              	.L54:
 286:./mpu6050/mpu6050.c **** 	temp = (temp & 0xE7) | (uint8_t)Accel_Range << 3;
 895              		.loc 1 286 15
 896 0032 BB7B     		ldrb	r3, [r7, #14]	@ zero_extendqisi2
 897 0034 5BB2     		sxtb	r3, r3
 898 0036 23F01803 		bic	r3, r3, #24
 899 003a 5AB2     		sxtb	r2, r3
 900              		.loc 1 286 25
 901 003c FB78     		ldrb	r3, [r7, #3]	@ zero_extendqisi2
 902              		.loc 1 286 46
 903 003e DB00     		lsls	r3, r3, #3
 904              		.loc 1 286 23
 905 0040 5BB2     		sxtb	r3, r3
 906 0042 1343     		orrs	r3, r3, r2
 907 0044 5BB2     		sxtb	r3, r3
 908 0046 DBB2     		uxtb	r3, r3
 909              		.loc 1 286 7
 910 0048 BB73     		strb	r3, [r7, #14]
 287:./mpu6050/mpu6050.c **** 	error=i2c_write_7bit_base_byte_std(MPU6050_I2C, mpu->Address, MPU6050_ACCEL_CONFIG, temp);
 911              		.loc 1 287 8
 912 004a 7B68     		ldr	r3, [r7, #4]
 913 004c 1978     		ldrb	r1, [r3]	@ zero_extendqisi2
ARM GAS  C:\Users\SAMEER~1.ALM\AppData\Local\Temp\ccKQVuZd.s 			page 22


 914 004e BB7B     		ldrb	r3, [r7, #14]	@ zero_extendqisi2
 915 0050 1C22     		movs	r2, #28
 916 0052 1948     		ldr	r0, .L66
 917 0054 FFF7FEFF 		bl	i2c_write_7bit_base_byte_std
 918 0058 0346     		mov	r3, r0
 919 005a FB73     		strb	r3, [r7, #15]
 288:./mpu6050/mpu6050.c ****   if(error) return error;
 920              		.loc 1 288 5
 921 005c FB7B     		ldrb	r3, [r7, #15]	@ zero_extendqisi2
 922 005e 002B     		cmp	r3, #0
 923 0060 01D0     		beq	.L56
 924              		.loc 1 288 20 discriminator 1
 925 0062 FB7B     		ldrb	r3, [r7, #15]	@ zero_extendqisi2
 926 0064 24E0     		b	.L64
 927              	.L56:
 289:./mpu6050/mpu6050.c **** 	
 290:./mpu6050/mpu6050.c **** 	/* Set sensitivities for multiplying gyro and accelerometer data */
 291:./mpu6050/mpu6050.c **** 	switch (Accel_Range) 
 928              		.loc 1 291 2
 929 0066 FB78     		ldrb	r3, [r7, #3]	@ zero_extendqisi2
 930 0068 032B     		cmp	r3, #3
 931 006a 1FD8     		bhi	.L65
 932 006c 01A2     		adr	r2, .L59
 933 006e 52F823F0 		ldr	pc, [r2, r3, lsl #2]
 934 0072 00BF     		.p2align 2
 935              	.L59:
 936 0074 85000000 		.word	.L62+1
 937 0078 8F000000 		.word	.L61+1
 938 007c 99000000 		.word	.L60+1
 939 0080 A3000000 		.word	.L58+1
 940              		.p2align 1
 941              	.L62:
 292:./mpu6050/mpu6050.c **** 	{
 293:./mpu6050/mpu6050.c **** 		case MPU6050_Accel_Range_2G:  mpu->Acce_scale = (float) MPU6050_ACCE_SENS_2;  break;
 942              		.loc 1 293 49
 943 0084 7B68     		ldr	r3, [r7, #4]
 944 0086 4FF08D42 		mov	r2, #1182793728
 945 008a DA61     		str	r2, [r3, #28]	@ float
 946              		.loc 1 293 3
 947 008c 0FE0     		b	.L63
 948              	.L61:
 294:./mpu6050/mpu6050.c **** 		case MPU6050_Accel_Range_4G:  mpu->Acce_scale = (float) MPU6050_ACCE_SENS_4;  break;
 949              		.loc 1 294 49
 950 008e 7B68     		ldr	r3, [r7, #4]
 951 0090 4FF08C42 		mov	r2, #1174405120
 952 0094 DA61     		str	r2, [r3, #28]	@ float
 953              		.loc 1 294 3
 954 0096 0AE0     		b	.L63
 955              	.L60:
 295:./mpu6050/mpu6050.c **** 		case MPU6050_Accel_Range_8G:  mpu->Acce_scale = (float) MPU6050_ACCE_SENS_8;  break;
 956              		.loc 1 295 49
 957 0098 7B68     		ldr	r3, [r7, #4]
 958 009a 4FF08B42 		mov	r2, #1166016512
 959 009e DA61     		str	r2, [r3, #28]	@ float
 960              		.loc 1 295 3
 961 00a0 05E0     		b	.L63
 962              	.L58:
ARM GAS  C:\Users\SAMEER~1.ALM\AppData\Local\Temp\ccKQVuZd.s 			page 23


 296:./mpu6050/mpu6050.c **** 		case MPU6050_Accel_Range_16G: mpu->Acce_scale = (float) MPU6050_ACCE_SENS_16; break; 
 963              		.loc 1 296 49
 964 00a2 7B68     		ldr	r3, [r7, #4]
 965 00a4 4FF08A42 		mov	r2, #1157627904
 966 00a8 DA61     		str	r2, [r3, #28]	@ float
 967              		.loc 1 296 3
 968 00aa 00E0     		b	.L63
 969              	.L65:
 297:./mpu6050/mpu6050.c **** 		default:
 298:./mpu6050/mpu6050.c **** 		break;
 970              		.loc 1 298 3
 971 00ac 00BF     		nop
 972              	.L63:
 299:./mpu6050/mpu6050.c **** 	}
 300:./mpu6050/mpu6050.c **** 	
 301:./mpu6050/mpu6050.c **** 	/* Return OK */
 302:./mpu6050/mpu6050.c **** 	return MPU6050_OK; //  or return I2C_OK; 
 973              		.loc 1 302 9
 974 00ae 0023     		movs	r3, #0
 975              	.L64:
 303:./mpu6050/mpu6050.c **** }
 976              		.loc 1 303 1 discriminator 1
 977 00b0 1846     		mov	r0, r3
 978 00b2 1037     		adds	r7, r7, #16
 979              	.LCFI33:
 980              		.cfi_def_cfa_offset 8
 981 00b4 BD46     		mov	sp, r7
 982              	.LCFI34:
 983              		.cfi_def_cfa_register 13
 984              		@ sp needed
 985 00b6 80BD     		pop	{r7, pc}
 986              	.L67:
 987              		.align	2
 988              	.L66:
 989 00b8 00540040 		.word	1073763328
 990              		.cfi_endproc
 991              	.LFE39:
 993              		.section	.text.mpu6050_setClock,"ax",%progbits
 994              		.align	1
 995              		.global	mpu6050_setClock
 996              		.syntax unified
 997              		.thumb
 998              		.thumb_func
 1000              	mpu6050_setClock:
 1001              	.LFB40:
 304:./mpu6050/mpu6050.c **** //-------------------------------------------------------------------------------------------------
 305:./mpu6050/mpu6050.c **** uint8_t mpu6050_setClock(MPU6050_t* mpu,MPU6050_Clock_Select_t clock_select)
 306:./mpu6050/mpu6050.c **** {
 1002              		.loc 1 306 1
 1003              		.cfi_startproc
 1004              		@ args = 0, pretend = 0, frame = 8
 1005              		@ frame_needed = 1, uses_anonymous_args = 0
 1006              		@ link register save eliminated.
 1007 0000 80B4     		push	{r7}
 1008              	.LCFI35:
 1009              		.cfi_def_cfa_offset 4
 1010              		.cfi_offset 7, -4
ARM GAS  C:\Users\SAMEER~1.ALM\AppData\Local\Temp\ccKQVuZd.s 			page 24


 1011 0002 83B0     		sub	sp, sp, #12
 1012              	.LCFI36:
 1013              		.cfi_def_cfa_offset 16
 1014 0004 00AF     		add	r7, sp, #0
 1015              	.LCFI37:
 1016              		.cfi_def_cfa_register 7
 1017 0006 7860     		str	r0, [r7, #4]
 1018 0008 0B46     		mov	r3, r1
 1019 000a FB70     		strb	r3, [r7, #3]
 307:./mpu6050/mpu6050.c **** 	
 308:./mpu6050/mpu6050.c **** 	/* Return OK */
 309:./mpu6050/mpu6050.c **** 	return MPU6050_OK; //  or return I2C_OK;
 1020              		.loc 1 309 9
 1021 000c 0023     		movs	r3, #0
 310:./mpu6050/mpu6050.c **** }
 1022              		.loc 1 310 1
 1023 000e 1846     		mov	r0, r3
 1024 0010 0C37     		adds	r7, r7, #12
 1025              	.LCFI38:
 1026              		.cfi_def_cfa_offset 4
 1027 0012 BD46     		mov	sp, r7
 1028              	.LCFI39:
 1029              		.cfi_def_cfa_register 13
 1030              		@ sp needed
 1031 0014 80BC     		pop	{r7}
 1032              	.LCFI40:
 1033              		.cfi_restore 7
 1034              		.cfi_def_cfa_offset 0
 1035 0016 7047     		bx	lr
 1036              		.cfi_endproc
 1037              	.LFE40:
 1039              		.section	.text.mpu6050_setDataRate,"ax",%progbits
 1040              		.align	1
 1041              		.global	mpu6050_setDataRate
 1042              		.syntax unified
 1043              		.thumb
 1044              		.thumb_func
 1046              	mpu6050_setDataRate:
 1047              	.LFB41:
 311:./mpu6050/mpu6050.c **** //-------------------------------------------------------------------------------------------------
 312:./mpu6050/mpu6050.c **** /**
 313:./mpu6050/mpu6050.c ****  * @brief  Sets output data rate
 314:./mpu6050/mpu6050.c ****  * @param  *mpu: Pointer to @ref MPU6050_t structure indicating MPU6050 device
 315:./mpu6050/mpu6050.c ****  * @param  rate: Data rate value. An 8-bit value for prescaler value
 316:./mpu6050/mpu6050.c ****  * @retval Member of @ref MPU6050_Result_t enumeration
 317:./mpu6050/mpu6050.c ****  */
 318:./mpu6050/mpu6050.c **** uint8_t mpu6050_setDataRate(MPU6050_t* mpu, uint8_t rate)
 319:./mpu6050/mpu6050.c **** {
 1048              		.loc 1 319 1
 1049              		.cfi_startproc
 1050              		@ args = 0, pretend = 0, frame = 8
 1051              		@ frame_needed = 1, uses_anonymous_args = 0
 1052 0000 80B5     		push	{r7, lr}
 1053              	.LCFI41:
 1054              		.cfi_def_cfa_offset 8
 1055              		.cfi_offset 7, -8
 1056              		.cfi_offset 14, -4
ARM GAS  C:\Users\SAMEER~1.ALM\AppData\Local\Temp\ccKQVuZd.s 			page 25


 1057 0002 82B0     		sub	sp, sp, #8
 1058              	.LCFI42:
 1059              		.cfi_def_cfa_offset 16
 1060 0004 00AF     		add	r7, sp, #0
 1061              	.LCFI43:
 1062              		.cfi_def_cfa_register 7
 1063 0006 7860     		str	r0, [r7, #4]
 1064 0008 0B46     		mov	r3, r1
 1065 000a FB70     		strb	r3, [r7, #3]
 320:./mpu6050/mpu6050.c ****  	return i2c_write_7bit_base_byte_std(MPU6050_I2C, mpu->Address, MPU6050_SMPLRT_DIV, rate);
 1066              		.loc 1 320 10
 1067 000c 7B68     		ldr	r3, [r7, #4]
 1068 000e 1978     		ldrb	r1, [r3]	@ zero_extendqisi2
 1069 0010 FB78     		ldrb	r3, [r7, #3]	@ zero_extendqisi2
 1070 0012 1922     		movs	r2, #25
 1071 0014 0348     		ldr	r0, .L72
 1072 0016 FFF7FEFF 		bl	i2c_write_7bit_base_byte_std
 1073 001a 0346     		mov	r3, r0
 321:./mpu6050/mpu6050.c **** }
 1074              		.loc 1 321 1
 1075 001c 1846     		mov	r0, r3
 1076 001e 0837     		adds	r7, r7, #8
 1077              	.LCFI44:
 1078              		.cfi_def_cfa_offset 8
 1079 0020 BD46     		mov	sp, r7
 1080              	.LCFI45:
 1081              		.cfi_def_cfa_register 13
 1082              		@ sp needed
 1083 0022 80BD     		pop	{r7, pc}
 1084              	.L73:
 1085              		.align	2
 1086              	.L72:
 1087 0024 00540040 		.word	1073763328
 1088              		.cfi_endproc
 1089              	.LFE41:
 1091              		.section	.text.mpu6050_setSampleRateDivisor,"ax",%progbits
 1092              		.align	1
 1093              		.global	mpu6050_setSampleRateDivisor
 1094              		.syntax unified
 1095              		.thumb
 1096              		.thumb_func
 1098              	mpu6050_setSampleRateDivisor:
 1099              	.LFB42:
 322:./mpu6050/mpu6050.c **** //-------------------------------------------------------------------------------------------------
 323:./mpu6050/mpu6050.c **** uint8_t mpu6050_setSampleRateDivisor(MPU6050_t* mpu,uint8_t SampleRateDiv)
 324:./mpu6050/mpu6050.c **** {
 1100              		.loc 1 324 1
 1101              		.cfi_startproc
 1102              		@ args = 0, pretend = 0, frame = 8
 1103              		@ frame_needed = 1, uses_anonymous_args = 0
 1104 0000 80B5     		push	{r7, lr}
 1105              	.LCFI46:
 1106              		.cfi_def_cfa_offset 8
 1107              		.cfi_offset 7, -8
 1108              		.cfi_offset 14, -4
 1109 0002 82B0     		sub	sp, sp, #8
 1110              	.LCFI47:
ARM GAS  C:\Users\SAMEER~1.ALM\AppData\Local\Temp\ccKQVuZd.s 			page 26


 1111              		.cfi_def_cfa_offset 16
 1112 0004 00AF     		add	r7, sp, #0
 1113              	.LCFI48:
 1114              		.cfi_def_cfa_register 7
 1115 0006 7860     		str	r0, [r7, #4]
 1116 0008 0B46     		mov	r3, r1
 1117 000a FB70     		strb	r3, [r7, #3]
 325:./mpu6050/mpu6050.c **** 	 return i2c_write_7bit_base_byte_std(MPU6050_I2C, mpu->Address, MPU6050_SMPLRT_DIV, SampleRateDiv)
 1118              		.loc 1 325 10
 1119 000c 7B68     		ldr	r3, [r7, #4]
 1120 000e 1978     		ldrb	r1, [r3]	@ zero_extendqisi2
 1121 0010 FB78     		ldrb	r3, [r7, #3]	@ zero_extendqisi2
 1122 0012 1922     		movs	r2, #25
 1123 0014 0348     		ldr	r0, .L76
 1124 0016 FFF7FEFF 		bl	i2c_write_7bit_base_byte_std
 1125 001a 0346     		mov	r3, r0
 326:./mpu6050/mpu6050.c **** }
 1126              		.loc 1 326 1
 1127 001c 1846     		mov	r0, r3
 1128 001e 0837     		adds	r7, r7, #8
 1129              	.LCFI49:
 1130              		.cfi_def_cfa_offset 8
 1131 0020 BD46     		mov	sp, r7
 1132              	.LCFI50:
 1133              		.cfi_def_cfa_register 13
 1134              		@ sp needed
 1135 0022 80BD     		pop	{r7, pc}
 1136              	.L77:
 1137              		.align	2
 1138              	.L76:
 1139 0024 00540040 		.word	1073763328
 1140              		.cfi_endproc
 1141              	.LFE42:
 1143              		.section	.text.mpu6050_setCycleRate,"ax",%progbits
 1144              		.align	1
 1145              		.global	mpu6050_setCycleRate
 1146              		.syntax unified
 1147              		.thumb
 1148              		.thumb_func
 1150              	mpu6050_setCycleRate:
 1151              	.LFB43:
 327:./mpu6050/mpu6050.c **** //-------------------------------------------------------------------------------------------------
 328:./mpu6050/mpu6050.c **** uint8_t mpu6050_setCycleRate(MPU6050_t* mpu,MPU6050_Cycle_Rate_t rate)
 329:./mpu6050/mpu6050.c **** {
 1152              		.loc 1 329 1
 1153              		.cfi_startproc
 1154              		@ args = 0, pretend = 0, frame = 16
 1155              		@ frame_needed = 1, uses_anonymous_args = 0
 1156 0000 80B5     		push	{r7, lr}
 1157              	.LCFI51:
 1158              		.cfi_def_cfa_offset 8
 1159              		.cfi_offset 7, -8
 1160              		.cfi_offset 14, -4
 1161 0002 84B0     		sub	sp, sp, #16
 1162              	.LCFI52:
 1163              		.cfi_def_cfa_offset 24
 1164 0004 00AF     		add	r7, sp, #0
ARM GAS  C:\Users\SAMEER~1.ALM\AppData\Local\Temp\ccKQVuZd.s 			page 27


 1165              	.LCFI53:
 1166              		.cfi_def_cfa_register 7
 1167 0006 7860     		str	r0, [r7, #4]
 1168 0008 0B46     		mov	r3, r1
 1169 000a FB70     		strb	r3, [r7, #3]
 330:./mpu6050/mpu6050.c **** 	uint8_t error=0,temp=0;
 1170              		.loc 1 330 10
 1171 000c 0023     		movs	r3, #0
 1172 000e FB73     		strb	r3, [r7, #15]
 1173              		.loc 1 330 18
 1174 0010 0023     		movs	r3, #0
 1175 0012 BB73     		strb	r3, [r7, #14]
 331:./mpu6050/mpu6050.c **** 	error=i2c_read_7bit_base_byte_std(MPU6050_I2C, mpu->Address, MPU6050_PWR_MGMT_2, &temp);
 1176              		.loc 1 331 8
 1177 0014 7B68     		ldr	r3, [r7, #4]
 1178 0016 1978     		ldrb	r1, [r3]	@ zero_extendqisi2
 1179 0018 07F10E03 		add	r3, r7, #14
 1180 001c 6C22     		movs	r2, #108
 1181 001e 1448     		ldr	r0, .L83
 1182 0020 FFF7FEFF 		bl	i2c_read_7bit_base_byte_std
 1183 0024 0346     		mov	r3, r0
 1184 0026 FB73     		strb	r3, [r7, #15]
 332:./mpu6050/mpu6050.c ****   if(error) return error;
 1185              		.loc 1 332 5
 1186 0028 FB7B     		ldrb	r3, [r7, #15]	@ zero_extendqisi2
 1187 002a 002B     		cmp	r3, #0
 1188 002c 01D0     		beq	.L79
 1189              		.loc 1 332 20 discriminator 1
 1190 002e FB7B     		ldrb	r3, [r7, #15]	@ zero_extendqisi2
 1191 0030 1AE0     		b	.L82
 1192              	.L79:
 333:./mpu6050/mpu6050.c **** 	temp = (temp & 0x3f) | (uint8_t)rate << 6;
 1193              		.loc 1 333 15
 1194 0032 BB7B     		ldrb	r3, [r7, #14]	@ zero_extendqisi2
 1195 0034 5BB2     		sxtb	r3, r3
 1196 0036 03F03F03 		and	r3, r3, #63
 1197 003a 5AB2     		sxtb	r2, r3
 1198              		.loc 1 333 25
 1199 003c FB78     		ldrb	r3, [r7, #3]	@ zero_extendqisi2
 1200              		.loc 1 333 39
 1201 003e 9B01     		lsls	r3, r3, #6
 1202              		.loc 1 333 23
 1203 0040 5BB2     		sxtb	r3, r3
 1204 0042 1343     		orrs	r3, r3, r2
 1205 0044 5BB2     		sxtb	r3, r3
 1206 0046 DBB2     		uxtb	r3, r3
 1207              		.loc 1 333 7
 1208 0048 BB73     		strb	r3, [r7, #14]
 334:./mpu6050/mpu6050.c **** 	error=i2c_write_7bit_base_byte_std(MPU6050_I2C, mpu->Address, MPU6050_PWR_MGMT_2, temp);
 1209              		.loc 1 334 8
 1210 004a 7B68     		ldr	r3, [r7, #4]
 1211 004c 1978     		ldrb	r1, [r3]	@ zero_extendqisi2
 1212 004e BB7B     		ldrb	r3, [r7, #14]	@ zero_extendqisi2
 1213 0050 6C22     		movs	r2, #108
 1214 0052 0748     		ldr	r0, .L83
 1215 0054 FFF7FEFF 		bl	i2c_write_7bit_base_byte_std
 1216 0058 0346     		mov	r3, r0
ARM GAS  C:\Users\SAMEER~1.ALM\AppData\Local\Temp\ccKQVuZd.s 			page 28


 1217 005a FB73     		strb	r3, [r7, #15]
 335:./mpu6050/mpu6050.c ****   if(error) return error;
 1218              		.loc 1 335 5
 1219 005c FB7B     		ldrb	r3, [r7, #15]	@ zero_extendqisi2
 1220 005e 002B     		cmp	r3, #0
 1221 0060 01D0     		beq	.L81
 1222              		.loc 1 335 20 discriminator 1
 1223 0062 FB7B     		ldrb	r3, [r7, #15]	@ zero_extendqisi2
 1224 0064 00E0     		b	.L82
 1225              	.L81:
 336:./mpu6050/mpu6050.c **** 	
 337:./mpu6050/mpu6050.c **** 	/* Return OK */
 338:./mpu6050/mpu6050.c **** 	return MPU6050_OK; //  or return I2C_OK;
 1226              		.loc 1 338 9
 1227 0066 0023     		movs	r3, #0
 1228              	.L82:
 339:./mpu6050/mpu6050.c **** }
 1229              		.loc 1 339 1 discriminator 1
 1230 0068 1846     		mov	r0, r3
 1231 006a 1037     		adds	r7, r7, #16
 1232              	.LCFI54:
 1233              		.cfi_def_cfa_offset 8
 1234 006c BD46     		mov	sp, r7
 1235              	.LCFI55:
 1236              		.cfi_def_cfa_register 13
 1237              		@ sp needed
 1238 006e 80BD     		pop	{r7, pc}
 1239              	.L84:
 1240              		.align	2
 1241              	.L83:
 1242 0070 00540040 		.word	1073763328
 1243              		.cfi_endproc
 1244              	.LFE43:
 1246              		.section	.text.mpu6050_enableSleep,"ax",%progbits
 1247              		.align	1
 1248              		.global	mpu6050_enableSleep
 1249              		.syntax unified
 1250              		.thumb
 1251              		.thumb_func
 1253              	mpu6050_enableSleep:
 1254              	.LFB44:
 340:./mpu6050/mpu6050.c **** //-------------------------------------------------------------------------------------------------
 341:./mpu6050/mpu6050.c **** uint8_t mpu6050_enableSleep(MPU6050_t* mpu,uint8_t enable)
 342:./mpu6050/mpu6050.c **** {
 1255              		.loc 1 342 1
 1256              		.cfi_startproc
 1257              		@ args = 0, pretend = 0, frame = 16
 1258              		@ frame_needed = 1, uses_anonymous_args = 0
 1259 0000 80B5     		push	{r7, lr}
 1260              	.LCFI56:
 1261              		.cfi_def_cfa_offset 8
 1262              		.cfi_offset 7, -8
 1263              		.cfi_offset 14, -4
 1264 0002 84B0     		sub	sp, sp, #16
 1265              	.LCFI57:
 1266              		.cfi_def_cfa_offset 24
 1267 0004 00AF     		add	r7, sp, #0
ARM GAS  C:\Users\SAMEER~1.ALM\AppData\Local\Temp\ccKQVuZd.s 			page 29


 1268              	.LCFI58:
 1269              		.cfi_def_cfa_register 7
 1270 0006 7860     		str	r0, [r7, #4]
 1271 0008 0B46     		mov	r3, r1
 1272 000a FB70     		strb	r3, [r7, #3]
 343:./mpu6050/mpu6050.c **** 	uint8_t error=0,temp=0;
 1273              		.loc 1 343 10
 1274 000c 0023     		movs	r3, #0
 1275 000e FB73     		strb	r3, [r7, #15]
 1276              		.loc 1 343 18
 1277 0010 0023     		movs	r3, #0
 1278 0012 BB73     		strb	r3, [r7, #14]
 344:./mpu6050/mpu6050.c **** 	error=i2c_read_7bit_base_byte_std(MPU6050_I2C, mpu->Address, MPU6050_PWR_MGMT_1, &temp);
 1279              		.loc 1 344 8
 1280 0014 7B68     		ldr	r3, [r7, #4]
 1281 0016 1978     		ldrb	r1, [r3]	@ zero_extendqisi2
 1282 0018 07F10E03 		add	r3, r7, #14
 1283 001c 6B22     		movs	r2, #107
 1284 001e 1448     		ldr	r0, .L90
 1285 0020 FFF7FEFF 		bl	i2c_read_7bit_base_byte_std
 1286 0024 0346     		mov	r3, r0
 1287 0026 FB73     		strb	r3, [r7, #15]
 345:./mpu6050/mpu6050.c ****   if(error) return error;
 1288              		.loc 1 345 5
 1289 0028 FB7B     		ldrb	r3, [r7, #15]	@ zero_extendqisi2
 1290 002a 002B     		cmp	r3, #0
 1291 002c 01D0     		beq	.L86
 1292              		.loc 1 345 20 discriminator 1
 1293 002e FB7B     		ldrb	r3, [r7, #15]	@ zero_extendqisi2
 1294 0030 1AE0     		b	.L89
 1295              	.L86:
 346:./mpu6050/mpu6050.c **** 	temp = (temp & 0xaf) | (uint8_t)enable << 6;
 1296              		.loc 1 346 15
 1297 0032 BB7B     		ldrb	r3, [r7, #14]	@ zero_extendqisi2
 1298 0034 5BB2     		sxtb	r3, r3
 1299 0036 23F05003 		bic	r3, r3, #80
 1300 003a 5AB2     		sxtb	r2, r3
 1301              		.loc 1 346 25
 1302 003c FB78     		ldrb	r3, [r7, #3]	@ zero_extendqisi2
 1303              		.loc 1 346 41
 1304 003e 9B01     		lsls	r3, r3, #6
 1305              		.loc 1 346 23
 1306 0040 5BB2     		sxtb	r3, r3
 1307 0042 1343     		orrs	r3, r3, r2
 1308 0044 5BB2     		sxtb	r3, r3
 1309 0046 DBB2     		uxtb	r3, r3
 1310              		.loc 1 346 7
 1311 0048 BB73     		strb	r3, [r7, #14]
 347:./mpu6050/mpu6050.c **** 	error=i2c_write_7bit_base_byte_std(MPU6050_I2C, mpu->Address, MPU6050_PWR_MGMT_1, temp);
 1312              		.loc 1 347 8
 1313 004a 7B68     		ldr	r3, [r7, #4]
 1314 004c 1978     		ldrb	r1, [r3]	@ zero_extendqisi2
 1315 004e BB7B     		ldrb	r3, [r7, #14]	@ zero_extendqisi2
 1316 0050 6B22     		movs	r2, #107
 1317 0052 0748     		ldr	r0, .L90
 1318 0054 FFF7FEFF 		bl	i2c_write_7bit_base_byte_std
 1319 0058 0346     		mov	r3, r0
ARM GAS  C:\Users\SAMEER~1.ALM\AppData\Local\Temp\ccKQVuZd.s 			page 30


 1320 005a FB73     		strb	r3, [r7, #15]
 348:./mpu6050/mpu6050.c ****   if(error) return error;
 1321              		.loc 1 348 5
 1322 005c FB7B     		ldrb	r3, [r7, #15]	@ zero_extendqisi2
 1323 005e 002B     		cmp	r3, #0
 1324 0060 01D0     		beq	.L88
 1325              		.loc 1 348 20 discriminator 1
 1326 0062 FB7B     		ldrb	r3, [r7, #15]	@ zero_extendqisi2
 1327 0064 00E0     		b	.L89
 1328              	.L88:
 349:./mpu6050/mpu6050.c **** 	
 350:./mpu6050/mpu6050.c **** 	/* Return OK */
 351:./mpu6050/mpu6050.c **** 	return MPU6050_OK; //  or return I2C_OK;
 1329              		.loc 1 351 9
 1330 0066 0023     		movs	r3, #0
 1331              	.L89:
 352:./mpu6050/mpu6050.c **** }
 1332              		.loc 1 352 1 discriminator 1
 1333 0068 1846     		mov	r0, r3
 1334 006a 1037     		adds	r7, r7, #16
 1335              	.LCFI59:
 1336              		.cfi_def_cfa_offset 8
 1337 006c BD46     		mov	sp, r7
 1338              	.LCFI60:
 1339              		.cfi_def_cfa_register 13
 1340              		@ sp needed
 1341 006e 80BD     		pop	{r7, pc}
 1342              	.L91:
 1343              		.align	2
 1344              	.L90:
 1345 0070 00540040 		.word	1073763328
 1346              		.cfi_endproc
 1347              	.LFE44:
 1349              		.section	.text.mpu6050_enableCycle,"ax",%progbits
 1350              		.align	1
 1351              		.global	mpu6050_enableCycle
 1352              		.syntax unified
 1353              		.thumb
 1354              		.thumb_func
 1356              	mpu6050_enableCycle:
 1357              	.LFB45:
 353:./mpu6050/mpu6050.c **** //-------------------------------------------------------------------------------------------------
 354:./mpu6050/mpu6050.c **** uint8_t mpu6050_enableCycle(MPU6050_t* mpu,uint8_t enable)
 355:./mpu6050/mpu6050.c **** {
 1358              		.loc 1 355 1
 1359              		.cfi_startproc
 1360              		@ args = 0, pretend = 0, frame = 16
 1361              		@ frame_needed = 1, uses_anonymous_args = 0
 1362 0000 80B5     		push	{r7, lr}
 1363              	.LCFI61:
 1364              		.cfi_def_cfa_offset 8
 1365              		.cfi_offset 7, -8
 1366              		.cfi_offset 14, -4
 1367 0002 84B0     		sub	sp, sp, #16
 1368              	.LCFI62:
 1369              		.cfi_def_cfa_offset 24
 1370 0004 00AF     		add	r7, sp, #0
ARM GAS  C:\Users\SAMEER~1.ALM\AppData\Local\Temp\ccKQVuZd.s 			page 31


 1371              	.LCFI63:
 1372              		.cfi_def_cfa_register 7
 1373 0006 7860     		str	r0, [r7, #4]
 1374 0008 0B46     		mov	r3, r1
 1375 000a FB70     		strb	r3, [r7, #3]
 356:./mpu6050/mpu6050.c **** 	uint8_t error=0,temp=0;
 1376              		.loc 1 356 10
 1377 000c 0023     		movs	r3, #0
 1378 000e FB73     		strb	r3, [r7, #15]
 1379              		.loc 1 356 18
 1380 0010 0023     		movs	r3, #0
 1381 0012 BB73     		strb	r3, [r7, #14]
 357:./mpu6050/mpu6050.c **** 	error=i2c_read_7bit_base_byte_std(MPU6050_I2C, mpu->Address, MPU6050_PWR_MGMT_1, &temp);
 1382              		.loc 1 357 8
 1383 0014 7B68     		ldr	r3, [r7, #4]
 1384 0016 1978     		ldrb	r1, [r3]	@ zero_extendqisi2
 1385 0018 07F10E03 		add	r3, r7, #14
 1386 001c 6B22     		movs	r2, #107
 1387 001e 1448     		ldr	r0, .L97
 1388 0020 FFF7FEFF 		bl	i2c_read_7bit_base_byte_std
 1389 0024 0346     		mov	r3, r0
 1390 0026 FB73     		strb	r3, [r7, #15]
 358:./mpu6050/mpu6050.c ****   if(error) return error;
 1391              		.loc 1 358 5
 1392 0028 FB7B     		ldrb	r3, [r7, #15]	@ zero_extendqisi2
 1393 002a 002B     		cmp	r3, #0
 1394 002c 01D0     		beq	.L93
 1395              		.loc 1 358 20 discriminator 1
 1396 002e FB7B     		ldrb	r3, [r7, #15]	@ zero_extendqisi2
 1397 0030 1AE0     		b	.L96
 1398              	.L93:
 359:./mpu6050/mpu6050.c **** 	temp = (temp & 0xcf) | (uint8_t)enable << 5;
 1399              		.loc 1 359 15
 1400 0032 BB7B     		ldrb	r3, [r7, #14]	@ zero_extendqisi2
 1401 0034 5BB2     		sxtb	r3, r3
 1402 0036 23F03003 		bic	r3, r3, #48
 1403 003a 5AB2     		sxtb	r2, r3
 1404              		.loc 1 359 25
 1405 003c FB78     		ldrb	r3, [r7, #3]	@ zero_extendqisi2
 1406              		.loc 1 359 41
 1407 003e 5B01     		lsls	r3, r3, #5
 1408              		.loc 1 359 23
 1409 0040 5BB2     		sxtb	r3, r3
 1410 0042 1343     		orrs	r3, r3, r2
 1411 0044 5BB2     		sxtb	r3, r3
 1412 0046 DBB2     		uxtb	r3, r3
 1413              		.loc 1 359 7
 1414 0048 BB73     		strb	r3, [r7, #14]
 360:./mpu6050/mpu6050.c **** 	error=i2c_write_7bit_base_byte_std(MPU6050_I2C, mpu->Address, MPU6050_PWR_MGMT_1, temp);
 1415              		.loc 1 360 8
 1416 004a 7B68     		ldr	r3, [r7, #4]
 1417 004c 1978     		ldrb	r1, [r3]	@ zero_extendqisi2
 1418 004e BB7B     		ldrb	r3, [r7, #14]	@ zero_extendqisi2
 1419 0050 6B22     		movs	r2, #107
 1420 0052 0748     		ldr	r0, .L97
 1421 0054 FFF7FEFF 		bl	i2c_write_7bit_base_byte_std
 1422 0058 0346     		mov	r3, r0
ARM GAS  C:\Users\SAMEER~1.ALM\AppData\Local\Temp\ccKQVuZd.s 			page 32


 1423 005a FB73     		strb	r3, [r7, #15]
 361:./mpu6050/mpu6050.c ****   if(error) return error;
 1424              		.loc 1 361 5
 1425 005c FB7B     		ldrb	r3, [r7, #15]	@ zero_extendqisi2
 1426 005e 002B     		cmp	r3, #0
 1427 0060 01D0     		beq	.L95
 1428              		.loc 1 361 20 discriminator 1
 1429 0062 FB7B     		ldrb	r3, [r7, #15]	@ zero_extendqisi2
 1430 0064 00E0     		b	.L96
 1431              	.L95:
 362:./mpu6050/mpu6050.c **** 	
 363:./mpu6050/mpu6050.c **** 	/* Return OK */
 364:./mpu6050/mpu6050.c **** 	return MPU6050_OK; //  or return I2C_OK;
 1432              		.loc 1 364 9
 1433 0066 0023     		movs	r3, #0
 1434              	.L96:
 365:./mpu6050/mpu6050.c **** }
 1435              		.loc 1 365 1 discriminator 1
 1436 0068 1846     		mov	r0, r3
 1437 006a 1037     		adds	r7, r7, #16
 1438              	.LCFI64:
 1439              		.cfi_def_cfa_offset 8
 1440 006c BD46     		mov	sp, r7
 1441              	.LCFI65:
 1442              		.cfi_def_cfa_register 13
 1443              		@ sp needed
 1444 006e 80BD     		pop	{r7, pc}
 1445              	.L98:
 1446              		.align	2
 1447              	.L97:
 1448 0070 00540040 		.word	1073763328
 1449              		.cfi_endproc
 1450              	.LFE45:
 1452              		.section	.text.mpu6050_setI2CBypass,"ax",%progbits
 1453              		.align	1
 1454              		.global	mpu6050_setI2CBypass
 1455              		.syntax unified
 1456              		.thumb
 1457              		.thumb_func
 1459              	mpu6050_setI2CBypass:
 1460              	.LFB46:
 366:./mpu6050/mpu6050.c **** //-------------------------------------------------------------------------------------------------
 367:./mpu6050/mpu6050.c **** uint8_t mpu6050_setI2CBypass(MPU6050_t* mpu,uint8_t bypass)
 368:./mpu6050/mpu6050.c **** {
 1461              		.loc 1 368 1
 1462              		.cfi_startproc
 1463              		@ args = 0, pretend = 0, frame = 16
 1464              		@ frame_needed = 1, uses_anonymous_args = 0
 1465 0000 80B5     		push	{r7, lr}
 1466              	.LCFI66:
 1467              		.cfi_def_cfa_offset 8
 1468              		.cfi_offset 7, -8
 1469              		.cfi_offset 14, -4
 1470 0002 84B0     		sub	sp, sp, #16
 1471              	.LCFI67:
 1472              		.cfi_def_cfa_offset 24
 1473 0004 00AF     		add	r7, sp, #0
ARM GAS  C:\Users\SAMEER~1.ALM\AppData\Local\Temp\ccKQVuZd.s 			page 33


 1474              	.LCFI68:
 1475              		.cfi_def_cfa_register 7
 1476 0006 7860     		str	r0, [r7, #4]
 1477 0008 0B46     		mov	r3, r1
 1478 000a FB70     		strb	r3, [r7, #3]
 369:./mpu6050/mpu6050.c ****  	uint8_t error=0,temp=0;
 1479              		.loc 1 369 11
 1480 000c 0023     		movs	r3, #0
 1481 000e FB73     		strb	r3, [r7, #15]
 1482              		.loc 1 369 19
 1483 0010 0023     		movs	r3, #0
 1484 0012 BB73     		strb	r3, [r7, #14]
 370:./mpu6050/mpu6050.c **** 	error=i2c_read_7bit_base_byte_std(MPU6050_I2C, mpu->Address, MPU6050_INT_PIN_CFG, &temp);
 1485              		.loc 1 370 8
 1486 0014 7B68     		ldr	r3, [r7, #4]
 1487 0016 1978     		ldrb	r1, [r3]	@ zero_extendqisi2
 1488 0018 07F10E03 		add	r3, r7, #14
 1489 001c 3722     		movs	r2, #55
 1490 001e 2148     		ldr	r0, .L106
 1491 0020 FFF7FEFF 		bl	i2c_read_7bit_base_byte_std
 1492 0024 0346     		mov	r3, r0
 1493 0026 FB73     		strb	r3, [r7, #15]
 371:./mpu6050/mpu6050.c ****   if(error) return error;
 1494              		.loc 1 371 5
 1495 0028 FB7B     		ldrb	r3, [r7, #15]	@ zero_extendqisi2
 1496 002a 002B     		cmp	r3, #0
 1497 002c 01D0     		beq	.L100
 1498              		.loc 1 371 20 discriminator 1
 1499 002e FB7B     		ldrb	r3, [r7, #15]	@ zero_extendqisi2
 1500 0030 34E0     		b	.L105
 1501              	.L100:
 372:./mpu6050/mpu6050.c **** 	temp =  (uint8_t)bypass << 1;
 1502              		.loc 1 372 26
 1503 0032 FB78     		ldrb	r3, [r7, #3]
 1504 0034 5B00     		lsls	r3, r3, #1
 1505 0036 DBB2     		uxtb	r3, r3
 1506              		.loc 1 372 7
 1507 0038 BB73     		strb	r3, [r7, #14]
 373:./mpu6050/mpu6050.c **** 	error=i2c_write_7bit_base_byte_std(MPU6050_I2C, mpu->Address,MPU6050_INT_PIN_CFG, temp);
 1508              		.loc 1 373 8
 1509 003a 7B68     		ldr	r3, [r7, #4]
 1510 003c 1978     		ldrb	r1, [r3]	@ zero_extendqisi2
 1511 003e BB7B     		ldrb	r3, [r7, #14]	@ zero_extendqisi2
 1512 0040 3722     		movs	r2, #55
 1513 0042 1848     		ldr	r0, .L106
 1514 0044 FFF7FEFF 		bl	i2c_write_7bit_base_byte_std
 1515 0048 0346     		mov	r3, r0
 1516 004a FB73     		strb	r3, [r7, #15]
 374:./mpu6050/mpu6050.c ****   if(error) return error;
 1517              		.loc 1 374 5
 1518 004c FB7B     		ldrb	r3, [r7, #15]	@ zero_extendqisi2
 1519 004e 002B     		cmp	r3, #0
 1520 0050 01D0     		beq	.L102
 1521              		.loc 1 374 20 discriminator 1
 1522 0052 FB7B     		ldrb	r3, [r7, #15]	@ zero_extendqisi2
 1523 0054 22E0     		b	.L105
 1524              	.L102:
ARM GAS  C:\Users\SAMEER~1.ALM\AppData\Local\Temp\ccKQVuZd.s 			page 34


 375:./mpu6050/mpu6050.c **** 
 376:./mpu6050/mpu6050.c **** 	error=i2c_read_7bit_base_byte_std(MPU6050_I2C, mpu->Address, MPU6050_USER_CTRL, &temp);
 1525              		.loc 1 376 8
 1526 0056 7B68     		ldr	r3, [r7, #4]
 1527 0058 1978     		ldrb	r1, [r3]	@ zero_extendqisi2
 1528 005a 07F10E03 		add	r3, r7, #14
 1529 005e 6A22     		movs	r2, #106
 1530 0060 1048     		ldr	r0, .L106
 1531 0062 FFF7FEFF 		bl	i2c_read_7bit_base_byte_std
 1532 0066 0346     		mov	r3, r0
 1533 0068 FB73     		strb	r3, [r7, #15]
 377:./mpu6050/mpu6050.c ****   if(error) return error;
 1534              		.loc 1 377 5
 1535 006a FB7B     		ldrb	r3, [r7, #15]	@ zero_extendqisi2
 1536 006c 002B     		cmp	r3, #0
 1537 006e 01D0     		beq	.L103
 1538              		.loc 1 377 20 discriminator 1
 1539 0070 FB7B     		ldrb	r3, [r7, #15]	@ zero_extendqisi2
 1540 0072 13E0     		b	.L105
 1541              	.L103:
 378:./mpu6050/mpu6050.c **** 	temp &=0x57;
 1542              		.loc 1 378 7
 1543 0074 BB7B     		ldrb	r3, [r7, #14]	@ zero_extendqisi2
 1544 0076 03F05703 		and	r3, r3, #87
 1545 007a DBB2     		uxtb	r3, r3
 1546 007c BB73     		strb	r3, [r7, #14]
 379:./mpu6050/mpu6050.c **** 	error=i2c_write_7bit_base_byte_std(MPU6050_I2C, mpu->Address,MPU6050_USER_CTRL, temp);
 1547              		.loc 1 379 8
 1548 007e 7B68     		ldr	r3, [r7, #4]
 1549 0080 1978     		ldrb	r1, [r3]	@ zero_extendqisi2
 1550 0082 BB7B     		ldrb	r3, [r7, #14]	@ zero_extendqisi2
 1551 0084 6A22     		movs	r2, #106
 1552 0086 0748     		ldr	r0, .L106
 1553 0088 FFF7FEFF 		bl	i2c_write_7bit_base_byte_std
 1554 008c 0346     		mov	r3, r0
 1555 008e FB73     		strb	r3, [r7, #15]
 380:./mpu6050/mpu6050.c ****   if(error) return error;
 1556              		.loc 1 380 5
 1557 0090 FB7B     		ldrb	r3, [r7, #15]	@ zero_extendqisi2
 1558 0092 002B     		cmp	r3, #0
 1559 0094 01D0     		beq	.L104
 1560              		.loc 1 380 20 discriminator 1
 1561 0096 FB7B     		ldrb	r3, [r7, #15]	@ zero_extendqisi2
 1562 0098 00E0     		b	.L105
 1563              	.L104:
 381:./mpu6050/mpu6050.c **** 
 382:./mpu6050/mpu6050.c **** 	/* Return OK */
 383:./mpu6050/mpu6050.c **** 	return MPU6050_OK; //  or return I2C_OK;
 1564              		.loc 1 383 9
 1565 009a 0023     		movs	r3, #0
 1566              	.L105:
 384:./mpu6050/mpu6050.c **** }
 1567              		.loc 1 384 1 discriminator 1
 1568 009c 1846     		mov	r0, r3
 1569 009e 1037     		adds	r7, r7, #16
 1570              	.LCFI69:
 1571              		.cfi_def_cfa_offset 8
ARM GAS  C:\Users\SAMEER~1.ALM\AppData\Local\Temp\ccKQVuZd.s 			page 35


 1572 00a0 BD46     		mov	sp, r7
 1573              	.LCFI70:
 1574              		.cfi_def_cfa_register 13
 1575              		@ sp needed
 1576 00a2 80BD     		pop	{r7, pc}
 1577              	.L107:
 1578              		.align	2
 1579              	.L106:
 1580 00a4 00540040 		.word	1073763328
 1581              		.cfi_endproc
 1582              	.LFE46:
 1584              		.section	.text.mpu6050_set_lpf,"ax",%progbits
 1585              		.align	1
 1586              		.global	mpu6050_set_lpf
 1587              		.syntax unified
 1588              		.thumb
 1589              		.thumb_func
 1591              	mpu6050_set_lpf:
 1592              	.LFB47:
 385:./mpu6050/mpu6050.c **** //-------------------------------------------------------------------------------------------------
 386:./mpu6050/mpu6050.c **** uint8_t mpu6050_set_lpf(MPU6050_t* mpu,MPU6050_LPF_bandwidth_t bandwidth)
 387:./mpu6050/mpu6050.c **** {
 1593              		.loc 1 387 1
 1594              		.cfi_startproc
 1595              		@ args = 0, pretend = 0, frame = 16
 1596              		@ frame_needed = 1, uses_anonymous_args = 0
 1597 0000 80B5     		push	{r7, lr}
 1598              	.LCFI71:
 1599              		.cfi_def_cfa_offset 8
 1600              		.cfi_offset 7, -8
 1601              		.cfi_offset 14, -4
 1602 0002 84B0     		sub	sp, sp, #16
 1603              	.LCFI72:
 1604              		.cfi_def_cfa_offset 24
 1605 0004 00AF     		add	r7, sp, #0
 1606              	.LCFI73:
 1607              		.cfi_def_cfa_register 7
 1608 0006 7860     		str	r0, [r7, #4]
 1609 0008 0B46     		mov	r3, r1
 1610 000a FB70     		strb	r3, [r7, #3]
 388:./mpu6050/mpu6050.c ****   uint8_t error=0,temp=0;
 1611              		.loc 1 388 11
 1612 000c 0023     		movs	r3, #0
 1613 000e FB73     		strb	r3, [r7, #15]
 1614              		.loc 1 388 19
 1615 0010 0023     		movs	r3, #0
 1616 0012 BB73     		strb	r3, [r7, #14]
 389:./mpu6050/mpu6050.c **** 	error=i2c_read_7bit_base_byte_std(MPU6050_I2C, mpu->Address, MPU6050_CONFIG, &temp);
 1617              		.loc 1 389 8
 1618 0014 7B68     		ldr	r3, [r7, #4]
 1619 0016 1978     		ldrb	r1, [r3]	@ zero_extendqisi2
 1620 0018 07F10E03 		add	r3, r7, #14
 1621 001c 1A22     		movs	r2, #26
 1622 001e 1448     		ldr	r0, .L113
 1623 0020 FFF7FEFF 		bl	i2c_read_7bit_base_byte_std
 1624 0024 0346     		mov	r3, r0
 1625 0026 FB73     		strb	r3, [r7, #15]
ARM GAS  C:\Users\SAMEER~1.ALM\AppData\Local\Temp\ccKQVuZd.s 			page 36


 390:./mpu6050/mpu6050.c ****    if(error) return error;
 1626              		.loc 1 390 6
 1627 0028 FB7B     		ldrb	r3, [r7, #15]	@ zero_extendqisi2
 1628 002a 002B     		cmp	r3, #0
 1629 002c 01D0     		beq	.L109
 1630              		.loc 1 390 21 discriminator 1
 1631 002e FB7B     		ldrb	r3, [r7, #15]	@ zero_extendqisi2
 1632 0030 19E0     		b	.L112
 1633              	.L109:
 391:./mpu6050/mpu6050.c **** 	temp =  (temp & 0xf8)|(uint8_t)bandwidth;
 1634              		.loc 1 391 16
 1635 0032 BB7B     		ldrb	r3, [r7, #14]	@ zero_extendqisi2
 1636 0034 5BB2     		sxtb	r3, r3
 1637 0036 23F00703 		bic	r3, r3, #7
 1638 003a 5AB2     		sxtb	r2, r3
 1639              		.loc 1 391 23
 1640 003c 97F90330 		ldrsb	r3, [r7, #3]
 1641 0040 1343     		orrs	r3, r3, r2
 1642 0042 5BB2     		sxtb	r3, r3
 1643 0044 DBB2     		uxtb	r3, r3
 1644              		.loc 1 391 7
 1645 0046 BB73     		strb	r3, [r7, #14]
 392:./mpu6050/mpu6050.c **** 	error=i2c_write_7bit_base_byte_std(MPU6050_I2C, mpu->Address,MPU6050_CONFIG, temp);
 1646              		.loc 1 392 8
 1647 0048 7B68     		ldr	r3, [r7, #4]
 1648 004a 1978     		ldrb	r1, [r3]	@ zero_extendqisi2
 1649 004c BB7B     		ldrb	r3, [r7, #14]	@ zero_extendqisi2
 1650 004e 1A22     		movs	r2, #26
 1651 0050 0748     		ldr	r0, .L113
 1652 0052 FFF7FEFF 		bl	i2c_write_7bit_base_byte_std
 1653 0056 0346     		mov	r3, r0
 1654 0058 FB73     		strb	r3, [r7, #15]
 393:./mpu6050/mpu6050.c **** 	 if(error) return error;
 1655              		.loc 1 393 5
 1656 005a FB7B     		ldrb	r3, [r7, #15]	@ zero_extendqisi2
 1657 005c 002B     		cmp	r3, #0
 1658 005e 01D0     		beq	.L111
 1659              		.loc 1 393 20 discriminator 1
 1660 0060 FB7B     		ldrb	r3, [r7, #15]	@ zero_extendqisi2
 1661 0062 00E0     		b	.L112
 1662              	.L111:
 394:./mpu6050/mpu6050.c **** 
 395:./mpu6050/mpu6050.c **** 	/* Return OK */
 396:./mpu6050/mpu6050.c **** 	return MPU6050_OK; //  or return I2C_OK;
 1663              		.loc 1 396 9
 1664 0064 0023     		movs	r3, #0
 1665              	.L112:
 397:./mpu6050/mpu6050.c **** }
 1666              		.loc 1 397 1 discriminator 1
 1667 0066 1846     		mov	r0, r3
 1668 0068 1037     		adds	r7, r7, #16
 1669              	.LCFI74:
 1670              		.cfi_def_cfa_offset 8
 1671 006a BD46     		mov	sp, r7
 1672              	.LCFI75:
 1673              		.cfi_def_cfa_register 13
 1674              		@ sp needed
ARM GAS  C:\Users\SAMEER~1.ALM\AppData\Local\Temp\ccKQVuZd.s 			page 37


 1675 006c 80BD     		pop	{r7, pc}
 1676              	.L114:
 1677 006e 00BF     		.align	2
 1678              	.L113:
 1679 0070 00540040 		.word	1073763328
 1680              		.cfi_endproc
 1681              	.LFE47:
 1683              		.section	.text.mpu6050_set_hpf,"ax",%progbits
 1684              		.align	1
 1685              		.global	mpu6050_set_hpf
 1686              		.syntax unified
 1687              		.thumb
 1688              		.thumb_func
 1690              	mpu6050_set_hpf:
 1691              	.LFB48:
 398:./mpu6050/mpu6050.c **** //-------------------------------------------------------------------------------------------------
 399:./mpu6050/mpu6050.c **** uint8_t mpu6050_set_hpf(MPU6050_t* mpu,MPU6050_Accel_HPF_t bandwidth)
 400:./mpu6050/mpu6050.c **** {
 1692              		.loc 1 400 1
 1693              		.cfi_startproc
 1694              		@ args = 0, pretend = 0, frame = 16
 1695              		@ frame_needed = 1, uses_anonymous_args = 0
 1696 0000 80B5     		push	{r7, lr}
 1697              	.LCFI76:
 1698              		.cfi_def_cfa_offset 8
 1699              		.cfi_offset 7, -8
 1700              		.cfi_offset 14, -4
 1701 0002 84B0     		sub	sp, sp, #16
 1702              	.LCFI77:
 1703              		.cfi_def_cfa_offset 24
 1704 0004 00AF     		add	r7, sp, #0
 1705              	.LCFI78:
 1706              		.cfi_def_cfa_register 7
 1707 0006 7860     		str	r0, [r7, #4]
 1708 0008 0B46     		mov	r3, r1
 1709 000a FB70     		strb	r3, [r7, #3]
 401:./mpu6050/mpu6050.c ****   uint8_t error=0,temp=0;
 1710              		.loc 1 401 11
 1711 000c 0023     		movs	r3, #0
 1712 000e FB73     		strb	r3, [r7, #15]
 1713              		.loc 1 401 19
 1714 0010 0023     		movs	r3, #0
 1715 0012 BB73     		strb	r3, [r7, #14]
 402:./mpu6050/mpu6050.c **** 	error=i2c_read_7bit_base_byte_std(MPU6050_I2C, mpu->Address, MPU6050_ACCEL_CONFIG, &temp);
 1716              		.loc 1 402 8
 1717 0014 7B68     		ldr	r3, [r7, #4]
 1718 0016 1978     		ldrb	r1, [r3]	@ zero_extendqisi2
 1719 0018 07F10E03 		add	r3, r7, #14
 1720 001c 1C22     		movs	r2, #28
 1721 001e 1448     		ldr	r0, .L120
 1722 0020 FFF7FEFF 		bl	i2c_read_7bit_base_byte_std
 1723 0024 0346     		mov	r3, r0
 1724 0026 FB73     		strb	r3, [r7, #15]
 403:./mpu6050/mpu6050.c ****   if(error) return error;
 1725              		.loc 1 403 5
 1726 0028 FB7B     		ldrb	r3, [r7, #15]	@ zero_extendqisi2
 1727 002a 002B     		cmp	r3, #0
ARM GAS  C:\Users\SAMEER~1.ALM\AppData\Local\Temp\ccKQVuZd.s 			page 38


 1728 002c 01D0     		beq	.L116
 1729              		.loc 1 403 20 discriminator 1
 1730 002e FB7B     		ldrb	r3, [r7, #15]	@ zero_extendqisi2
 1731 0030 19E0     		b	.L119
 1732              	.L116:
 404:./mpu6050/mpu6050.c **** 
 405:./mpu6050/mpu6050.c **** 	temp =  (temp & 0xf8)|(uint8_t)bandwidth;
 1733              		.loc 1 405 16
 1734 0032 BB7B     		ldrb	r3, [r7, #14]	@ zero_extendqisi2
 1735 0034 5BB2     		sxtb	r3, r3
 1736 0036 23F00703 		bic	r3, r3, #7
 1737 003a 5AB2     		sxtb	r2, r3
 1738              		.loc 1 405 23
 1739 003c 97F90330 		ldrsb	r3, [r7, #3]
 1740 0040 1343     		orrs	r3, r3, r2
 1741 0042 5BB2     		sxtb	r3, r3
 1742 0044 DBB2     		uxtb	r3, r3
 1743              		.loc 1 405 7
 1744 0046 BB73     		strb	r3, [r7, #14]
 406:./mpu6050/mpu6050.c **** 	error=i2c_write_7bit_base_byte_std(MPU6050_I2C, mpu->Address,MPU6050_ACCEL_CONFIG, temp);
 1745              		.loc 1 406 8
 1746 0048 7B68     		ldr	r3, [r7, #4]
 1747 004a 1978     		ldrb	r1, [r3]	@ zero_extendqisi2
 1748 004c BB7B     		ldrb	r3, [r7, #14]	@ zero_extendqisi2
 1749 004e 1C22     		movs	r2, #28
 1750 0050 0748     		ldr	r0, .L120
 1751 0052 FFF7FEFF 		bl	i2c_write_7bit_base_byte_std
 1752 0056 0346     		mov	r3, r0
 1753 0058 FB73     		strb	r3, [r7, #15]
 407:./mpu6050/mpu6050.c ****   if(error) return error;
 1754              		.loc 1 407 5
 1755 005a FB7B     		ldrb	r3, [r7, #15]	@ zero_extendqisi2
 1756 005c 002B     		cmp	r3, #0
 1757 005e 01D0     		beq	.L118
 1758              		.loc 1 407 20 discriminator 1
 1759 0060 FB7B     		ldrb	r3, [r7, #15]	@ zero_extendqisi2
 1760 0062 00E0     		b	.L119
 1761              	.L118:
 408:./mpu6050/mpu6050.c **** 
 409:./mpu6050/mpu6050.c **** 	/* Return OK */
 410:./mpu6050/mpu6050.c **** 	return MPU6050_OK; //  or return I2C_OK;
 1762              		.loc 1 410 9
 1763 0064 0023     		movs	r3, #0
 1764              	.L119:
 411:./mpu6050/mpu6050.c **** }
 1765              		.loc 1 411 1 discriminator 1
 1766 0066 1846     		mov	r0, r3
 1767 0068 1037     		adds	r7, r7, #16
 1768              	.LCFI79:
 1769              		.cfi_def_cfa_offset 8
 1770 006a BD46     		mov	sp, r7
 1771              	.LCFI80:
 1772              		.cfi_def_cfa_register 13
 1773              		@ sp needed
 1774 006c 80BD     		pop	{r7, pc}
 1775              	.L121:
 1776 006e 00BF     		.align	2
ARM GAS  C:\Users\SAMEER~1.ALM\AppData\Local\Temp\ccKQVuZd.s 			page 39


 1777              	.L120:
 1778 0070 00540040 		.word	1073763328
 1779              		.cfi_endproc
 1780              	.LFE48:
 1782              		.section	.text.mpu6050_setInterruptPinPolarity,"ax",%progbits
 1783              		.align	1
 1784              		.global	mpu6050_setInterruptPinPolarity
 1785              		.syntax unified
 1786              		.thumb
 1787              		.thumb_func
 1789              	mpu6050_setInterruptPinPolarity:
 1790              	.LFB49:
 412:./mpu6050/mpu6050.c **** //-------------------------------------------------------------------------------------------------
 413:./mpu6050/mpu6050.c **** uint8_t mpu6050_setInterruptPinPolarity(MPU6050_t* mpu,uint8_t active_low)
 414:./mpu6050/mpu6050.c **** {
 1791              		.loc 1 414 1
 1792              		.cfi_startproc
 1793              		@ args = 0, pretend = 0, frame = 16
 1794              		@ frame_needed = 1, uses_anonymous_args = 0
 1795 0000 80B5     		push	{r7, lr}
 1796              	.LCFI81:
 1797              		.cfi_def_cfa_offset 8
 1798              		.cfi_offset 7, -8
 1799              		.cfi_offset 14, -4
 1800 0002 84B0     		sub	sp, sp, #16
 1801              	.LCFI82:
 1802              		.cfi_def_cfa_offset 24
 1803 0004 00AF     		add	r7, sp, #0
 1804              	.LCFI83:
 1805              		.cfi_def_cfa_register 7
 1806 0006 7860     		str	r0, [r7, #4]
 1807 0008 0B46     		mov	r3, r1
 1808 000a FB70     		strb	r3, [r7, #3]
 415:./mpu6050/mpu6050.c **** 
 416:./mpu6050/mpu6050.c ****   uint8_t temp=0,error=0;
 1809              		.loc 1 416 11
 1810 000c 0023     		movs	r3, #0
 1811 000e BB73     		strb	r3, [r7, #14]
 1812              		.loc 1 416 18
 1813 0010 0023     		movs	r3, #0
 1814 0012 FB73     		strb	r3, [r7, #15]
 417:./mpu6050/mpu6050.c **** 	error=i2c_read_7bit_base_byte_std(MPU6050_I2C,mpu->Address,MPU6050_INT_PIN_CFG, &temp);
 1815              		.loc 1 417 8
 1816 0014 7B68     		ldr	r3, [r7, #4]
 1817 0016 1978     		ldrb	r1, [r3]	@ zero_extendqisi2
 1818 0018 07F10E03 		add	r3, r7, #14
 1819 001c 3722     		movs	r2, #55
 1820 001e 1448     		ldr	r0, .L127
 1821 0020 FFF7FEFF 		bl	i2c_read_7bit_base_byte_std
 1822 0024 0346     		mov	r3, r0
 1823 0026 FB73     		strb	r3, [r7, #15]
 418:./mpu6050/mpu6050.c ****   if(error) return error;
 1824              		.loc 1 418 5
 1825 0028 FB7B     		ldrb	r3, [r7, #15]	@ zero_extendqisi2
 1826 002a 002B     		cmp	r3, #0
 1827 002c 01D0     		beq	.L123
 1828              		.loc 1 418 20 discriminator 1
ARM GAS  C:\Users\SAMEER~1.ALM\AppData\Local\Temp\ccKQVuZd.s 			page 40


 1829 002e FB7B     		ldrb	r3, [r7, #15]	@ zero_extendqisi2
 1830 0030 1AE0     		b	.L126
 1831              	.L123:
 419:./mpu6050/mpu6050.c **** 	temp = (temp & 0x7E) | (uint8_t)active_low << 7;
 1832              		.loc 1 419 15
 1833 0032 BB7B     		ldrb	r3, [r7, #14]	@ zero_extendqisi2
 1834 0034 5BB2     		sxtb	r3, r3
 1835 0036 03F07E03 		and	r3, r3, #126
 1836 003a 5AB2     		sxtb	r2, r3
 1837              		.loc 1 419 25
 1838 003c FB78     		ldrb	r3, [r7, #3]	@ zero_extendqisi2
 1839              		.loc 1 419 45
 1840 003e DB01     		lsls	r3, r3, #7
 1841              		.loc 1 419 23
 1842 0040 5BB2     		sxtb	r3, r3
 1843 0042 1343     		orrs	r3, r3, r2
 1844 0044 5BB2     		sxtb	r3, r3
 1845 0046 DBB2     		uxtb	r3, r3
 1846              		.loc 1 419 7
 1847 0048 BB73     		strb	r3, [r7, #14]
 420:./mpu6050/mpu6050.c **** 	error=i2c_write_7bit_base_byte_std(MPU6050_I2C, mpu->Address,MPU6050_INT_PIN_CFG, temp);
 1848              		.loc 1 420 8
 1849 004a 7B68     		ldr	r3, [r7, #4]
 1850 004c 1978     		ldrb	r1, [r3]	@ zero_extendqisi2
 1851 004e BB7B     		ldrb	r3, [r7, #14]	@ zero_extendqisi2
 1852 0050 3722     		movs	r2, #55
 1853 0052 0748     		ldr	r0, .L127
 1854 0054 FFF7FEFF 		bl	i2c_write_7bit_base_byte_std
 1855 0058 0346     		mov	r3, r0
 1856 005a FB73     		strb	r3, [r7, #15]
 421:./mpu6050/mpu6050.c **** 	if(error) return error;
 1857              		.loc 1 421 4
 1858 005c FB7B     		ldrb	r3, [r7, #15]	@ zero_extendqisi2
 1859 005e 002B     		cmp	r3, #0
 1860 0060 01D0     		beq	.L125
 1861              		.loc 1 421 19 discriminator 1
 1862 0062 FB7B     		ldrb	r3, [r7, #15]	@ zero_extendqisi2
 1863 0064 00E0     		b	.L126
 1864              	.L125:
 422:./mpu6050/mpu6050.c **** 	/* Return OK */
 423:./mpu6050/mpu6050.c **** 	return MPU6050_OK; //  or return I2C_OK;
 1865              		.loc 1 423 9
 1866 0066 0023     		movs	r3, #0
 1867              	.L126:
 424:./mpu6050/mpu6050.c **** }
 1868              		.loc 1 424 1 discriminator 1
 1869 0068 1846     		mov	r0, r3
 1870 006a 1037     		adds	r7, r7, #16
 1871              	.LCFI84:
 1872              		.cfi_def_cfa_offset 8
 1873 006c BD46     		mov	sp, r7
 1874              	.LCFI85:
 1875              		.cfi_def_cfa_register 13
 1876              		@ sp needed
 1877 006e 80BD     		pop	{r7, pc}
 1878              	.L128:
 1879              		.align	2
ARM GAS  C:\Users\SAMEER~1.ALM\AppData\Local\Temp\ccKQVuZd.s 			page 41


 1880              	.L127:
 1881 0070 00540040 		.word	1073763328
 1882              		.cfi_endproc
 1883              	.LFE49:
 1885              		.section	.text.mpu6050_setInterruptPinLatch,"ax",%progbits
 1886              		.align	1
 1887              		.global	mpu6050_setInterruptPinLatch
 1888              		.syntax unified
 1889              		.thumb
 1890              		.thumb_func
 1892              	mpu6050_setInterruptPinLatch:
 1893              	.LFB50:
 425:./mpu6050/mpu6050.c **** //-------------------------------------------------------------------------------------------------
 426:./mpu6050/mpu6050.c **** uint8_t mpu6050_setInterruptPinLatch(MPU6050_t* mpu,uint8_t held)
 427:./mpu6050/mpu6050.c **** {
 1894              		.loc 1 427 1
 1895              		.cfi_startproc
 1896              		@ args = 0, pretend = 0, frame = 16
 1897              		@ frame_needed = 1, uses_anonymous_args = 0
 1898 0000 80B5     		push	{r7, lr}
 1899              	.LCFI86:
 1900              		.cfi_def_cfa_offset 8
 1901              		.cfi_offset 7, -8
 1902              		.cfi_offset 14, -4
 1903 0002 84B0     		sub	sp, sp, #16
 1904              	.LCFI87:
 1905              		.cfi_def_cfa_offset 24
 1906 0004 00AF     		add	r7, sp, #0
 1907              	.LCFI88:
 1908              		.cfi_def_cfa_register 7
 1909 0006 7860     		str	r0, [r7, #4]
 1910 0008 0B46     		mov	r3, r1
 1911 000a FB70     		strb	r3, [r7, #3]
 428:./mpu6050/mpu6050.c ****   uint8_t temp=0,error=0;
 1912              		.loc 1 428 11
 1913 000c 0023     		movs	r3, #0
 1914 000e BB73     		strb	r3, [r7, #14]
 1915              		.loc 1 428 18
 1916 0010 0023     		movs	r3, #0
 1917 0012 FB73     		strb	r3, [r7, #15]
 429:./mpu6050/mpu6050.c **** 	error=i2c_read_7bit_base_byte_std(MPU6050_I2C,mpu->Address,MPU6050_INT_PIN_CFG, &temp);
 1918              		.loc 1 429 8
 1919 0014 7B68     		ldr	r3, [r7, #4]
 1920 0016 1978     		ldrb	r1, [r3]	@ zero_extendqisi2
 1921 0018 07F10E03 		add	r3, r7, #14
 1922 001c 3722     		movs	r2, #55
 1923 001e 1448     		ldr	r0, .L134
 1924 0020 FFF7FEFF 		bl	i2c_read_7bit_base_byte_std
 1925 0024 0346     		mov	r3, r0
 1926 0026 FB73     		strb	r3, [r7, #15]
 430:./mpu6050/mpu6050.c ****   if(error) return error;
 1927              		.loc 1 430 5
 1928 0028 FB7B     		ldrb	r3, [r7, #15]	@ zero_extendqisi2
 1929 002a 002B     		cmp	r3, #0
 1930 002c 01D0     		beq	.L130
 1931              		.loc 1 430 20 discriminator 1
 1932 002e FB7B     		ldrb	r3, [r7, #15]	@ zero_extendqisi2
ARM GAS  C:\Users\SAMEER~1.ALM\AppData\Local\Temp\ccKQVuZd.s 			page 42


 1933 0030 1AE0     		b	.L133
 1934              	.L130:
 431:./mpu6050/mpu6050.c **** 	temp = (temp & 0xdf) | (uint8_t)held << 5;
 1935              		.loc 1 431 15
 1936 0032 BB7B     		ldrb	r3, [r7, #14]	@ zero_extendqisi2
 1937 0034 5BB2     		sxtb	r3, r3
 1938 0036 23F02003 		bic	r3, r3, #32
 1939 003a 5AB2     		sxtb	r2, r3
 1940              		.loc 1 431 25
 1941 003c FB78     		ldrb	r3, [r7, #3]	@ zero_extendqisi2
 1942              		.loc 1 431 39
 1943 003e 5B01     		lsls	r3, r3, #5
 1944              		.loc 1 431 23
 1945 0040 5BB2     		sxtb	r3, r3
 1946 0042 1343     		orrs	r3, r3, r2
 1947 0044 5BB2     		sxtb	r3, r3
 1948 0046 DBB2     		uxtb	r3, r3
 1949              		.loc 1 431 7
 1950 0048 BB73     		strb	r3, [r7, #14]
 432:./mpu6050/mpu6050.c **** 	error=i2c_write_7bit_base_byte_std(MPU6050_I2C, mpu->Address,MPU6050_INT_PIN_CFG, temp);
 1951              		.loc 1 432 8
 1952 004a 7B68     		ldr	r3, [r7, #4]
 1953 004c 1978     		ldrb	r1, [r3]	@ zero_extendqisi2
 1954 004e BB7B     		ldrb	r3, [r7, #14]	@ zero_extendqisi2
 1955 0050 3722     		movs	r2, #55
 1956 0052 0748     		ldr	r0, .L134
 1957 0054 FFF7FEFF 		bl	i2c_write_7bit_base_byte_std
 1958 0058 0346     		mov	r3, r0
 1959 005a FB73     		strb	r3, [r7, #15]
 433:./mpu6050/mpu6050.c **** 	if(error) return error;
 1960              		.loc 1 433 4
 1961 005c FB7B     		ldrb	r3, [r7, #15]	@ zero_extendqisi2
 1962 005e 002B     		cmp	r3, #0
 1963 0060 01D0     		beq	.L132
 1964              		.loc 1 433 19 discriminator 1
 1965 0062 FB7B     		ldrb	r3, [r7, #15]	@ zero_extendqisi2
 1966 0064 00E0     		b	.L133
 1967              	.L132:
 434:./mpu6050/mpu6050.c **** 
 435:./mpu6050/mpu6050.c **** 	/* Return OK */
 436:./mpu6050/mpu6050.c **** 	return MPU6050_OK; //  or return I2C_OK;
 1968              		.loc 1 436 9
 1969 0066 0023     		movs	r3, #0
 1970              	.L133:
 437:./mpu6050/mpu6050.c **** }
 1971              		.loc 1 437 1 discriminator 1
 1972 0068 1846     		mov	r0, r3
 1973 006a 1037     		adds	r7, r7, #16
 1974              	.LCFI89:
 1975              		.cfi_def_cfa_offset 8
 1976 006c BD46     		mov	sp, r7
 1977              	.LCFI90:
 1978              		.cfi_def_cfa_register 13
 1979              		@ sp needed
 1980 006e 80BD     		pop	{r7, pc}
 1981              	.L135:
 1982              		.align	2
ARM GAS  C:\Users\SAMEER~1.ALM\AppData\Local\Temp\ccKQVuZd.s 			page 43


 1983              	.L134:
 1984 0070 00540040 		.word	1073763328
 1985              		.cfi_endproc
 1986              	.LFE50:
 1988              		.section	.text.mpu6050_setFsyncSampleOutput,"ax",%progbits
 1989              		.align	1
 1990              		.global	mpu6050_setFsyncSampleOutput
 1991              		.syntax unified
 1992              		.thumb
 1993              		.thumb_func
 1995              	mpu6050_setFsyncSampleOutput:
 1996              	.LFB51:
 438:./mpu6050/mpu6050.c **** //-------------------------------------------------------------------------------------------------
 439:./mpu6050/mpu6050.c **** uint8_t mpu6050_setFsyncSampleOutput(MPU6050_t* mpu,MPU6050_Fsync_out_t fsync_output)
 440:./mpu6050/mpu6050.c **** {
 1997              		.loc 1 440 1
 1998              		.cfi_startproc
 1999              		@ args = 0, pretend = 0, frame = 8
 2000              		@ frame_needed = 1, uses_anonymous_args = 0
 2001              		@ link register save eliminated.
 2002 0000 80B4     		push	{r7}
 2003              	.LCFI91:
 2004              		.cfi_def_cfa_offset 4
 2005              		.cfi_offset 7, -4
 2006 0002 83B0     		sub	sp, sp, #12
 2007              	.LCFI92:
 2008              		.cfi_def_cfa_offset 16
 2009 0004 00AF     		add	r7, sp, #0
 2010              	.LCFI93:
 2011              		.cfi_def_cfa_register 7
 2012 0006 7860     		str	r0, [r7, #4]
 2013 0008 0B46     		mov	r3, r1
 2014 000a FB70     		strb	r3, [r7, #3]
 441:./mpu6050/mpu6050.c **** 	/* Return OK */
 442:./mpu6050/mpu6050.c **** 	return MPU6050_OK; //  or return I2C_OK;
 2015              		.loc 1 442 9
 2016 000c 0023     		movs	r3, #0
 443:./mpu6050/mpu6050.c **** }
 2017              		.loc 1 443 1
 2018 000e 1846     		mov	r0, r3
 2019 0010 0C37     		adds	r7, r7, #12
 2020              	.LCFI94:
 2021              		.cfi_def_cfa_offset 4
 2022 0012 BD46     		mov	sp, r7
 2023              	.LCFI95:
 2024              		.cfi_def_cfa_register 13
 2025              		@ sp needed
 2026 0014 80BC     		pop	{r7}
 2027              	.LCFI96:
 2028              		.cfi_restore 7
 2029              		.cfi_def_cfa_offset 0
 2030 0016 7047     		bx	lr
 2031              		.cfi_endproc
 2032              	.LFE51:
 2034              		.section	.text.mpu6050_setMotionInterrupt,"ax",%progbits
 2035              		.align	1
 2036              		.global	mpu6050_setMotionInterrupt
ARM GAS  C:\Users\SAMEER~1.ALM\AppData\Local\Temp\ccKQVuZd.s 			page 44


 2037              		.syntax unified
 2038              		.thumb
 2039              		.thumb_func
 2041              	mpu6050_setMotionInterrupt:
 2042              	.LFB52:
 444:./mpu6050/mpu6050.c **** //-------------------------------------------------------------------------------------------------
 445:./mpu6050/mpu6050.c **** uint8_t mpu6050_setMotionInterrupt(MPU6050_t* mpu,uint8_t active)
 446:./mpu6050/mpu6050.c **** {
 2043              		.loc 1 446 1
 2044              		.cfi_startproc
 2045              		@ args = 0, pretend = 0, frame = 16
 2046              		@ frame_needed = 1, uses_anonymous_args = 0
 2047 0000 80B5     		push	{r7, lr}
 2048              	.LCFI97:
 2049              		.cfi_def_cfa_offset 8
 2050              		.cfi_offset 7, -8
 2051              		.cfi_offset 14, -4
 2052 0002 84B0     		sub	sp, sp, #16
 2053              	.LCFI98:
 2054              		.cfi_def_cfa_offset 24
 2055 0004 00AF     		add	r7, sp, #0
 2056              	.LCFI99:
 2057              		.cfi_def_cfa_register 7
 2058 0006 7860     		str	r0, [r7, #4]
 2059 0008 0B46     		mov	r3, r1
 2060 000a FB70     		strb	r3, [r7, #3]
 447:./mpu6050/mpu6050.c ****   uint8_t temp=0,error=0;
 2061              		.loc 1 447 11
 2062 000c 0023     		movs	r3, #0
 2063 000e BB73     		strb	r3, [r7, #14]
 2064              		.loc 1 447 18
 2065 0010 0023     		movs	r3, #0
 2066 0012 FB73     		strb	r3, [r7, #15]
 448:./mpu6050/mpu6050.c **** 	error=i2c_read_7bit_base_byte_std(MPU6050_I2C,mpu->Address,MPU6050_INT_ENABLE, &temp);
 2067              		.loc 1 448 8
 2068 0014 7B68     		ldr	r3, [r7, #4]
 2069 0016 1978     		ldrb	r1, [r3]	@ zero_extendqisi2
 2070 0018 07F10E03 		add	r3, r7, #14
 2071 001c 3822     		movs	r2, #56
 2072 001e 1248     		ldr	r0, .L142
 2073 0020 FFF7FEFF 		bl	i2c_read_7bit_base_byte_std
 2074 0024 0346     		mov	r3, r0
 2075 0026 FB73     		strb	r3, [r7, #15]
 449:./mpu6050/mpu6050.c ****   if(error) return error;
 2076              		.loc 1 449 5
 2077 0028 FB7B     		ldrb	r3, [r7, #15]	@ zero_extendqisi2
 2078 002a 002B     		cmp	r3, #0
 2079 002c 01D0     		beq	.L139
 2080              		.loc 1 449 20 discriminator 1
 2081 002e FB7B     		ldrb	r3, [r7, #15]	@ zero_extendqisi2
 2082 0030 15E0     		b	.L141
 2083              	.L139:
 450:./mpu6050/mpu6050.c **** 	temp = (temp & 0xbf) | (uint8_t)active << 6;
 2084              		.loc 1 450 15
 2085 0032 BB7B     		ldrb	r3, [r7, #14]	@ zero_extendqisi2
 2086 0034 5BB2     		sxtb	r3, r3
 2087 0036 23F04003 		bic	r3, r3, #64
ARM GAS  C:\Users\SAMEER~1.ALM\AppData\Local\Temp\ccKQVuZd.s 			page 45


 2088 003a 5AB2     		sxtb	r2, r3
 2089              		.loc 1 450 25
 2090 003c FB78     		ldrb	r3, [r7, #3]	@ zero_extendqisi2
 2091              		.loc 1 450 41
 2092 003e 9B01     		lsls	r3, r3, #6
 2093              		.loc 1 450 23
 2094 0040 5BB2     		sxtb	r3, r3
 2095 0042 1343     		orrs	r3, r3, r2
 2096 0044 5BB2     		sxtb	r3, r3
 2097 0046 DBB2     		uxtb	r3, r3
 2098              		.loc 1 450 7
 2099 0048 BB73     		strb	r3, [r7, #14]
 451:./mpu6050/mpu6050.c **** 	error=i2c_write_7bit_base_byte_std(MPU6050_I2C, mpu->Address,MPU6050_INT_ENABLE, temp);
 2100              		.loc 1 451 8
 2101 004a 7B68     		ldr	r3, [r7, #4]
 2102 004c 1978     		ldrb	r1, [r3]	@ zero_extendqisi2
 2103 004e BB7B     		ldrb	r3, [r7, #14]	@ zero_extendqisi2
 2104 0050 3822     		movs	r2, #56
 2105 0052 0548     		ldr	r0, .L142
 2106 0054 FFF7FEFF 		bl	i2c_write_7bit_base_byte_std
 2107 0058 0346     		mov	r3, r0
 2108 005a FB73     		strb	r3, [r7, #15]
 452:./mpu6050/mpu6050.c **** 
 453:./mpu6050/mpu6050.c **** 	/* Return OK */
 454:./mpu6050/mpu6050.c **** 	return MPU6050_OK; //  or return I2C_OK;
 2109              		.loc 1 454 9
 2110 005c 0023     		movs	r3, #0
 2111              	.L141:
 455:./mpu6050/mpu6050.c **** 	}
 2112              		.loc 1 455 2 discriminator 1
 2113 005e 1846     		mov	r0, r3
 2114 0060 1037     		adds	r7, r7, #16
 2115              	.LCFI100:
 2116              		.cfi_def_cfa_offset 8
 2117 0062 BD46     		mov	sp, r7
 2118              	.LCFI101:
 2119              		.cfi_def_cfa_register 13
 2120              		@ sp needed
 2121 0064 80BD     		pop	{r7, pc}
 2122              	.L143:
 2123 0066 00BF     		.align	2
 2124              	.L142:
 2125 0068 00540040 		.word	1073763328
 2126              		.cfi_endproc
 2127              	.LFE52:
 2129              		.section	.text.mpu6050_setMotionDetectionThreshold,"ax",%progbits
 2130              		.align	1
 2131              		.global	mpu6050_setMotionDetectionThreshold
 2132              		.syntax unified
 2133              		.thumb
 2134              		.thumb_func
 2136              	mpu6050_setMotionDetectionThreshold:
 2137              	.LFB53:
 456:./mpu6050/mpu6050.c **** //-------------------------------------------------------------------------------------------------
 457:./mpu6050/mpu6050.c **** uint8_t mpu6050_setMotionDetectionThreshold(MPU6050_t* mpu,uint8_t thr)
 458:./mpu6050/mpu6050.c **** {
 2138              		.loc 1 458 1
ARM GAS  C:\Users\SAMEER~1.ALM\AppData\Local\Temp\ccKQVuZd.s 			page 46


 2139              		.cfi_startproc
 2140              		@ args = 0, pretend = 0, frame = 16
 2141              		@ frame_needed = 1, uses_anonymous_args = 0
 2142 0000 80B5     		push	{r7, lr}
 2143              	.LCFI102:
 2144              		.cfi_def_cfa_offset 8
 2145              		.cfi_offset 7, -8
 2146              		.cfi_offset 14, -4
 2147 0002 84B0     		sub	sp, sp, #16
 2148              	.LCFI103:
 2149              		.cfi_def_cfa_offset 24
 2150 0004 00AF     		add	r7, sp, #0
 2151              	.LCFI104:
 2152              		.cfi_def_cfa_register 7
 2153 0006 7860     		str	r0, [r7, #4]
 2154 0008 0B46     		mov	r3, r1
 2155 000a FB70     		strb	r3, [r7, #3]
 459:./mpu6050/mpu6050.c **** 
 460:./mpu6050/mpu6050.c ****   uint8_t error=0;
 2156              		.loc 1 460 11
 2157 000c 0023     		movs	r3, #0
 2158 000e FB73     		strb	r3, [r7, #15]
 461:./mpu6050/mpu6050.c **** 	error=i2c_write_7bit_base_byte_std(MPU6050_I2C, mpu->Address,MPU6050_MOT_THR, thr);
 2159              		.loc 1 461 8
 2160 0010 7B68     		ldr	r3, [r7, #4]
 2161 0012 1978     		ldrb	r1, [r3]	@ zero_extendqisi2
 2162 0014 FB78     		ldrb	r3, [r7, #3]	@ zero_extendqisi2
 2163 0016 1F22     		movs	r2, #31
 2164 0018 0748     		ldr	r0, .L147
 2165 001a FFF7FEFF 		bl	i2c_write_7bit_base_byte_std
 2166 001e 0346     		mov	r3, r0
 2167 0020 FB73     		strb	r3, [r7, #15]
 462:./mpu6050/mpu6050.c **** 	if(error) return error;
 2168              		.loc 1 462 4
 2169 0022 FB7B     		ldrb	r3, [r7, #15]	@ zero_extendqisi2
 2170 0024 002B     		cmp	r3, #0
 2171 0026 01D0     		beq	.L145
 2172              		.loc 1 462 19 discriminator 1
 2173 0028 FB7B     		ldrb	r3, [r7, #15]	@ zero_extendqisi2
 2174 002a 00E0     		b	.L146
 2175              	.L145:
 463:./mpu6050/mpu6050.c **** 	/* Return OK */
 464:./mpu6050/mpu6050.c **** 	return MPU6050_OK; //  or return I2C_OK;
 2176              		.loc 1 464 9
 2177 002c 0023     		movs	r3, #0
 2178              	.L146:
 465:./mpu6050/mpu6050.c **** }
 2179              		.loc 1 465 1
 2180 002e 1846     		mov	r0, r3
 2181 0030 1037     		adds	r7, r7, #16
 2182              	.LCFI105:
 2183              		.cfi_def_cfa_offset 8
 2184 0032 BD46     		mov	sp, r7
 2185              	.LCFI106:
 2186              		.cfi_def_cfa_register 13
 2187              		@ sp needed
 2188 0034 80BD     		pop	{r7, pc}
ARM GAS  C:\Users\SAMEER~1.ALM\AppData\Local\Temp\ccKQVuZd.s 			page 47


 2189              	.L148:
 2190 0036 00BF     		.align	2
 2191              	.L147:
 2192 0038 00540040 		.word	1073763328
 2193              		.cfi_endproc
 2194              	.LFE53:
 2196              		.section	.text.mpu6050_setMotionDetectionDuration,"ax",%progbits
 2197              		.align	1
 2198              		.global	mpu6050_setMotionDetectionDuration
 2199              		.syntax unified
 2200              		.thumb
 2201              		.thumb_func
 2203              	mpu6050_setMotionDetectionDuration:
 2204              	.LFB54:
 466:./mpu6050/mpu6050.c **** //-------------------------------------------------------------------------------------------------
 467:./mpu6050/mpu6050.c **** uint8_t mpu6050_setMotionDetectionDuration(MPU6050_t* mpu,uint8_t dur)
 468:./mpu6050/mpu6050.c **** {
 2205              		.loc 1 468 1
 2206              		.cfi_startproc
 2207              		@ args = 0, pretend = 0, frame = 16
 2208              		@ frame_needed = 1, uses_anonymous_args = 0
 2209 0000 80B5     		push	{r7, lr}
 2210              	.LCFI107:
 2211              		.cfi_def_cfa_offset 8
 2212              		.cfi_offset 7, -8
 2213              		.cfi_offset 14, -4
 2214 0002 84B0     		sub	sp, sp, #16
 2215              	.LCFI108:
 2216              		.cfi_def_cfa_offset 24
 2217 0004 00AF     		add	r7, sp, #0
 2218              	.LCFI109:
 2219              		.cfi_def_cfa_register 7
 2220 0006 7860     		str	r0, [r7, #4]
 2221 0008 0B46     		mov	r3, r1
 2222 000a FB70     		strb	r3, [r7, #3]
 469:./mpu6050/mpu6050.c ****   uint8_t error=0;
 2223              		.loc 1 469 11
 2224 000c 0023     		movs	r3, #0
 2225 000e FB73     		strb	r3, [r7, #15]
 470:./mpu6050/mpu6050.c **** 	error=i2c_write_7bit_base_byte_std(MPU6050_I2C, mpu->Address,MPU6050_MOT_THR, dur);
 2226              		.loc 1 470 8
 2227 0010 7B68     		ldr	r3, [r7, #4]
 2228 0012 1978     		ldrb	r1, [r3]	@ zero_extendqisi2
 2229 0014 FB78     		ldrb	r3, [r7, #3]	@ zero_extendqisi2
 2230 0016 1F22     		movs	r2, #31
 2231 0018 0748     		ldr	r0, .L152
 2232 001a FFF7FEFF 		bl	i2c_write_7bit_base_byte_std
 2233 001e 0346     		mov	r3, r0
 2234 0020 FB73     		strb	r3, [r7, #15]
 471:./mpu6050/mpu6050.c **** 	if(error) return error;
 2235              		.loc 1 471 4
 2236 0022 FB7B     		ldrb	r3, [r7, #15]	@ zero_extendqisi2
 2237 0024 002B     		cmp	r3, #0
 2238 0026 01D0     		beq	.L150
 2239              		.loc 1 471 19 discriminator 1
 2240 0028 FB7B     		ldrb	r3, [r7, #15]	@ zero_extendqisi2
 2241 002a 00E0     		b	.L151
ARM GAS  C:\Users\SAMEER~1.ALM\AppData\Local\Temp\ccKQVuZd.s 			page 48


 2242              	.L150:
 472:./mpu6050/mpu6050.c **** 	/* Return OK */
 473:./mpu6050/mpu6050.c **** 	return MPU6050_OK;
 2243              		.loc 1 473 9
 2244 002c 0023     		movs	r3, #0
 2245              	.L151:
 474:./mpu6050/mpu6050.c **** }
 2246              		.loc 1 474 1
 2247 002e 1846     		mov	r0, r3
 2248 0030 1037     		adds	r7, r7, #16
 2249              	.LCFI110:
 2250              		.cfi_def_cfa_offset 8
 2251 0032 BD46     		mov	sp, r7
 2252              	.LCFI111:
 2253              		.cfi_def_cfa_register 13
 2254              		@ sp needed
 2255 0034 80BD     		pop	{r7, pc}
 2256              	.L153:
 2257 0036 00BF     		.align	2
 2258              	.L152:
 2259 0038 00540040 		.word	1073763328
 2260              		.cfi_endproc
 2261              	.LFE54:
 2263              		.section	.text.mpu6050_setGyroStandby,"ax",%progbits
 2264              		.align	1
 2265              		.global	mpu6050_setGyroStandby
 2266              		.syntax unified
 2267              		.thumb
 2268              		.thumb_func
 2270              	mpu6050_setGyroStandby:
 2271              	.LFB55:
 475:./mpu6050/mpu6050.c **** //-------------------------------------------------------------------------------------------------
 476:./mpu6050/mpu6050.c **** uint8_t mpu6050_setGyroStandby(MPU6050_t* mpu,uint8_t xAxisStandby, uint8_t yAxisStandby, uint8_t z
 477:./mpu6050/mpu6050.c **** {
 2272              		.loc 1 477 1
 2273              		.cfi_startproc
 2274              		@ args = 0, pretend = 0, frame = 16
 2275              		@ frame_needed = 1, uses_anonymous_args = 0
 2276 0000 80B5     		push	{r7, lr}
 2277              	.LCFI112:
 2278              		.cfi_def_cfa_offset 8
 2279              		.cfi_offset 7, -8
 2280              		.cfi_offset 14, -4
 2281 0002 84B0     		sub	sp, sp, #16
 2282              	.LCFI113:
 2283              		.cfi_def_cfa_offset 24
 2284 0004 00AF     		add	r7, sp, #0
 2285              	.LCFI114:
 2286              		.cfi_def_cfa_register 7
 2287 0006 7860     		str	r0, [r7, #4]
 2288 0008 0846     		mov	r0, r1
 2289 000a 1146     		mov	r1, r2
 2290 000c 1A46     		mov	r2, r3
 2291 000e 0346     		mov	r3, r0
 2292 0010 FB70     		strb	r3, [r7, #3]
 2293 0012 0B46     		mov	r3, r1
 2294 0014 BB70     		strb	r3, [r7, #2]
ARM GAS  C:\Users\SAMEER~1.ALM\AppData\Local\Temp\ccKQVuZd.s 			page 49


 2295 0016 1346     		mov	r3, r2
 2296 0018 7B70     		strb	r3, [r7, #1]
 478:./mpu6050/mpu6050.c ****  uint8_t error=0,temp=0,stdby=0;
 2297              		.loc 1 478 10
 2298 001a 0023     		movs	r3, #0
 2299 001c FB73     		strb	r3, [r7, #15]
 2300              		.loc 1 478 18
 2301 001e 0023     		movs	r3, #0
 2302 0020 7B73     		strb	r3, [r7, #13]
 2303              		.loc 1 478 25
 2304 0022 0023     		movs	r3, #0
 2305 0024 BB73     		strb	r3, [r7, #14]
 479:./mpu6050/mpu6050.c **** 	error=i2c_read_7bit_base_byte_std(MPU6050_I2C, mpu->Address, MPU6050_PWR_MGMT_2, &temp);
 2306              		.loc 1 479 8
 2307 0026 7B68     		ldr	r3, [r7, #4]
 2308 0028 1978     		ldrb	r1, [r3]	@ zero_extendqisi2
 2309 002a 07F10D03 		add	r3, r7, #13
 2310 002e 6C22     		movs	r2, #108
 2311 0030 1A48     		ldr	r0, .L159
 2312 0032 FFF7FEFF 		bl	i2c_read_7bit_base_byte_std
 2313 0036 0346     		mov	r3, r0
 2314 0038 FB73     		strb	r3, [r7, #15]
 480:./mpu6050/mpu6050.c ****   if(error) return error;
 2315              		.loc 1 480 5
 2316 003a FB7B     		ldrb	r3, [r7, #15]	@ zero_extendqisi2
 2317 003c 002B     		cmp	r3, #0
 2318 003e 01D0     		beq	.L155
 2319              		.loc 1 480 20 discriminator 1
 2320 0040 FB7B     		ldrb	r3, [r7, #15]	@ zero_extendqisi2
 2321 0042 26E0     		b	.L158
 2322              	.L155:
 481:./mpu6050/mpu6050.c **** 	stdby=(uint8_t)(xAxisStandby << 2 | yAxisStandby << 1 | zAxisStandby);
 2323              		.loc 1 481 31
 2324 0044 FB78     		ldrb	r3, [r7, #3]	@ zero_extendqisi2
 2325 0046 9B00     		lsls	r3, r3, #2
 2326              		.loc 1 481 36
 2327 0048 5AB2     		sxtb	r2, r3
 2328              		.loc 1 481 51
 2329 004a BB78     		ldrb	r3, [r7, #2]	@ zero_extendqisi2
 2330 004c 5B00     		lsls	r3, r3, #1
 2331              		.loc 1 481 36
 2332 004e 5BB2     		sxtb	r3, r3
 2333 0050 1343     		orrs	r3, r3, r2
 2334 0052 5AB2     		sxtb	r2, r3
 2335              		.loc 1 481 56
 2336 0054 97F90130 		ldrsb	r3, [r7, #1]
 2337 0058 1343     		orrs	r3, r3, r2
 2338 005a 5BB2     		sxtb	r3, r3
 2339              		.loc 1 481 7
 2340 005c BB73     		strb	r3, [r7, #14]
 482:./mpu6050/mpu6050.c **** 	temp = (temp & 0xf8) |stdby;
 2341              		.loc 1 482 15
 2342 005e 7B7B     		ldrb	r3, [r7, #13]	@ zero_extendqisi2
 2343 0060 5BB2     		sxtb	r3, r3
 2344 0062 23F00703 		bic	r3, r3, #7
 2345 0066 5AB2     		sxtb	r2, r3
 2346              		.loc 1 482 23
ARM GAS  C:\Users\SAMEER~1.ALM\AppData\Local\Temp\ccKQVuZd.s 			page 50


 2347 0068 97F90E30 		ldrsb	r3, [r7, #14]
 2348 006c 1343     		orrs	r3, r3, r2
 2349 006e 5BB2     		sxtb	r3, r3
 2350 0070 DBB2     		uxtb	r3, r3
 2351              		.loc 1 482 7
 2352 0072 7B73     		strb	r3, [r7, #13]
 483:./mpu6050/mpu6050.c **** 	error=i2c_write_7bit_base_byte_std(MPU6050_I2C, mpu->Address, MPU6050_PWR_MGMT_2, temp);
 2353              		.loc 1 483 8
 2354 0074 7B68     		ldr	r3, [r7, #4]
 2355 0076 1978     		ldrb	r1, [r3]	@ zero_extendqisi2
 2356 0078 7B7B     		ldrb	r3, [r7, #13]	@ zero_extendqisi2
 2357 007a 6C22     		movs	r2, #108
 2358 007c 0748     		ldr	r0, .L159
 2359 007e FFF7FEFF 		bl	i2c_write_7bit_base_byte_std
 2360 0082 0346     		mov	r3, r0
 2361 0084 FB73     		strb	r3, [r7, #15]
 484:./mpu6050/mpu6050.c ****   if(error) return error;
 2362              		.loc 1 484 5
 2363 0086 FB7B     		ldrb	r3, [r7, #15]	@ zero_extendqisi2
 2364 0088 002B     		cmp	r3, #0
 2365 008a 01D0     		beq	.L157
 2366              		.loc 1 484 20 discriminator 1
 2367 008c FB7B     		ldrb	r3, [r7, #15]	@ zero_extendqisi2
 2368 008e 00E0     		b	.L158
 2369              	.L157:
 485:./mpu6050/mpu6050.c ****   
 486:./mpu6050/mpu6050.c **** 	/* Return OK */
 487:./mpu6050/mpu6050.c **** 	return MPU6050_OK; //  or return I2C_OK;
 2370              		.loc 1 487 9
 2371 0090 0023     		movs	r3, #0
 2372              	.L158:
 488:./mpu6050/mpu6050.c **** }
 2373              		.loc 1 488 1 discriminator 1
 2374 0092 1846     		mov	r0, r3
 2375 0094 1037     		adds	r7, r7, #16
 2376              	.LCFI115:
 2377              		.cfi_def_cfa_offset 8
 2378 0096 BD46     		mov	sp, r7
 2379              	.LCFI116:
 2380              		.cfi_def_cfa_register 13
 2381              		@ sp needed
 2382 0098 80BD     		pop	{r7, pc}
 2383              	.L160:
 2384 009a 00BF     		.align	2
 2385              	.L159:
 2386 009c 00540040 		.word	1073763328
 2387              		.cfi_endproc
 2388              	.LFE55:
 2390              		.section	.text.mpu6050_setAccelerometerStandby,"ax",%progbits
 2391              		.align	1
 2392              		.global	mpu6050_setAccelerometerStandby
 2393              		.syntax unified
 2394              		.thumb
 2395              		.thumb_func
 2397              	mpu6050_setAccelerometerStandby:
 2398              	.LFB56:
 489:./mpu6050/mpu6050.c **** //-------------------------------------------------------------------------------------------------
ARM GAS  C:\Users\SAMEER~1.ALM\AppData\Local\Temp\ccKQVuZd.s 			page 51


 490:./mpu6050/mpu6050.c **** uint8_t mpu6050_setAccelerometerStandby(MPU6050_t* mpu,uint8_t xAxisStandby, uint8_t yAxisStandby,u
 491:./mpu6050/mpu6050.c **** {
 2399              		.loc 1 491 1
 2400              		.cfi_startproc
 2401              		@ args = 0, pretend = 0, frame = 16
 2402              		@ frame_needed = 1, uses_anonymous_args = 0
 2403 0000 80B5     		push	{r7, lr}
 2404              	.LCFI117:
 2405              		.cfi_def_cfa_offset 8
 2406              		.cfi_offset 7, -8
 2407              		.cfi_offset 14, -4
 2408 0002 84B0     		sub	sp, sp, #16
 2409              	.LCFI118:
 2410              		.cfi_def_cfa_offset 24
 2411 0004 00AF     		add	r7, sp, #0
 2412              	.LCFI119:
 2413              		.cfi_def_cfa_register 7
 2414 0006 7860     		str	r0, [r7, #4]
 2415 0008 0846     		mov	r0, r1
 2416 000a 1146     		mov	r1, r2
 2417 000c 1A46     		mov	r2, r3
 2418 000e 0346     		mov	r3, r0
 2419 0010 FB70     		strb	r3, [r7, #3]
 2420 0012 0B46     		mov	r3, r1
 2421 0014 BB70     		strb	r3, [r7, #2]
 2422 0016 1346     		mov	r3, r2
 2423 0018 7B70     		strb	r3, [r7, #1]
 492:./mpu6050/mpu6050.c ****   uint8_t error=0,temp=0,stdby=0;
 2424              		.loc 1 492 11
 2425 001a 0023     		movs	r3, #0
 2426 001c FB73     		strb	r3, [r7, #15]
 2427              		.loc 1 492 19
 2428 001e 0023     		movs	r3, #0
 2429 0020 7B73     		strb	r3, [r7, #13]
 2430              		.loc 1 492 26
 2431 0022 0023     		movs	r3, #0
 2432 0024 BB73     		strb	r3, [r7, #14]
 493:./mpu6050/mpu6050.c **** 	error=i2c_read_7bit_base_byte_std(MPU6050_I2C, mpu->Address, MPU6050_PWR_MGMT_2, &temp);
 2433              		.loc 1 493 8
 2434 0026 7B68     		ldr	r3, [r7, #4]
 2435 0028 1978     		ldrb	r1, [r3]	@ zero_extendqisi2
 2436 002a 07F10D03 		add	r3, r7, #13
 2437 002e 6C22     		movs	r2, #108
 2438 0030 1A48     		ldr	r0, .L166
 2439 0032 FFF7FEFF 		bl	i2c_read_7bit_base_byte_std
 2440 0036 0346     		mov	r3, r0
 2441 0038 FB73     		strb	r3, [r7, #15]
 494:./mpu6050/mpu6050.c ****   if(error) return error;
 2442              		.loc 1 494 5
 2443 003a FB7B     		ldrb	r3, [r7, #15]	@ zero_extendqisi2
 2444 003c 002B     		cmp	r3, #0
 2445 003e 01D0     		beq	.L162
 2446              		.loc 1 494 20 discriminator 1
 2447 0040 FB7B     		ldrb	r3, [r7, #15]	@ zero_extendqisi2
 2448 0042 27E0     		b	.L165
 2449              	.L162:
 495:./mpu6050/mpu6050.c **** 	stdby=(uint8_t)(xAxisStandby << 2 | yAxisStandby << 1 | zAxisStandby);
ARM GAS  C:\Users\SAMEER~1.ALM\AppData\Local\Temp\ccKQVuZd.s 			page 52


 2450              		.loc 1 495 31
 2451 0044 FB78     		ldrb	r3, [r7, #3]	@ zero_extendqisi2
 2452 0046 9B00     		lsls	r3, r3, #2
 2453              		.loc 1 495 36
 2454 0048 5AB2     		sxtb	r2, r3
 2455              		.loc 1 495 51
 2456 004a BB78     		ldrb	r3, [r7, #2]	@ zero_extendqisi2
 2457 004c 5B00     		lsls	r3, r3, #1
 2458              		.loc 1 495 36
 2459 004e 5BB2     		sxtb	r3, r3
 2460 0050 1343     		orrs	r3, r3, r2
 2461 0052 5AB2     		sxtb	r2, r3
 2462              		.loc 1 495 56
 2463 0054 97F90130 		ldrsb	r3, [r7, #1]
 2464 0058 1343     		orrs	r3, r3, r2
 2465 005a 5BB2     		sxtb	r3, r3
 2466              		.loc 1 495 7
 2467 005c BB73     		strb	r3, [r7, #14]
 496:./mpu6050/mpu6050.c **** 	temp = (uint8_t) (temp & 0xf8) | (stdby<<3) ;
 2468              		.loc 1 496 9
 2469 005e 7B7B     		ldrb	r3, [r7, #13]	@ zero_extendqisi2
 2470 0060 5BB2     		sxtb	r3, r3
 2471 0062 23F00703 		bic	r3, r3, #7
 2472 0066 5AB2     		sxtb	r2, r3
 2473              		.loc 1 496 41
 2474 0068 BB7B     		ldrb	r3, [r7, #14]	@ zero_extendqisi2
 2475 006a DB00     		lsls	r3, r3, #3
 2476              		.loc 1 496 33
 2477 006c 5BB2     		sxtb	r3, r3
 2478 006e 1343     		orrs	r3, r3, r2
 2479 0070 5BB2     		sxtb	r3, r3
 2480 0072 DBB2     		uxtb	r3, r3
 2481              		.loc 1 496 7
 2482 0074 7B73     		strb	r3, [r7, #13]
 497:./mpu6050/mpu6050.c **** 	error=i2c_write_7bit_base_byte_std(MPU6050_I2C, mpu->Address, MPU6050_PWR_MGMT_2, temp);
 2483              		.loc 1 497 8
 2484 0076 7B68     		ldr	r3, [r7, #4]
 2485 0078 1978     		ldrb	r1, [r3]	@ zero_extendqisi2
 2486 007a 7B7B     		ldrb	r3, [r7, #13]	@ zero_extendqisi2
 2487 007c 6C22     		movs	r2, #108
 2488 007e 0748     		ldr	r0, .L166
 2489 0080 FFF7FEFF 		bl	i2c_write_7bit_base_byte_std
 2490 0084 0346     		mov	r3, r0
 2491 0086 FB73     		strb	r3, [r7, #15]
 498:./mpu6050/mpu6050.c ****   if(error) return error;
 2492              		.loc 1 498 5
 2493 0088 FB7B     		ldrb	r3, [r7, #15]	@ zero_extendqisi2
 2494 008a 002B     		cmp	r3, #0
 2495 008c 01D0     		beq	.L164
 2496              		.loc 1 498 20 discriminator 1
 2497 008e FB7B     		ldrb	r3, [r7, #15]	@ zero_extendqisi2
 2498 0090 00E0     		b	.L165
 2499              	.L164:
 499:./mpu6050/mpu6050.c ****   
 500:./mpu6050/mpu6050.c **** 	/* Return OK */
 501:./mpu6050/mpu6050.c **** 	return MPU6050_OK; //  or return I2C_OK;
 2500              		.loc 1 501 9
ARM GAS  C:\Users\SAMEER~1.ALM\AppData\Local\Temp\ccKQVuZd.s 			page 53


 2501 0092 0023     		movs	r3, #0
 2502              	.L165:
 502:./mpu6050/mpu6050.c **** }
 2503              		.loc 1 502 1 discriminator 1
 2504 0094 1846     		mov	r0, r3
 2505 0096 1037     		adds	r7, r7, #16
 2506              	.LCFI120:
 2507              		.cfi_def_cfa_offset 8
 2508 0098 BD46     		mov	sp, r7
 2509              	.LCFI121:
 2510              		.cfi_def_cfa_register 13
 2511              		@ sp needed
 2512 009a 80BD     		pop	{r7, pc}
 2513              	.L167:
 2514              		.align	2
 2515              	.L166:
 2516 009c 00540040 		.word	1073763328
 2517              		.cfi_endproc
 2518              	.LFE56:
 2520              		.section	.text.mpu6050_setTemperatureStandby,"ax",%progbits
 2521              		.align	1
 2522              		.global	mpu6050_setTemperatureStandby
 2523              		.syntax unified
 2524              		.thumb
 2525              		.thumb_func
 2527              	mpu6050_setTemperatureStandby:
 2528              	.LFB57:
 503:./mpu6050/mpu6050.c **** //-------------------------------------------------------------------------------------------------
 504:./mpu6050/mpu6050.c **** uint8_t mpu6050_setTemperatureStandby(MPU6050_t* mpu,uint8_t enable)
 505:./mpu6050/mpu6050.c **** {
 2529              		.loc 1 505 1
 2530              		.cfi_startproc
 2531              		@ args = 0, pretend = 0, frame = 16
 2532              		@ frame_needed = 1, uses_anonymous_args = 0
 2533 0000 80B5     		push	{r7, lr}
 2534              	.LCFI122:
 2535              		.cfi_def_cfa_offset 8
 2536              		.cfi_offset 7, -8
 2537              		.cfi_offset 14, -4
 2538 0002 84B0     		sub	sp, sp, #16
 2539              	.LCFI123:
 2540              		.cfi_def_cfa_offset 24
 2541 0004 00AF     		add	r7, sp, #0
 2542              	.LCFI124:
 2543              		.cfi_def_cfa_register 7
 2544 0006 7860     		str	r0, [r7, #4]
 2545 0008 0B46     		mov	r3, r1
 2546 000a FB70     		strb	r3, [r7, #3]
 506:./mpu6050/mpu6050.c ****   uint8_t error=0,temp=0;
 2547              		.loc 1 506 11
 2548 000c 0023     		movs	r3, #0
 2549 000e FB73     		strb	r3, [r7, #15]
 2550              		.loc 1 506 19
 2551 0010 0023     		movs	r3, #0
 2552 0012 BB73     		strb	r3, [r7, #14]
 507:./mpu6050/mpu6050.c **** 	error=i2c_read_7bit_base_byte_std(MPU6050_I2C, mpu->Address, MPU6050_PWR_MGMT_1, &temp);
 2553              		.loc 1 507 8
ARM GAS  C:\Users\SAMEER~1.ALM\AppData\Local\Temp\ccKQVuZd.s 			page 54


 2554 0014 7B68     		ldr	r3, [r7, #4]
 2555 0016 1978     		ldrb	r1, [r3]	@ zero_extendqisi2
 2556 0018 07F10E03 		add	r3, r7, #14
 2557 001c 6B22     		movs	r2, #107
 2558 001e 1448     		ldr	r0, .L173
 2559 0020 FFF7FEFF 		bl	i2c_read_7bit_base_byte_std
 2560 0024 0346     		mov	r3, r0
 2561 0026 FB73     		strb	r3, [r7, #15]
 508:./mpu6050/mpu6050.c ****   if(error) return error;
 2562              		.loc 1 508 5
 2563 0028 FB7B     		ldrb	r3, [r7, #15]	@ zero_extendqisi2
 2564 002a 002B     		cmp	r3, #0
 2565 002c 01D0     		beq	.L169
 2566              		.loc 1 508 20 discriminator 1
 2567 002e FB7B     		ldrb	r3, [r7, #15]	@ zero_extendqisi2
 2568 0030 1AE0     		b	.L172
 2569              	.L169:
 509:./mpu6050/mpu6050.c **** 	temp = (temp & 0xE7) | (enable<<3) ;
 2570              		.loc 1 509 15
 2571 0032 BB7B     		ldrb	r3, [r7, #14]	@ zero_extendqisi2
 2572 0034 5BB2     		sxtb	r3, r3
 2573 0036 23F01803 		bic	r3, r3, #24
 2574 003a 5AB2     		sxtb	r2, r3
 2575              		.loc 1 509 32
 2576 003c FB78     		ldrb	r3, [r7, #3]	@ zero_extendqisi2
 2577 003e DB00     		lsls	r3, r3, #3
 2578              		.loc 1 509 23
 2579 0040 5BB2     		sxtb	r3, r3
 2580 0042 1343     		orrs	r3, r3, r2
 2581 0044 5BB2     		sxtb	r3, r3
 2582 0046 DBB2     		uxtb	r3, r3
 2583              		.loc 1 509 7
 2584 0048 BB73     		strb	r3, [r7, #14]
 510:./mpu6050/mpu6050.c **** 	error=i2c_write_7bit_base_byte_std(MPU6050_I2C, mpu->Address, MPU6050_PWR_MGMT_1, temp);
 2585              		.loc 1 510 8
 2586 004a 7B68     		ldr	r3, [r7, #4]
 2587 004c 1978     		ldrb	r1, [r3]	@ zero_extendqisi2
 2588 004e BB7B     		ldrb	r3, [r7, #14]	@ zero_extendqisi2
 2589 0050 6B22     		movs	r2, #107
 2590 0052 0748     		ldr	r0, .L173
 2591 0054 FFF7FEFF 		bl	i2c_write_7bit_base_byte_std
 2592 0058 0346     		mov	r3, r0
 2593 005a FB73     		strb	r3, [r7, #15]
 511:./mpu6050/mpu6050.c ****   if(error) return error;
 2594              		.loc 1 511 5
 2595 005c FB7B     		ldrb	r3, [r7, #15]	@ zero_extendqisi2
 2596 005e 002B     		cmp	r3, #0
 2597 0060 01D0     		beq	.L171
 2598              		.loc 1 511 20 discriminator 1
 2599 0062 FB7B     		ldrb	r3, [r7, #15]	@ zero_extendqisi2
 2600 0064 00E0     		b	.L172
 2601              	.L171:
 512:./mpu6050/mpu6050.c ****   
 513:./mpu6050/mpu6050.c **** 	/* Return OK */
 514:./mpu6050/mpu6050.c **** 	return MPU6050_OK; //  or return I2C_OK;
 2602              		.loc 1 514 9
 2603 0066 0023     		movs	r3, #0
ARM GAS  C:\Users\SAMEER~1.ALM\AppData\Local\Temp\ccKQVuZd.s 			page 55


 2604              	.L172:
 515:./mpu6050/mpu6050.c **** }
 2605              		.loc 1 515 1 discriminator 1
 2606 0068 1846     		mov	r0, r3
 2607 006a 1037     		adds	r7, r7, #16
 2608              	.LCFI125:
 2609              		.cfi_def_cfa_offset 8
 2610 006c BD46     		mov	sp, r7
 2611              	.LCFI126:
 2612              		.cfi_def_cfa_register 13
 2613              		@ sp needed
 2614 006e 80BD     		pop	{r7, pc}
 2615              	.L174:
 2616              		.align	2
 2617              	.L173:
 2618 0070 00540040 		.word	1073763328
 2619              		.cfi_endproc
 2620              	.LFE57:
 2622              		.section	.text.mpu6050_read_reg,"ax",%progbits
 2623              		.align	1
 2624              		.global	mpu6050_read_reg
 2625              		.syntax unified
 2626              		.thumb
 2627              		.thumb_func
 2629              	mpu6050_read_reg:
 2630              	.LFB58:
 516:./mpu6050/mpu6050.c **** //-------------------------------------------------------------------------------------------------
 517:./mpu6050/mpu6050.c **** 
 518:./mpu6050/mpu6050.c **** //********************************************************************************************
 519:./mpu6050/mpu6050.c **** //
 520:./mpu6050/mpu6050.c **** //   get Methods
 521:./mpu6050/mpu6050.c **** //
 522:./mpu6050/mpu6050.c **** //********************************************************************************************
 523:./mpu6050/mpu6050.c **** uint8_t mpu6050_read_reg(MPU6050_t* mpu,uint8_t reg_address,uint8_t * data)
 524:./mpu6050/mpu6050.c **** {
 2631              		.loc 1 524 1
 2632              		.cfi_startproc
 2633              		@ args = 0, pretend = 0, frame = 24
 2634              		@ frame_needed = 1, uses_anonymous_args = 0
 2635 0000 80B5     		push	{r7, lr}
 2636              	.LCFI127:
 2637              		.cfi_def_cfa_offset 8
 2638              		.cfi_offset 7, -8
 2639              		.cfi_offset 14, -4
 2640 0002 86B0     		sub	sp, sp, #24
 2641              	.LCFI128:
 2642              		.cfi_def_cfa_offset 32
 2643 0004 00AF     		add	r7, sp, #0
 2644              	.LCFI129:
 2645              		.cfi_def_cfa_register 7
 2646 0006 F860     		str	r0, [r7, #12]
 2647 0008 0B46     		mov	r3, r1
 2648 000a 7A60     		str	r2, [r7, #4]
 2649 000c FB72     		strb	r3, [r7, #11]
 525:./mpu6050/mpu6050.c ****  	/* read MPU6050_SMPLRT_DIV register*/
 526:./mpu6050/mpu6050.c ****   uint8_t error=0, temp=0;	
 2650              		.loc 1 526 11
ARM GAS  C:\Users\SAMEER~1.ALM\AppData\Local\Temp\ccKQVuZd.s 			page 56


 2651 000e 0023     		movs	r3, #0
 2652 0010 FB75     		strb	r3, [r7, #23]
 2653              		.loc 1 526 20
 2654 0012 0023     		movs	r3, #0
 2655 0014 BB75     		strb	r3, [r7, #22]
 527:./mpu6050/mpu6050.c ****   error=i2c_read_7bit_base_byte_std(MPU6050_I2C,mpu->Address,reg_address,&temp);
 2656              		.loc 1 527 9
 2657 0016 FB68     		ldr	r3, [r7, #12]
 2658 0018 1978     		ldrb	r1, [r3]	@ zero_extendqisi2
 2659 001a 07F11603 		add	r3, r7, #22
 2660 001e FA7A     		ldrb	r2, [r7, #11]	@ zero_extendqisi2
 2661 0020 0848     		ldr	r0, .L179
 2662 0022 FFF7FEFF 		bl	i2c_read_7bit_base_byte_std
 2663 0026 0346     		mov	r3, r0
 2664 0028 FB75     		strb	r3, [r7, #23]
 528:./mpu6050/mpu6050.c ****   if(error) return error;
 2665              		.loc 1 528 5
 2666 002a FB7D     		ldrb	r3, [r7, #23]	@ zero_extendqisi2
 2667 002c 002B     		cmp	r3, #0
 2668 002e 01D0     		beq	.L176
 2669              		.loc 1 528 20 discriminator 1
 2670 0030 FB7D     		ldrb	r3, [r7, #23]	@ zero_extendqisi2
 2671 0032 03E0     		b	.L178
 2672              	.L176:
 529:./mpu6050/mpu6050.c **** 	*data=temp;
 2673              		.loc 1 529 7
 2674 0034 BA7D     		ldrb	r2, [r7, #22]	@ zero_extendqisi2
 2675 0036 7B68     		ldr	r3, [r7, #4]
 2676 0038 1A70     		strb	r2, [r3]
 530:./mpu6050/mpu6050.c ****   	/* Return OK */
 531:./mpu6050/mpu6050.c **** 	return MPU6050_OK; //  or return I2C_OK;
 2677              		.loc 1 531 9
 2678 003a 0023     		movs	r3, #0
 2679              	.L178:
 532:./mpu6050/mpu6050.c **** }
 2680              		.loc 1 532 1 discriminator 1
 2681 003c 1846     		mov	r0, r3
 2682 003e 1837     		adds	r7, r7, #24
 2683              	.LCFI130:
 2684              		.cfi_def_cfa_offset 8
 2685 0040 BD46     		mov	sp, r7
 2686              	.LCFI131:
 2687              		.cfi_def_cfa_register 13
 2688              		@ sp needed
 2689 0042 80BD     		pop	{r7, pc}
 2690              	.L180:
 2691              		.align	2
 2692              	.L179:
 2693 0044 00540040 		.word	1073763328
 2694              		.cfi_endproc
 2695              	.LFE58:
 2697              		.section	.text.mpu6050_getClock,"ax",%progbits
 2698              		.align	1
 2699              		.global	mpu6050_getClock
 2700              		.syntax unified
 2701              		.thumb
 2702              		.thumb_func
ARM GAS  C:\Users\SAMEER~1.ALM\AppData\Local\Temp\ccKQVuZd.s 			page 57


 2704              	mpu6050_getClock:
 2705              	.LFB59:
 533:./mpu6050/mpu6050.c **** //-------------------------------------------------------------------------------------------------
 534:./mpu6050/mpu6050.c **** uint8_t mpu6050_getClock(MPU6050_t* mpu,uint8_t * data)
 535:./mpu6050/mpu6050.c **** {
 2706              		.loc 1 535 1
 2707              		.cfi_startproc
 2708              		@ args = 0, pretend = 0, frame = 16
 2709              		@ frame_needed = 1, uses_anonymous_args = 0
 2710 0000 80B5     		push	{r7, lr}
 2711              	.LCFI132:
 2712              		.cfi_def_cfa_offset 8
 2713              		.cfi_offset 7, -8
 2714              		.cfi_offset 14, -4
 2715 0002 84B0     		sub	sp, sp, #16
 2716              	.LCFI133:
 2717              		.cfi_def_cfa_offset 24
 2718 0004 00AF     		add	r7, sp, #0
 2719              	.LCFI134:
 2720              		.cfi_def_cfa_register 7
 2721 0006 7860     		str	r0, [r7, #4]
 2722 0008 3960     		str	r1, [r7]
 536:./mpu6050/mpu6050.c ****  /* read MPU6050_PWR_MGMT_1 register*/
 537:./mpu6050/mpu6050.c ****   uint8_t error=0, temp=0;	
 2723              		.loc 1 537 11
 2724 000a 0023     		movs	r3, #0
 2725 000c FB73     		strb	r3, [r7, #15]
 2726              		.loc 1 537 20
 2727 000e 0023     		movs	r3, #0
 2728 0010 BB73     		strb	r3, [r7, #14]
 538:./mpu6050/mpu6050.c ****   error=i2c_read_7bit_base_byte_std(MPU6050_I2C,mpu->Address,MPU6050_PWR_MGMT_1,&temp);
 2729              		.loc 1 538 9
 2730 0012 7B68     		ldr	r3, [r7, #4]
 2731 0014 1978     		ldrb	r1, [r3]	@ zero_extendqisi2
 2732 0016 07F10E03 		add	r3, r7, #14
 2733 001a 6B22     		movs	r2, #107
 2734 001c 0A48     		ldr	r0, .L185
 2735 001e FFF7FEFF 		bl	i2c_read_7bit_base_byte_std
 2736 0022 0346     		mov	r3, r0
 2737 0024 FB73     		strb	r3, [r7, #15]
 539:./mpu6050/mpu6050.c ****   if(error) return error;
 2738              		.loc 1 539 5
 2739 0026 FB7B     		ldrb	r3, [r7, #15]	@ zero_extendqisi2
 2740 0028 002B     		cmp	r3, #0
 2741 002a 01D0     		beq	.L182
 2742              		.loc 1 539 20 discriminator 1
 2743 002c FB7B     		ldrb	r3, [r7, #15]	@ zero_extendqisi2
 2744 002e 06E0     		b	.L184
 2745              	.L182:
 540:./mpu6050/mpu6050.c **** 	*data=temp & 0x07;
 2746              		.loc 1 540 13
 2747 0030 BB7B     		ldrb	r3, [r7, #14]	@ zero_extendqisi2
 2748 0032 03F00703 		and	r3, r3, #7
 2749 0036 DAB2     		uxtb	r2, r3
 2750              		.loc 1 540 7
 2751 0038 3B68     		ldr	r3, [r7]
 2752 003a 1A70     		strb	r2, [r3]
ARM GAS  C:\Users\SAMEER~1.ALM\AppData\Local\Temp\ccKQVuZd.s 			page 58


 541:./mpu6050/mpu6050.c ****   	/* Return OK */
 542:./mpu6050/mpu6050.c **** 	return MPU6050_OK; //  or return I2C_NO_ERROR;
 2753              		.loc 1 542 9
 2754 003c 0023     		movs	r3, #0
 2755              	.L184:
 543:./mpu6050/mpu6050.c **** }
 2756              		.loc 1 543 1 discriminator 1
 2757 003e 1846     		mov	r0, r3
 2758 0040 1037     		adds	r7, r7, #16
 2759              	.LCFI135:
 2760              		.cfi_def_cfa_offset 8
 2761 0042 BD46     		mov	sp, r7
 2762              	.LCFI136:
 2763              		.cfi_def_cfa_register 13
 2764              		@ sp needed
 2765 0044 80BD     		pop	{r7, pc}
 2766              	.L186:
 2767 0046 00BF     		.align	2
 2768              	.L185:
 2769 0048 00540040 		.word	1073763328
 2770              		.cfi_endproc
 2771              	.LFE59:
 2773              		.section	.text.mpu6050_getSampleRateDivisor,"ax",%progbits
 2774              		.align	1
 2775              		.global	mpu6050_getSampleRateDivisor
 2776              		.syntax unified
 2777              		.thumb
 2778              		.thumb_func
 2780              	mpu6050_getSampleRateDivisor:
 2781              	.LFB60:
 544:./mpu6050/mpu6050.c **** //-------------------------------------------------------------------------------------------------
 545:./mpu6050/mpu6050.c **** uint8_t mpu6050_getSampleRateDivisor(MPU6050_t* mpu,uint8_t * data)
 546:./mpu6050/mpu6050.c **** {
 2782              		.loc 1 546 1
 2783              		.cfi_startproc
 2784              		@ args = 0, pretend = 0, frame = 8
 2785              		@ frame_needed = 1, uses_anonymous_args = 0
 2786 0000 80B5     		push	{r7, lr}
 2787              	.LCFI137:
 2788              		.cfi_def_cfa_offset 8
 2789              		.cfi_offset 7, -8
 2790              		.cfi_offset 14, -4
 2791 0002 82B0     		sub	sp, sp, #8
 2792              	.LCFI138:
 2793              		.cfi_def_cfa_offset 16
 2794 0004 00AF     		add	r7, sp, #0
 2795              	.LCFI139:
 2796              		.cfi_def_cfa_register 7
 2797 0006 7860     		str	r0, [r7, #4]
 2798 0008 3960     		str	r1, [r7]
 547:./mpu6050/mpu6050.c **** 	/* read MPU6050_SMPLRT_DIV register*/
 548:./mpu6050/mpu6050.c **** 	return mpu6050_read_reg(mpu,MPU6050_SMPLRT_DIV,data);
 2799              		.loc 1 548 9
 2800 000a 3A68     		ldr	r2, [r7]
 2801 000c 1921     		movs	r1, #25
 2802 000e 7868     		ldr	r0, [r7, #4]
 2803 0010 FFF7FEFF 		bl	mpu6050_read_reg
ARM GAS  C:\Users\SAMEER~1.ALM\AppData\Local\Temp\ccKQVuZd.s 			page 59


 2804 0014 0346     		mov	r3, r0
 549:./mpu6050/mpu6050.c **** }
 2805              		.loc 1 549 1
 2806 0016 1846     		mov	r0, r3
 2807 0018 0837     		adds	r7, r7, #8
 2808              	.LCFI140:
 2809              		.cfi_def_cfa_offset 8
 2810 001a BD46     		mov	sp, r7
 2811              	.LCFI141:
 2812              		.cfi_def_cfa_register 13
 2813              		@ sp needed
 2814 001c 80BD     		pop	{r7, pc}
 2815              		.cfi_endproc
 2816              	.LFE60:
 2818              		.section	.text.mpu6050_getCycleRate,"ax",%progbits
 2819              		.align	1
 2820              		.global	mpu6050_getCycleRate
 2821              		.syntax unified
 2822              		.thumb
 2823              		.thumb_func
 2825              	mpu6050_getCycleRate:
 2826              	.LFB61:
 550:./mpu6050/mpu6050.c **** //-------------------------------------------------------------------------------------------------
 551:./mpu6050/mpu6050.c **** uint8_t mpu6050_getCycleRate(MPU6050_t* mpu,uint8_t * data)
 552:./mpu6050/mpu6050.c **** {
 2827              		.loc 1 552 1
 2828              		.cfi_startproc
 2829              		@ args = 0, pretend = 0, frame = 16
 2830              		@ frame_needed = 1, uses_anonymous_args = 0
 2831 0000 80B5     		push	{r7, lr}
 2832              	.LCFI142:
 2833              		.cfi_def_cfa_offset 8
 2834              		.cfi_offset 7, -8
 2835              		.cfi_offset 14, -4
 2836 0002 84B0     		sub	sp, sp, #16
 2837              	.LCFI143:
 2838              		.cfi_def_cfa_offset 24
 2839 0004 00AF     		add	r7, sp, #0
 2840              	.LCFI144:
 2841              		.cfi_def_cfa_register 7
 2842 0006 7860     		str	r0, [r7, #4]
 2843 0008 3960     		str	r1, [r7]
 553:./mpu6050/mpu6050.c ****  /* read MPU6050_PWR_MGMT_2 register*/
 554:./mpu6050/mpu6050.c ****   uint8_t error=0, temp=0;	
 2844              		.loc 1 554 11
 2845 000a 0023     		movs	r3, #0
 2846 000c FB73     		strb	r3, [r7, #15]
 2847              		.loc 1 554 20
 2848 000e 0023     		movs	r3, #0
 2849 0010 BB73     		strb	r3, [r7, #14]
 555:./mpu6050/mpu6050.c ****   error=i2c_read_7bit_base_byte_std(MPU6050_I2C,mpu->Address,MPU6050_PWR_MGMT_2,&temp);
 2850              		.loc 1 555 9
 2851 0012 7B68     		ldr	r3, [r7, #4]
 2852 0014 1978     		ldrb	r1, [r3]	@ zero_extendqisi2
 2853 0016 07F10E03 		add	r3, r7, #14
 2854 001a 6C22     		movs	r2, #108
 2855 001c 0B48     		ldr	r0, .L193
ARM GAS  C:\Users\SAMEER~1.ALM\AppData\Local\Temp\ccKQVuZd.s 			page 60


 2856 001e FFF7FEFF 		bl	i2c_read_7bit_base_byte_std
 2857 0022 0346     		mov	r3, r0
 2858 0024 FB73     		strb	r3, [r7, #15]
 556:./mpu6050/mpu6050.c ****   if(error) return error;
 2859              		.loc 1 556 5
 2860 0026 FB7B     		ldrb	r3, [r7, #15]	@ zero_extendqisi2
 2861 0028 002B     		cmp	r3, #0
 2862 002a 01D0     		beq	.L190
 2863              		.loc 1 556 20 discriminator 1
 2864 002c FB7B     		ldrb	r3, [r7, #15]	@ zero_extendqisi2
 2865 002e 08E0     		b	.L192
 2866              	.L190:
 557:./mpu6050/mpu6050.c **** 	*data=(uint8_t)(temp>>6)& 0x02;
 2867              		.loc 1 557 26
 2868 0030 BB7B     		ldrb	r3, [r7, #14]	@ zero_extendqisi2
 2869              		.loc 1 557 8
 2870 0032 9B09     		lsrs	r3, r3, #6
 2871 0034 DBB2     		uxtb	r3, r3
 2872              		.loc 1 557 26
 2873 0036 03F00203 		and	r3, r3, #2
 2874 003a DAB2     		uxtb	r2, r3
 2875              		.loc 1 557 7
 2876 003c 3B68     		ldr	r3, [r7]
 2877 003e 1A70     		strb	r2, [r3]
 558:./mpu6050/mpu6050.c ****   	/* Return OK */
 559:./mpu6050/mpu6050.c **** 	return MPU6050_OK; //  or return I2C_NO_ERROR;
 2878              		.loc 1 559 9
 2879 0040 0023     		movs	r3, #0
 2880              	.L192:
 560:./mpu6050/mpu6050.c **** }
 2881              		.loc 1 560 1 discriminator 1
 2882 0042 1846     		mov	r0, r3
 2883 0044 1037     		adds	r7, r7, #16
 2884              	.LCFI145:
 2885              		.cfi_def_cfa_offset 8
 2886 0046 BD46     		mov	sp, r7
 2887              	.LCFI146:
 2888              		.cfi_def_cfa_register 13
 2889              		@ sp needed
 2890 0048 80BD     		pop	{r7, pc}
 2891              	.L194:
 2892 004a 00BF     		.align	2
 2893              	.L193:
 2894 004c 00540040 		.word	1073763328
 2895              		.cfi_endproc
 2896              	.LFE61:
 2898              		.section	.text.mpu6050_getFsyncSampleOutput,"ax",%progbits
 2899              		.align	1
 2900              		.global	mpu6050_getFsyncSampleOutput
 2901              		.syntax unified
 2902              		.thumb
 2903              		.thumb_func
 2905              	mpu6050_getFsyncSampleOutput:
 2906              	.LFB62:
 561:./mpu6050/mpu6050.c **** //-------------------------------------------------------------------------------------------------
 562:./mpu6050/mpu6050.c **** uint8_t mpu6050_getFsyncSampleOutput(MPU6050_t* mpu,uint8_t* data)
 563:./mpu6050/mpu6050.c **** {
ARM GAS  C:\Users\SAMEER~1.ALM\AppData\Local\Temp\ccKQVuZd.s 			page 61


 2907              		.loc 1 563 1
 2908              		.cfi_startproc
 2909              		@ args = 0, pretend = 0, frame = 16
 2910              		@ frame_needed = 1, uses_anonymous_args = 0
 2911 0000 80B5     		push	{r7, lr}
 2912              	.LCFI147:
 2913              		.cfi_def_cfa_offset 8
 2914              		.cfi_offset 7, -8
 2915              		.cfi_offset 14, -4
 2916 0002 84B0     		sub	sp, sp, #16
 2917              	.LCFI148:
 2918              		.cfi_def_cfa_offset 24
 2919 0004 00AF     		add	r7, sp, #0
 2920              	.LCFI149:
 2921              		.cfi_def_cfa_register 7
 2922 0006 7860     		str	r0, [r7, #4]
 2923 0008 3960     		str	r1, [r7]
 564:./mpu6050/mpu6050.c **** 	/* read MPU6050_CONFIG register*/
 565:./mpu6050/mpu6050.c ****   uint8_t error=0, temp=0;	
 2924              		.loc 1 565 11
 2925 000a 0023     		movs	r3, #0
 2926 000c FB73     		strb	r3, [r7, #15]
 2927              		.loc 1 565 20
 2928 000e 0023     		movs	r3, #0
 2929 0010 BB73     		strb	r3, [r7, #14]
 566:./mpu6050/mpu6050.c ****   error=i2c_read_7bit_base_byte_std(MPU6050_I2C,mpu->Address,MPU6050_CONFIG,&temp);
 2930              		.loc 1 566 9
 2931 0012 7B68     		ldr	r3, [r7, #4]
 2932 0014 1978     		ldrb	r1, [r3]	@ zero_extendqisi2
 2933 0016 07F10E03 		add	r3, r7, #14
 2934 001a 1A22     		movs	r2, #26
 2935 001c 0B48     		ldr	r0, .L199
 2936 001e FFF7FEFF 		bl	i2c_read_7bit_base_byte_std
 2937 0022 0346     		mov	r3, r0
 2938 0024 FB73     		strb	r3, [r7, #15]
 567:./mpu6050/mpu6050.c ****   if(error) return error;
 2939              		.loc 1 567 5
 2940 0026 FB7B     		ldrb	r3, [r7, #15]	@ zero_extendqisi2
 2941 0028 002B     		cmp	r3, #0
 2942 002a 01D0     		beq	.L196
 2943              		.loc 1 567 20 discriminator 1
 2944 002c FB7B     		ldrb	r3, [r7, #15]	@ zero_extendqisi2
 2945 002e 08E0     		b	.L198
 2946              	.L196:
 568:./mpu6050/mpu6050.c **** 	*data=((uint8_t)temp>>3) &0x03 ;
 2947              		.loc 1 568 27
 2948 0030 BB7B     		ldrb	r3, [r7, #14]	@ zero_extendqisi2
 2949 0032 DB08     		lsrs	r3, r3, #3
 2950 0034 DBB2     		uxtb	r3, r3
 2951 0036 03F00303 		and	r3, r3, #3
 2952 003a DAB2     		uxtb	r2, r3
 2953              		.loc 1 568 7
 2954 003c 3B68     		ldr	r3, [r7]
 2955 003e 1A70     		strb	r2, [r3]
 569:./mpu6050/mpu6050.c ****   	/* Return OK */
 570:./mpu6050/mpu6050.c **** 	return MPU6050_OK; //  or return I2C_OK;
 2956              		.loc 1 570 9
ARM GAS  C:\Users\SAMEER~1.ALM\AppData\Local\Temp\ccKQVuZd.s 			page 62


 2957 0040 0023     		movs	r3, #0
 2958              	.L198:
 571:./mpu6050/mpu6050.c **** }
 2959              		.loc 1 571 1 discriminator 1
 2960 0042 1846     		mov	r0, r3
 2961 0044 1037     		adds	r7, r7, #16
 2962              	.LCFI150:
 2963              		.cfi_def_cfa_offset 8
 2964 0046 BD46     		mov	sp, r7
 2965              	.LCFI151:
 2966              		.cfi_def_cfa_register 13
 2967              		@ sp needed
 2968 0048 80BD     		pop	{r7, pc}
 2969              	.L200:
 2970 004a 00BF     		.align	2
 2971              	.L199:
 2972 004c 00540040 		.word	1073763328
 2973              		.cfi_endproc
 2974              	.LFE62:
 2976              		.section	.text.mpu6050_get_lpf,"ax",%progbits
 2977              		.align	1
 2978              		.global	mpu6050_get_lpf
 2979              		.syntax unified
 2980              		.thumb
 2981              		.thumb_func
 2983              	mpu6050_get_lpf:
 2984              	.LFB63:
 572:./mpu6050/mpu6050.c **** //-------------------------------------------------------------------------------------------------
 573:./mpu6050/mpu6050.c **** uint8_t mpu6050_get_lpf(MPU6050_t* mpu,uint8_t* lpf)
 574:./mpu6050/mpu6050.c **** {
 2985              		.loc 1 574 1
 2986              		.cfi_startproc
 2987              		@ args = 0, pretend = 0, frame = 16
 2988              		@ frame_needed = 1, uses_anonymous_args = 0
 2989 0000 80B5     		push	{r7, lr}
 2990              	.LCFI152:
 2991              		.cfi_def_cfa_offset 8
 2992              		.cfi_offset 7, -8
 2993              		.cfi_offset 14, -4
 2994 0002 84B0     		sub	sp, sp, #16
 2995              	.LCFI153:
 2996              		.cfi_def_cfa_offset 24
 2997 0004 00AF     		add	r7, sp, #0
 2998              	.LCFI154:
 2999              		.cfi_def_cfa_register 7
 3000 0006 7860     		str	r0, [r7, #4]
 3001 0008 3960     		str	r1, [r7]
 575:./mpu6050/mpu6050.c **** 	/* read MPU6050_CONFIG register*/
 576:./mpu6050/mpu6050.c ****   uint8_t error=0, temp=0;	
 3002              		.loc 1 576 11
 3003 000a 0023     		movs	r3, #0
 3004 000c FB73     		strb	r3, [r7, #15]
 3005              		.loc 1 576 20
 3006 000e 0023     		movs	r3, #0
 3007 0010 BB73     		strb	r3, [r7, #14]
 577:./mpu6050/mpu6050.c ****   error=i2c_read_7bit_base_byte_std(MPU6050_I2C,mpu->Address,MPU6050_CONFIG,&temp);
 3008              		.loc 1 577 9
ARM GAS  C:\Users\SAMEER~1.ALM\AppData\Local\Temp\ccKQVuZd.s 			page 63


 3009 0012 7B68     		ldr	r3, [r7, #4]
 3010 0014 1978     		ldrb	r1, [r3]	@ zero_extendqisi2
 3011 0016 07F10E03 		add	r3, r7, #14
 3012 001a 1A22     		movs	r2, #26
 3013 001c 0A48     		ldr	r0, .L205
 3014 001e FFF7FEFF 		bl	i2c_read_7bit_base_byte_std
 3015 0022 0346     		mov	r3, r0
 3016 0024 FB73     		strb	r3, [r7, #15]
 578:./mpu6050/mpu6050.c ****   if(error) return error;
 3017              		.loc 1 578 5
 3018 0026 FB7B     		ldrb	r3, [r7, #15]	@ zero_extendqisi2
 3019 0028 002B     		cmp	r3, #0
 3020 002a 01D0     		beq	.L202
 3021              		.loc 1 578 20 discriminator 1
 3022 002c FB7B     		ldrb	r3, [r7, #15]	@ zero_extendqisi2
 3023 002e 06E0     		b	.L204
 3024              	.L202:
 579:./mpu6050/mpu6050.c **** 		*lpf=temp & 0x07 ;
 3025              		.loc 1 579 13
 3026 0030 BB7B     		ldrb	r3, [r7, #14]	@ zero_extendqisi2
 3027 0032 03F00703 		and	r3, r3, #7
 3028 0036 DAB2     		uxtb	r2, r3
 3029              		.loc 1 579 7
 3030 0038 3B68     		ldr	r3, [r7]
 3031 003a 1A70     		strb	r2, [r3]
 580:./mpu6050/mpu6050.c ****   	/* Return OK */
 581:./mpu6050/mpu6050.c **** 	return MPU6050_OK; //  or return I2C_OK;
 3032              		.loc 1 581 9
 3033 003c 0023     		movs	r3, #0
 3034              	.L204:
 582:./mpu6050/mpu6050.c **** }
 3035              		.loc 1 582 1 discriminator 1
 3036 003e 1846     		mov	r0, r3
 3037 0040 1037     		adds	r7, r7, #16
 3038              	.LCFI155:
 3039              		.cfi_def_cfa_offset 8
 3040 0042 BD46     		mov	sp, r7
 3041              	.LCFI156:
 3042              		.cfi_def_cfa_register 13
 3043              		@ sp needed
 3044 0044 80BD     		pop	{r7, pc}
 3045              	.L206:
 3046 0046 00BF     		.align	2
 3047              	.L205:
 3048 0048 00540040 		.word	1073763328
 3049              		.cfi_endproc
 3050              	.LFE63:
 3052              		.section	.text.mpu6050_get_hpf,"ax",%progbits
 3053              		.align	1
 3054              		.global	mpu6050_get_hpf
 3055              		.syntax unified
 3056              		.thumb
 3057              		.thumb_func
 3059              	mpu6050_get_hpf:
 3060              	.LFB64:
 583:./mpu6050/mpu6050.c **** //-------------------------------------------------------------------------------------------------
 584:./mpu6050/mpu6050.c **** uint8_t mpu6050_get_hpf(MPU6050_t* mpu,uint8_t* hpf)
ARM GAS  C:\Users\SAMEER~1.ALM\AppData\Local\Temp\ccKQVuZd.s 			page 64


 585:./mpu6050/mpu6050.c **** {
 3061              		.loc 1 585 1
 3062              		.cfi_startproc
 3063              		@ args = 0, pretend = 0, frame = 16
 3064              		@ frame_needed = 1, uses_anonymous_args = 0
 3065 0000 80B5     		push	{r7, lr}
 3066              	.LCFI157:
 3067              		.cfi_def_cfa_offset 8
 3068              		.cfi_offset 7, -8
 3069              		.cfi_offset 14, -4
 3070 0002 84B0     		sub	sp, sp, #16
 3071              	.LCFI158:
 3072              		.cfi_def_cfa_offset 24
 3073 0004 00AF     		add	r7, sp, #0
 3074              	.LCFI159:
 3075              		.cfi_def_cfa_register 7
 3076 0006 7860     		str	r0, [r7, #4]
 3077 0008 3960     		str	r1, [r7]
 586:./mpu6050/mpu6050.c ****   /* read MPU6050_ACCEL_CONFIG register*/
 587:./mpu6050/mpu6050.c ****   uint8_t error=0, temp=0;	
 3078              		.loc 1 587 11
 3079 000a 0023     		movs	r3, #0
 3080 000c FB73     		strb	r3, [r7, #15]
 3081              		.loc 1 587 20
 3082 000e 0023     		movs	r3, #0
 3083 0010 BB73     		strb	r3, [r7, #14]
 588:./mpu6050/mpu6050.c ****   error=i2c_read_7bit_base_byte_std(MPU6050_I2C,mpu->Address,MPU6050_ACCEL_CONFIG,&temp);
 3084              		.loc 1 588 9
 3085 0012 7B68     		ldr	r3, [r7, #4]
 3086 0014 1978     		ldrb	r1, [r3]	@ zero_extendqisi2
 3087 0016 07F10E03 		add	r3, r7, #14
 3088 001a 1C22     		movs	r2, #28
 3089 001c 0A48     		ldr	r0, .L211
 3090 001e FFF7FEFF 		bl	i2c_read_7bit_base_byte_std
 3091 0022 0346     		mov	r3, r0
 3092 0024 FB73     		strb	r3, [r7, #15]
 589:./mpu6050/mpu6050.c ****   if(error) return error;
 3093              		.loc 1 589 5
 3094 0026 FB7B     		ldrb	r3, [r7, #15]	@ zero_extendqisi2
 3095 0028 002B     		cmp	r3, #0
 3096 002a 01D0     		beq	.L208
 3097              		.loc 1 589 20 discriminator 1
 3098 002c FB7B     		ldrb	r3, [r7, #15]	@ zero_extendqisi2
 3099 002e 06E0     		b	.L210
 3100              	.L208:
 590:./mpu6050/mpu6050.c ****   *hpf=temp & 0x07 ;
 3101              		.loc 1 590 13
 3102 0030 BB7B     		ldrb	r3, [r7, #14]	@ zero_extendqisi2
 3103 0032 03F00703 		and	r3, r3, #7
 3104 0036 DAB2     		uxtb	r2, r3
 3105              		.loc 1 590 7
 3106 0038 3B68     		ldr	r3, [r7]
 3107 003a 1A70     		strb	r2, [r3]
 591:./mpu6050/mpu6050.c ****   /* Return OK */
 592:./mpu6050/mpu6050.c ****   return MPU6050_OK; //  or return I2C_OK;
 3108              		.loc 1 592 10
 3109 003c 0023     		movs	r3, #0
ARM GAS  C:\Users\SAMEER~1.ALM\AppData\Local\Temp\ccKQVuZd.s 			page 65


 3110              	.L210:
 593:./mpu6050/mpu6050.c **** }
 3111              		.loc 1 593 1 discriminator 1
 3112 003e 1846     		mov	r0, r3
 3113 0040 1037     		adds	r7, r7, #16
 3114              	.LCFI160:
 3115              		.cfi_def_cfa_offset 8
 3116 0042 BD46     		mov	sp, r7
 3117              	.LCFI161:
 3118              		.cfi_def_cfa_register 13
 3119              		@ sp needed
 3120 0044 80BD     		pop	{r7, pc}
 3121              	.L212:
 3122 0046 00BF     		.align	2
 3123              	.L211:
 3124 0048 00540040 		.word	1073763328
 3125              		.cfi_endproc
 3126              	.LFE64:
 3128              		.section	.text.mpu6050_getAccelRange,"ax",%progbits
 3129              		.align	1
 3130              		.global	mpu6050_getAccelRange
 3131              		.syntax unified
 3132              		.thumb
 3133              		.thumb_func
 3135              	mpu6050_getAccelRange:
 3136              	.LFB65:
 594:./mpu6050/mpu6050.c **** //-------------------------------------------------------------------------------------------------
 595:./mpu6050/mpu6050.c **** uint8_t mpu6050_getAccelRange(MPU6050_t* mpu,uint8_t * data)
 596:./mpu6050/mpu6050.c **** {
 3137              		.loc 1 596 1
 3138              		.cfi_startproc
 3139              		@ args = 0, pretend = 0, frame = 16
 3140              		@ frame_needed = 1, uses_anonymous_args = 0
 3141 0000 80B5     		push	{r7, lr}
 3142              	.LCFI162:
 3143              		.cfi_def_cfa_offset 8
 3144              		.cfi_offset 7, -8
 3145              		.cfi_offset 14, -4
 3146 0002 84B0     		sub	sp, sp, #16
 3147              	.LCFI163:
 3148              		.cfi_def_cfa_offset 24
 3149 0004 00AF     		add	r7, sp, #0
 3150              	.LCFI164:
 3151              		.cfi_def_cfa_register 7
 3152 0006 7860     		str	r0, [r7, #4]
 3153 0008 3960     		str	r1, [r7]
 597:./mpu6050/mpu6050.c ****   /* read MPU6050_ACCEL_CONFIG register*/
 598:./mpu6050/mpu6050.c ****   uint8_t error=0, temp=0;
 3154              		.loc 1 598 11
 3155 000a 0023     		movs	r3, #0
 3156 000c FB73     		strb	r3, [r7, #15]
 3157              		.loc 1 598 20
 3158 000e 0023     		movs	r3, #0
 3159 0010 BB73     		strb	r3, [r7, #14]
 599:./mpu6050/mpu6050.c **** 
 600:./mpu6050/mpu6050.c ****   error=i2c_read_7bit_base_byte_std(MPU6050_I2C,mpu->Address,MPU6050_ACCEL_CONFIG,&temp);
 3160              		.loc 1 600 9
ARM GAS  C:\Users\SAMEER~1.ALM\AppData\Local\Temp\ccKQVuZd.s 			page 66


 3161 0012 7B68     		ldr	r3, [r7, #4]
 3162 0014 1978     		ldrb	r1, [r3]	@ zero_extendqisi2
 3163 0016 07F10E03 		add	r3, r7, #14
 3164 001a 1C22     		movs	r2, #28
 3165 001c 0B48     		ldr	r0, .L217
 3166 001e FFF7FEFF 		bl	i2c_read_7bit_base_byte_std
 3167 0022 0346     		mov	r3, r0
 3168 0024 FB73     		strb	r3, [r7, #15]
 601:./mpu6050/mpu6050.c ****   if(error) return error;	
 3169              		.loc 1 601 5
 3170 0026 FB7B     		ldrb	r3, [r7, #15]	@ zero_extendqisi2
 3171 0028 002B     		cmp	r3, #0
 3172 002a 01D0     		beq	.L214
 3173              		.loc 1 601 20 discriminator 1
 3174 002c FB7B     		ldrb	r3, [r7, #15]	@ zero_extendqisi2
 3175 002e 08E0     		b	.L216
 3176              	.L214:
 602:./mpu6050/mpu6050.c ****   *data=((uint8_t)temp>>3) &0x03 ;
 3177              		.loc 1 602 28
 3178 0030 BB7B     		ldrb	r3, [r7, #14]	@ zero_extendqisi2
 3179 0032 DB08     		lsrs	r3, r3, #3
 3180 0034 DBB2     		uxtb	r3, r3
 3181 0036 03F00303 		and	r3, r3, #3
 3182 003a DAB2     		uxtb	r2, r3
 3183              		.loc 1 602 8
 3184 003c 3B68     		ldr	r3, [r7]
 3185 003e 1A70     		strb	r2, [r3]
 603:./mpu6050/mpu6050.c ****   	/* Return OK */
 604:./mpu6050/mpu6050.c **** 	return MPU6050_OK; //  or return I2C_OK;
 3186              		.loc 1 604 9
 3187 0040 0023     		movs	r3, #0
 3188              	.L216:
 605:./mpu6050/mpu6050.c **** }
 3189              		.loc 1 605 1 discriminator 1
 3190 0042 1846     		mov	r0, r3
 3191 0044 1037     		adds	r7, r7, #16
 3192              	.LCFI165:
 3193              		.cfi_def_cfa_offset 8
 3194 0046 BD46     		mov	sp, r7
 3195              	.LCFI166:
 3196              		.cfi_def_cfa_register 13
 3197              		@ sp needed
 3198 0048 80BD     		pop	{r7, pc}
 3199              	.L218:
 3200 004a 00BF     		.align	2
 3201              	.L217:
 3202 004c 00540040 		.word	1073763328
 3203              		.cfi_endproc
 3204              	.LFE65:
 3206              		.section	.text.mpu6050_getGyroRange,"ax",%progbits
 3207              		.align	1
 3208              		.global	mpu6050_getGyroRange
 3209              		.syntax unified
 3210              		.thumb
 3211              		.thumb_func
 3213              	mpu6050_getGyroRange:
 3214              	.LFB66:
ARM GAS  C:\Users\SAMEER~1.ALM\AppData\Local\Temp\ccKQVuZd.s 			page 67


 606:./mpu6050/mpu6050.c **** //-------------------------------------------------------------------------------------------------
 607:./mpu6050/mpu6050.c **** uint8_t mpu6050_getGyroRange(MPU6050_t* mpu,uint8_t *data)
 608:./mpu6050/mpu6050.c **** {
 3215              		.loc 1 608 1
 3216              		.cfi_startproc
 3217              		@ args = 0, pretend = 0, frame = 16
 3218              		@ frame_needed = 1, uses_anonymous_args = 0
 3219 0000 80B5     		push	{r7, lr}
 3220              	.LCFI167:
 3221              		.cfi_def_cfa_offset 8
 3222              		.cfi_offset 7, -8
 3223              		.cfi_offset 14, -4
 3224 0002 84B0     		sub	sp, sp, #16
 3225              	.LCFI168:
 3226              		.cfi_def_cfa_offset 24
 3227 0004 00AF     		add	r7, sp, #0
 3228              	.LCFI169:
 3229              		.cfi_def_cfa_register 7
 3230 0006 7860     		str	r0, [r7, #4]
 3231 0008 3960     		str	r1, [r7]
 609:./mpu6050/mpu6050.c ****   /* read MPU6050_GYRO_CONFIG register*/
 610:./mpu6050/mpu6050.c ****   uint8_t error=0, temp=0;	
 3232              		.loc 1 610 11
 3233 000a 0023     		movs	r3, #0
 3234 000c FB73     		strb	r3, [r7, #15]
 3235              		.loc 1 610 20
 3236 000e 0023     		movs	r3, #0
 3237 0010 BB73     		strb	r3, [r7, #14]
 611:./mpu6050/mpu6050.c ****   error=i2c_read_7bit_base_byte_std(MPU6050_I2C,mpu->Address,MPU6050_GYRO_CONFIG,&temp);
 3238              		.loc 1 611 9
 3239 0012 7B68     		ldr	r3, [r7, #4]
 3240 0014 1978     		ldrb	r1, [r3]	@ zero_extendqisi2
 3241 0016 07F10E03 		add	r3, r7, #14
 3242 001a 1B22     		movs	r2, #27
 3243 001c 0B48     		ldr	r0, .L223
 3244 001e FFF7FEFF 		bl	i2c_read_7bit_base_byte_std
 3245 0022 0346     		mov	r3, r0
 3246 0024 FB73     		strb	r3, [r7, #15]
 612:./mpu6050/mpu6050.c ****   if(error) return error;	
 3247              		.loc 1 612 5
 3248 0026 FB7B     		ldrb	r3, [r7, #15]	@ zero_extendqisi2
 3249 0028 002B     		cmp	r3, #0
 3250 002a 01D0     		beq	.L220
 3251              		.loc 1 612 20 discriminator 1
 3252 002c FB7B     		ldrb	r3, [r7, #15]	@ zero_extendqisi2
 3253 002e 08E0     		b	.L222
 3254              	.L220:
 613:./mpu6050/mpu6050.c ****   *data=((uint8_t)temp>>3) &0x03 ;
 3255              		.loc 1 613 28
 3256 0030 BB7B     		ldrb	r3, [r7, #14]	@ zero_extendqisi2
 3257 0032 DB08     		lsrs	r3, r3, #3
 3258 0034 DBB2     		uxtb	r3, r3
 3259 0036 03F00303 		and	r3, r3, #3
 3260 003a DAB2     		uxtb	r2, r3
 3261              		.loc 1 613 8
 3262 003c 3B68     		ldr	r3, [r7]
 3263 003e 1A70     		strb	r2, [r3]
ARM GAS  C:\Users\SAMEER~1.ALM\AppData\Local\Temp\ccKQVuZd.s 			page 68


 614:./mpu6050/mpu6050.c **** 
 615:./mpu6050/mpu6050.c ****   /* Return OK */
 616:./mpu6050/mpu6050.c ****   return MPU6050_OK; //  or return I2C_OK;
 3264              		.loc 1 616 10
 3265 0040 0023     		movs	r3, #0
 3266              	.L222:
 617:./mpu6050/mpu6050.c **** }
 3267              		.loc 1 617 1 discriminator 1
 3268 0042 1846     		mov	r0, r3
 3269 0044 1037     		adds	r7, r7, #16
 3270              	.LCFI170:
 3271              		.cfi_def_cfa_offset 8
 3272 0046 BD46     		mov	sp, r7
 3273              	.LCFI171:
 3274              		.cfi_def_cfa_register 13
 3275              		@ sp needed
 3276 0048 80BD     		pop	{r7, pc}
 3277              	.L224:
 3278 004a 00BF     		.align	2
 3279              	.L223:
 3280 004c 00540040 		.word	1073763328
 3281              		.cfi_endproc
 3282              	.LFE66:
 3284              		.section	.text.mpu6050_getMotionInterruptStatus,"ax",%progbits
 3285              		.align	1
 3286              		.global	mpu6050_getMotionInterruptStatus
 3287              		.syntax unified
 3288              		.thumb
 3289              		.thumb_func
 3291              	mpu6050_getMotionInterruptStatus:
 3292              	.LFB67:
 618:./mpu6050/mpu6050.c **** //-------------------------------------------------------------------------------------------------
 619:./mpu6050/mpu6050.c **** uint8_t mpu6050_getMotionInterruptStatus(MPU6050_t* mpu,uint8_t *MotionStatus)
 620:./mpu6050/mpu6050.c **** {
 3293              		.loc 1 620 1
 3294              		.cfi_startproc
 3295              		@ args = 0, pretend = 0, frame = 16
 3296              		@ frame_needed = 1, uses_anonymous_args = 0
 3297 0000 80B5     		push	{r7, lr}
 3298              	.LCFI172:
 3299              		.cfi_def_cfa_offset 8
 3300              		.cfi_offset 7, -8
 3301              		.cfi_offset 14, -4
 3302 0002 84B0     		sub	sp, sp, #16
 3303              	.LCFI173:
 3304              		.cfi_def_cfa_offset 24
 3305 0004 00AF     		add	r7, sp, #0
 3306              	.LCFI174:
 3307              		.cfi_def_cfa_register 7
 3308 0006 7860     		str	r0, [r7, #4]
 3309 0008 3960     		str	r1, [r7]
 621:./mpu6050/mpu6050.c **** 	uint8_t read,error=0;	
 3310              		.loc 1 621 15
 3311 000a 0023     		movs	r3, #0
 3312 000c FB73     		strb	r3, [r7, #15]
 622:./mpu6050/mpu6050.c **** 	/* Read interrupts status register */
 623:./mpu6050/mpu6050.c ****   error=i2c_read_7bit_base_byte_std(MPU6050_I2C, mpu->Address, MPU6050_INT_STATUS, &read);
ARM GAS  C:\Users\SAMEER~1.ALM\AppData\Local\Temp\ccKQVuZd.s 			page 69


 3313              		.loc 1 623 9
 3314 000e 7B68     		ldr	r3, [r7, #4]
 3315 0010 1978     		ldrb	r1, [r3]	@ zero_extendqisi2
 3316 0012 07F10E03 		add	r3, r7, #14
 3317 0016 3A22     		movs	r2, #58
 3318 0018 0B48     		ldr	r0, .L229
 3319 001a FFF7FEFF 		bl	i2c_read_7bit_base_byte_std
 3320 001e 0346     		mov	r3, r0
 3321 0020 FB73     		strb	r3, [r7, #15]
 624:./mpu6050/mpu6050.c ****   if(error) return error;	
 3322              		.loc 1 624 5
 3323 0022 FB7B     		ldrb	r3, [r7, #15]	@ zero_extendqisi2
 3324 0024 002B     		cmp	r3, #0
 3325 0026 01D0     		beq	.L226
 3326              		.loc 1 624 20 discriminator 1
 3327 0028 FB7B     		ldrb	r3, [r7, #15]	@ zero_extendqisi2
 3328 002a 08E0     		b	.L228
 3329              	.L226:
 625:./mpu6050/mpu6050.c **** 	
 626:./mpu6050/mpu6050.c **** 	*MotionStatus= (read & 0x40) >> 6;
 3330              		.loc 1 626 31
 3331 002c BB7B     		ldrb	r3, [r7, #14]	@ zero_extendqisi2
 3332 002e 9B11     		asrs	r3, r3, #6
 3333 0030 DBB2     		uxtb	r3, r3
 3334 0032 03F00103 		and	r3, r3, #1
 3335 0036 DAB2     		uxtb	r2, r3
 3336              		.loc 1 626 15
 3337 0038 3B68     		ldr	r3, [r7]
 3338 003a 1A70     		strb	r2, [r3]
 627:./mpu6050/mpu6050.c **** 
 628:./mpu6050/mpu6050.c **** 	 /* Return OK */
 629:./mpu6050/mpu6050.c ****   return MPU6050_OK; //  or return I2C_OK;
 3339              		.loc 1 629 10
 3340 003c 0023     		movs	r3, #0
 3341              	.L228:
 630:./mpu6050/mpu6050.c **** }
 3342              		.loc 1 630 1 discriminator 1
 3343 003e 1846     		mov	r0, r3
 3344 0040 1037     		adds	r7, r7, #16
 3345              	.LCFI175:
 3346              		.cfi_def_cfa_offset 8
 3347 0042 BD46     		mov	sp, r7
 3348              	.LCFI176:
 3349              		.cfi_def_cfa_register 13
 3350              		@ sp needed
 3351 0044 80BD     		pop	{r7, pc}
 3352              	.L230:
 3353 0046 00BF     		.align	2
 3354              	.L229:
 3355 0048 00540040 		.word	1073763328
 3356              		.cfi_endproc
 3357              	.LFE67:
 3359              		.section	.text.mpu6050_clear_All,"ax",%progbits
 3360              		.align	1
 3361              		.global	mpu6050_clear_All
 3362              		.syntax unified
 3363              		.thumb
ARM GAS  C:\Users\SAMEER~1.ALM\AppData\Local\Temp\ccKQVuZd.s 			page 70


 3364              		.thumb_func
 3366              	mpu6050_clear_All:
 3367              	.LFB68:
 631:./mpu6050/mpu6050.c **** //-------------------------------------------------------------------------------------------------
 632:./mpu6050/mpu6050.c **** //********************************************************************************************
 633:./mpu6050/mpu6050.c **** //
 634:./mpu6050/mpu6050.c **** //   data manipulation  Methods
 635:./mpu6050/mpu6050.c **** //
 636:./mpu6050/mpu6050.c **** //********************************************************************************************
 637:./mpu6050/mpu6050.c **** void mpu6050_clear_All(MPU6050_t* mpu)
 638:./mpu6050/mpu6050.c **** {
 3368              		.loc 1 638 1
 3369              		.cfi_startproc
 3370              		@ args = 0, pretend = 0, frame = 16
 3371              		@ frame_needed = 1, uses_anonymous_args = 0
 3372              		@ link register save eliminated.
 3373 0000 80B4     		push	{r7}
 3374              	.LCFI177:
 3375              		.cfi_def_cfa_offset 4
 3376              		.cfi_offset 7, -4
 3377 0002 85B0     		sub	sp, sp, #20
 3378              	.LCFI178:
 3379              		.cfi_def_cfa_offset 24
 3380 0004 00AF     		add	r7, sp, #0
 3381              	.LCFI179:
 3382              		.cfi_def_cfa_register 7
 3383 0006 7860     		str	r0, [r7, #4]
 639:./mpu6050/mpu6050.c **** 	uint8_t i=0;
 3384              		.loc 1 639 10
 3385 0008 0023     		movs	r3, #0
 3386 000a FB73     		strb	r3, [r7, #15]
 640:./mpu6050/mpu6050.c **** 	for(i=0;i<MPU6050_RAW_ALL_LEN;i++)
 3387              		.loc 1 640 7
 3388 000c 0023     		movs	r3, #0
 3389 000e FB73     		strb	r3, [r7, #15]
 3390              		.loc 1 640 2
 3391 0010 07E0     		b	.L232
 3392              	.L233:
 641:./mpu6050/mpu6050.c ****  		mpu->data.Array[i]=0;
 3393              		.loc 1 641 19 discriminator 3
 3394 0012 FB7B     		ldrb	r3, [r7, #15]	@ zero_extendqisi2
 3395              		.loc 1 641 22 discriminator 3
 3396 0014 7A68     		ldr	r2, [r7, #4]
 3397 0016 1344     		add	r3, r3, r2
 3398 0018 0022     		movs	r2, #0
 3399 001a 5A70     		strb	r2, [r3, #1]
 640:./mpu6050/mpu6050.c **** 	for(i=0;i<MPU6050_RAW_ALL_LEN;i++)
 3400              		.loc 1 640 33 discriminator 3
 3401 001c FB7B     		ldrb	r3, [r7, #15]	@ zero_extendqisi2
 3402 001e 0133     		adds	r3, r3, #1
 3403 0020 FB73     		strb	r3, [r7, #15]
 3404              	.L232:
 640:./mpu6050/mpu6050.c **** 	for(i=0;i<MPU6050_RAW_ALL_LEN;i++)
 3405              		.loc 1 640 2 discriminator 1
 3406 0022 FB7B     		ldrb	r3, [r7, #15]	@ zero_extendqisi2
 3407 0024 0D2B     		cmp	r3, #13
 3408 0026 F4D9     		bls	.L233
ARM GAS  C:\Users\SAMEER~1.ALM\AppData\Local\Temp\ccKQVuZd.s 			page 71


 642:./mpu6050/mpu6050.c **** 	
 643:./mpu6050/mpu6050.c **** 	mpu->Accelerometer_nX=0;
 3409              		.loc 1 643 23
 3410 0028 7B68     		ldr	r3, [r7, #4]
 3411 002a 0022     		movs	r2, #0
 3412 002c 1A82     		strh	r2, [r3, #16]	@ movhi
 644:./mpu6050/mpu6050.c ****  	mpu->Accelerometer_nY=0;
 3413              		.loc 1 644 24
 3414 002e 7B68     		ldr	r3, [r7, #4]
 3415 0030 0022     		movs	r2, #0
 3416 0032 5A82     		strh	r2, [r3, #18]	@ movhi
 645:./mpu6050/mpu6050.c ****  	mpu->Accelerometer_nX=0;	
 3417              		.loc 1 645 24
 3418 0034 7B68     		ldr	r3, [r7, #4]
 3419 0036 0022     		movs	r2, #0
 3420 0038 1A82     		strh	r2, [r3, #16]	@ movhi
 646:./mpu6050/mpu6050.c **** 	mpu->Gyroscope_nX=0;
 3421              		.loc 1 646 19
 3422 003a 7B68     		ldr	r3, [r7, #4]
 3423 003c 0022     		movs	r2, #0
 3424 003e DA82     		strh	r2, [r3, #22]	@ movhi
 647:./mpu6050/mpu6050.c ****  	mpu->Gyroscope_nY=0;
 3425              		.loc 1 647 20
 3426 0040 7B68     		ldr	r3, [r7, #4]
 3427 0042 0022     		movs	r2, #0
 3428 0044 1A83     		strh	r2, [r3, #24]	@ movhi
 648:./mpu6050/mpu6050.c ****  	mpu->Gyroscope_nZ=0;
 3429              		.loc 1 648 20
 3430 0046 7B68     		ldr	r3, [r7, #4]
 3431 0048 0022     		movs	r2, #0
 3432 004a 5A83     		strh	r2, [r3, #26]	@ movhi
 649:./mpu6050/mpu6050.c **** 	
 650:./mpu6050/mpu6050.c **** 	mpu->Accel_X=0.0f;
 3433              		.loc 1 650 14
 3434 004c 7B68     		ldr	r3, [r7, #4]
 3435 004e 4FF00002 		mov	r2, #0
 3436 0052 5A62     		str	r2, [r3, #36]	@ float
 651:./mpu6050/mpu6050.c ****     mpu->Accel_Y=0.0f;
 3437              		.loc 1 651 17
 3438 0054 7B68     		ldr	r3, [r7, #4]
 3439 0056 4FF00002 		mov	r2, #0
 3440 005a 9A62     		str	r2, [r3, #40]	@ float
 652:./mpu6050/mpu6050.c **** 	mpu->Accel_Z=0.0f;
 3441              		.loc 1 652 14
 3442 005c 7B68     		ldr	r3, [r7, #4]
 3443 005e 4FF00002 		mov	r2, #0
 3444 0062 DA62     		str	r2, [r3, #44]	@ float
 653:./mpu6050/mpu6050.c **** 	mpu->Gyro_X=0.0f;
 3445              		.loc 1 653 13
 3446 0064 7B68     		ldr	r3, [r7, #4]
 3447 0066 4FF00002 		mov	r2, #0
 3448 006a 1A63     		str	r2, [r3, #48]	@ float
 654:./mpu6050/mpu6050.c **** 	mpu->Gyro_Y=0.0f;
 3449              		.loc 1 654 13
 3450 006c 7B68     		ldr	r3, [r7, #4]
 3451 006e 4FF00002 		mov	r2, #0
 3452 0072 5A63     		str	r2, [r3, #52]	@ float
ARM GAS  C:\Users\SAMEER~1.ALM\AppData\Local\Temp\ccKQVuZd.s 			page 72


 655:./mpu6050/mpu6050.c **** 	mpu->Gyro_Z=0.0f;
 3453              		.loc 1 655 13
 3454 0074 7B68     		ldr	r3, [r7, #4]
 3455 0076 4FF00002 		mov	r2, #0
 3456 007a 9A63     		str	r2, [r3, #56]	@ float
 656:./mpu6050/mpu6050.c **** 
 657:./mpu6050/mpu6050.c **** 	mpu->Accel_gr_X=0.0f;
 3457              		.loc 1 657 17
 3458 007c 7B68     		ldr	r3, [r7, #4]
 3459 007e 4FF00002 		mov	r2, #0
 3460 0082 DA63     		str	r2, [r3, #60]	@ float
 658:./mpu6050/mpu6050.c ****     mpu->Accel_gr_X=0.0f;
 3461              		.loc 1 658 20
 3462 0084 7B68     		ldr	r3, [r7, #4]
 3463 0086 4FF00002 		mov	r2, #0
 3464 008a DA63     		str	r2, [r3, #60]	@ float
 659:./mpu6050/mpu6050.c **** 	mpu->Accel_gr_Z=0.0f;
 3465              		.loc 1 659 17
 3466 008c 7B68     		ldr	r3, [r7, #4]
 3467 008e 4FF00002 		mov	r2, #0
 3468 0092 5A64     		str	r2, [r3, #68]	@ float
 660:./mpu6050/mpu6050.c **** 	mpu->Gyro_rd_X=0.0f;
 3469              		.loc 1 660 16
 3470 0094 7B68     		ldr	r3, [r7, #4]
 3471 0096 4FF00002 		mov	r2, #0
 3472 009a 9A64     		str	r2, [r3, #72]	@ float
 661:./mpu6050/mpu6050.c **** 	mpu->Gyro_rd_Y=0.0f;
 3473              		.loc 1 661 16
 3474 009c 7B68     		ldr	r3, [r7, #4]
 3475 009e 4FF00002 		mov	r2, #0
 3476 00a2 DA64     		str	r2, [r3, #76]	@ float
 662:./mpu6050/mpu6050.c **** 	mpu->Gyro_rd_Z=0.0f;
 3477              		.loc 1 662 16
 3478 00a4 7B68     		ldr	r3, [r7, #4]
 3479 00a6 4FF00002 		mov	r2, #0
 3480 00aa 1A65     		str	r2, [r3, #80]	@ float
 663:./mpu6050/mpu6050.c **** 
 664:./mpu6050/mpu6050.c **** 	mpu->Temperature=0.0f;
 3481              		.loc 1 664 18
 3482 00ac 7B68     		ldr	r3, [r7, #4]
 3483 00ae 4FF00002 		mov	r2, #0
 3484 00b2 5A65     		str	r2, [r3, #84]	@ float
 665:./mpu6050/mpu6050.c **** 
 666:./mpu6050/mpu6050.c **** }
 3485              		.loc 1 666 1
 3486 00b4 00BF     		nop
 3487 00b6 1437     		adds	r7, r7, #20
 3488              	.LCFI180:
 3489              		.cfi_def_cfa_offset 4
 3490 00b8 BD46     		mov	sp, r7
 3491              	.LCFI181:
 3492              		.cfi_def_cfa_register 13
 3493              		@ sp needed
 3494 00ba 80BC     		pop	{r7}
 3495              	.LCFI182:
 3496              		.cfi_restore 7
 3497              		.cfi_def_cfa_offset 0
ARM GAS  C:\Users\SAMEER~1.ALM\AppData\Local\Temp\ccKQVuZd.s 			page 73


 3498 00bc 7047     		bx	lr
 3499              		.cfi_endproc
 3500              	.LFE68:
 3502              		.section	.text.mpu6050_clear_Accelometer,"ax",%progbits
 3503              		.align	1
 3504              		.global	mpu6050_clear_Accelometer
 3505              		.syntax unified
 3506              		.thumb
 3507              		.thumb_func
 3509              	mpu6050_clear_Accelometer:
 3510              	.LFB69:
 667:./mpu6050/mpu6050.c **** //-------------------------------------------------------------------------------------------
 668:./mpu6050/mpu6050.c **** void mpu6050_clear_Accelometer(MPU6050_t* mpu)
 669:./mpu6050/mpu6050.c **** {
 3511              		.loc 1 669 1
 3512              		.cfi_startproc
 3513              		@ args = 0, pretend = 0, frame = 16
 3514              		@ frame_needed = 1, uses_anonymous_args = 0
 3515              		@ link register save eliminated.
 3516 0000 80B4     		push	{r7}
 3517              	.LCFI183:
 3518              		.cfi_def_cfa_offset 4
 3519              		.cfi_offset 7, -4
 3520 0002 85B0     		sub	sp, sp, #20
 3521              	.LCFI184:
 3522              		.cfi_def_cfa_offset 24
 3523 0004 00AF     		add	r7, sp, #0
 3524              	.LCFI185:
 3525              		.cfi_def_cfa_register 7
 3526 0006 7860     		str	r0, [r7, #4]
 670:./mpu6050/mpu6050.c **** 	uint8_t i=0;
 3527              		.loc 1 670 10
 3528 0008 0023     		movs	r3, #0
 3529 000a FB73     		strb	r3, [r7, #15]
 671:./mpu6050/mpu6050.c ****  	for(i=0;i<MPU6050_RAW_ACCEL_LEN;i++)
 3530              		.loc 1 671 8
 3531 000c 0023     		movs	r3, #0
 3532 000e FB73     		strb	r3, [r7, #15]
 3533              		.loc 1 671 3
 3534 0010 07E0     		b	.L235
 3535              	.L236:
 672:./mpu6050/mpu6050.c ****  		mpu->data.Array[i+MPU6050_RAW_ACCEL_Base]=0;
 3536              		.loc 1 672 21 discriminator 3
 3537 0012 FB7B     		ldrb	r3, [r7, #15]	@ zero_extendqisi2
 3538              		.loc 1 672 45 discriminator 3
 3539 0014 7A68     		ldr	r2, [r7, #4]
 3540 0016 1344     		add	r3, r3, r2
 3541 0018 0022     		movs	r2, #0
 3542 001a 5A70     		strb	r2, [r3, #1]
 671:./mpu6050/mpu6050.c ****  	for(i=0;i<MPU6050_RAW_ACCEL_LEN;i++)
 3543              		.loc 1 671 36 discriminator 3
 3544 001c FB7B     		ldrb	r3, [r7, #15]	@ zero_extendqisi2
 3545 001e 0133     		adds	r3, r3, #1
 3546 0020 FB73     		strb	r3, [r7, #15]
 3547              	.L235:
 671:./mpu6050/mpu6050.c ****  	for(i=0;i<MPU6050_RAW_ACCEL_LEN;i++)
 3548              		.loc 1 671 3 discriminator 1
ARM GAS  C:\Users\SAMEER~1.ALM\AppData\Local\Temp\ccKQVuZd.s 			page 74


 3549 0022 FB7B     		ldrb	r3, [r7, #15]	@ zero_extendqisi2
 3550 0024 052B     		cmp	r3, #5
 3551 0026 F4D9     		bls	.L236
 673:./mpu6050/mpu6050.c **** 
 674:./mpu6050/mpu6050.c ****  	mpu->Accelerometer_nX=0;
 3552              		.loc 1 674 24
 3553 0028 7B68     		ldr	r3, [r7, #4]
 3554 002a 0022     		movs	r2, #0
 3555 002c 1A82     		strh	r2, [r3, #16]	@ movhi
 675:./mpu6050/mpu6050.c ****  	mpu->Accelerometer_nY=0;
 3556              		.loc 1 675 24
 3557 002e 7B68     		ldr	r3, [r7, #4]
 3558 0030 0022     		movs	r2, #0
 3559 0032 5A82     		strh	r2, [r3, #18]	@ movhi
 676:./mpu6050/mpu6050.c ****  	mpu->Accelerometer_nX=0;
 3560              		.loc 1 676 24
 3561 0034 7B68     		ldr	r3, [r7, #4]
 3562 0036 0022     		movs	r2, #0
 3563 0038 1A82     		strh	r2, [r3, #16]	@ movhi
 677:./mpu6050/mpu6050.c **** 	mpu->Accel_X=0.0f;
 3564              		.loc 1 677 14
 3565 003a 7B68     		ldr	r3, [r7, #4]
 3566 003c 4FF00002 		mov	r2, #0
 3567 0040 5A62     		str	r2, [r3, #36]	@ float
 678:./mpu6050/mpu6050.c ****  	mpu->Accel_Y=0.0f;
 3568              		.loc 1 678 15
 3569 0042 7B68     		ldr	r3, [r7, #4]
 3570 0044 4FF00002 		mov	r2, #0
 3571 0048 9A62     		str	r2, [r3, #40]	@ float
 679:./mpu6050/mpu6050.c **** 	mpu->Accel_Z=0.0f;
 3572              		.loc 1 679 14
 3573 004a 7B68     		ldr	r3, [r7, #4]
 3574 004c 4FF00002 		mov	r2, #0
 3575 0050 DA62     		str	r2, [r3, #44]	@ float
 680:./mpu6050/mpu6050.c **** 	mpu->Accel_gr_X=0.0f;
 3576              		.loc 1 680 17
 3577 0052 7B68     		ldr	r3, [r7, #4]
 3578 0054 4FF00002 		mov	r2, #0
 3579 0058 DA63     		str	r2, [r3, #60]	@ float
 681:./mpu6050/mpu6050.c ****     mpu->Accel_gr_X=0.0f;
 3580              		.loc 1 681 20
 3581 005a 7B68     		ldr	r3, [r7, #4]
 3582 005c 4FF00002 		mov	r2, #0
 3583 0060 DA63     		str	r2, [r3, #60]	@ float
 682:./mpu6050/mpu6050.c **** 	mpu->Accel_gr_Z=0.0f;
 3584              		.loc 1 682 17
 3585 0062 7B68     		ldr	r3, [r7, #4]
 3586 0064 4FF00002 		mov	r2, #0
 3587 0068 5A64     		str	r2, [r3, #68]	@ float
 683:./mpu6050/mpu6050.c **** }
 3588              		.loc 1 683 1
 3589 006a 00BF     		nop
 3590 006c 1437     		adds	r7, r7, #20
 3591              	.LCFI186:
 3592              		.cfi_def_cfa_offset 4
 3593 006e BD46     		mov	sp, r7
 3594              	.LCFI187:
ARM GAS  C:\Users\SAMEER~1.ALM\AppData\Local\Temp\ccKQVuZd.s 			page 75


 3595              		.cfi_def_cfa_register 13
 3596              		@ sp needed
 3597 0070 80BC     		pop	{r7}
 3598              	.LCFI188:
 3599              		.cfi_restore 7
 3600              		.cfi_def_cfa_offset 0
 3601 0072 7047     		bx	lr
 3602              		.cfi_endproc
 3603              	.LFE69:
 3605              		.section	.text.mpu6050_clear_Gyroscope,"ax",%progbits
 3606              		.align	1
 3607              		.global	mpu6050_clear_Gyroscope
 3608              		.syntax unified
 3609              		.thumb
 3610              		.thumb_func
 3612              	mpu6050_clear_Gyroscope:
 3613              	.LFB70:
 684:./mpu6050/mpu6050.c **** //-------------------------------------------------------------------------------------------
 685:./mpu6050/mpu6050.c **** void mpu6050_clear_Gyroscope(MPU6050_t* mpu)
 686:./mpu6050/mpu6050.c **** {
 3614              		.loc 1 686 1
 3615              		.cfi_startproc
 3616              		@ args = 0, pretend = 0, frame = 16
 3617              		@ frame_needed = 1, uses_anonymous_args = 0
 3618              		@ link register save eliminated.
 3619 0000 80B4     		push	{r7}
 3620              	.LCFI189:
 3621              		.cfi_def_cfa_offset 4
 3622              		.cfi_offset 7, -4
 3623 0002 85B0     		sub	sp, sp, #20
 3624              	.LCFI190:
 3625              		.cfi_def_cfa_offset 24
 3626 0004 00AF     		add	r7, sp, #0
 3627              	.LCFI191:
 3628              		.cfi_def_cfa_register 7
 3629 0006 7860     		str	r0, [r7, #4]
 687:./mpu6050/mpu6050.c **** 	uint8_t i=0;
 3630              		.loc 1 687 10
 3631 0008 0023     		movs	r3, #0
 3632 000a FB73     		strb	r3, [r7, #15]
 688:./mpu6050/mpu6050.c ****  	for(i=0;i<MPU6050_RAW_GYRO_LEN;i++)
 3633              		.loc 1 688 8
 3634 000c 0023     		movs	r3, #0
 3635 000e FB73     		strb	r3, [r7, #15]
 3636              		.loc 1 688 3
 3637 0010 08E0     		b	.L238
 3638              	.L239:
 689:./mpu6050/mpu6050.c ****  		mpu->data.Array[i+MPU6050_RAW_GYRO_Base]=0;
 3639              		.loc 1 689 21 discriminator 3
 3640 0012 FB7B     		ldrb	r3, [r7, #15]	@ zero_extendqisi2
 3641 0014 0833     		adds	r3, r3, #8
 3642              		.loc 1 689 44 discriminator 3
 3643 0016 7A68     		ldr	r2, [r7, #4]
 3644 0018 1344     		add	r3, r3, r2
 3645 001a 0022     		movs	r2, #0
 3646 001c 5A70     		strb	r2, [r3, #1]
 688:./mpu6050/mpu6050.c ****  	for(i=0;i<MPU6050_RAW_GYRO_LEN;i++)
ARM GAS  C:\Users\SAMEER~1.ALM\AppData\Local\Temp\ccKQVuZd.s 			page 76


 3647              		.loc 1 688 35 discriminator 3
 3648 001e FB7B     		ldrb	r3, [r7, #15]	@ zero_extendqisi2
 3649 0020 0133     		adds	r3, r3, #1
 3650 0022 FB73     		strb	r3, [r7, #15]
 3651              	.L238:
 688:./mpu6050/mpu6050.c ****  	for(i=0;i<MPU6050_RAW_GYRO_LEN;i++)
 3652              		.loc 1 688 3 discriminator 1
 3653 0024 FB7B     		ldrb	r3, [r7, #15]	@ zero_extendqisi2
 3654 0026 052B     		cmp	r3, #5
 3655 0028 F3D9     		bls	.L239
 690:./mpu6050/mpu6050.c **** 
 691:./mpu6050/mpu6050.c ****  	mpu->Gyroscope_nX=0;
 3656              		.loc 1 691 20
 3657 002a 7B68     		ldr	r3, [r7, #4]
 3658 002c 0022     		movs	r2, #0
 3659 002e DA82     		strh	r2, [r3, #22]	@ movhi
 692:./mpu6050/mpu6050.c ****  	mpu->Gyroscope_nY=0;
 3660              		.loc 1 692 20
 3661 0030 7B68     		ldr	r3, [r7, #4]
 3662 0032 0022     		movs	r2, #0
 3663 0034 1A83     		strh	r2, [r3, #24]	@ movhi
 693:./mpu6050/mpu6050.c ****  	mpu->Gyroscope_nZ=0;
 3664              		.loc 1 693 20
 3665 0036 7B68     		ldr	r3, [r7, #4]
 3666 0038 0022     		movs	r2, #0
 3667 003a 5A83     		strh	r2, [r3, #26]	@ movhi
 694:./mpu6050/mpu6050.c **** 	mpu->Gyro_X=0.0f;
 3668              		.loc 1 694 13
 3669 003c 7B68     		ldr	r3, [r7, #4]
 3670 003e 4FF00002 		mov	r2, #0
 3671 0042 1A63     		str	r2, [r3, #48]	@ float
 695:./mpu6050/mpu6050.c **** 	mpu->Gyro_Y=0.0f;
 3672              		.loc 1 695 13
 3673 0044 7B68     		ldr	r3, [r7, #4]
 3674 0046 4FF00002 		mov	r2, #0
 3675 004a 5A63     		str	r2, [r3, #52]	@ float
 696:./mpu6050/mpu6050.c **** 	mpu->Gyro_Z=0.0f;
 3676              		.loc 1 696 13
 3677 004c 7B68     		ldr	r3, [r7, #4]
 3678 004e 4FF00002 		mov	r2, #0
 3679 0052 9A63     		str	r2, [r3, #56]	@ float
 697:./mpu6050/mpu6050.c **** 	mpu->Gyro_rd_X=0.0f;
 3680              		.loc 1 697 16
 3681 0054 7B68     		ldr	r3, [r7, #4]
 3682 0056 4FF00002 		mov	r2, #0
 3683 005a 9A64     		str	r2, [r3, #72]	@ float
 698:./mpu6050/mpu6050.c **** 	mpu->Gyro_rd_Y=0.0f;
 3684              		.loc 1 698 16
 3685 005c 7B68     		ldr	r3, [r7, #4]
 3686 005e 4FF00002 		mov	r2, #0
 3687 0062 DA64     		str	r2, [r3, #76]	@ float
 699:./mpu6050/mpu6050.c **** 	mpu->Gyro_rd_Z=0.0f;
 3688              		.loc 1 699 16
 3689 0064 7B68     		ldr	r3, [r7, #4]
 3690 0066 4FF00002 		mov	r2, #0
 3691 006a 1A65     		str	r2, [r3, #80]	@ float
 700:./mpu6050/mpu6050.c **** }
ARM GAS  C:\Users\SAMEER~1.ALM\AppData\Local\Temp\ccKQVuZd.s 			page 77


 3692              		.loc 1 700 1
 3693 006c 00BF     		nop
 3694 006e 1437     		adds	r7, r7, #20
 3695              	.LCFI192:
 3696              		.cfi_def_cfa_offset 4
 3697 0070 BD46     		mov	sp, r7
 3698              	.LCFI193:
 3699              		.cfi_def_cfa_register 13
 3700              		@ sp needed
 3701 0072 80BC     		pop	{r7}
 3702              	.LCFI194:
 3703              		.cfi_restore 7
 3704              		.cfi_def_cfa_offset 0
 3705 0074 7047     		bx	lr
 3706              		.cfi_endproc
 3707              	.LFE70:
 3709              		.section	.text.mpu6050_clear_Temperature,"ax",%progbits
 3710              		.align	1
 3711              		.global	mpu6050_clear_Temperature
 3712              		.syntax unified
 3713              		.thumb
 3714              		.thumb_func
 3716              	mpu6050_clear_Temperature:
 3717              	.LFB71:
 701:./mpu6050/mpu6050.c **** //-------------------------------------------------------------------------------------------
 702:./mpu6050/mpu6050.c **** void mpu6050_clear_Temperature(MPU6050_t* mpu)
 703:./mpu6050/mpu6050.c **** {
 3718              		.loc 1 703 1
 3719              		.cfi_startproc
 3720              		@ args = 0, pretend = 0, frame = 8
 3721              		@ frame_needed = 1, uses_anonymous_args = 0
 3722              		@ link register save eliminated.
 3723 0000 80B4     		push	{r7}
 3724              	.LCFI195:
 3725              		.cfi_def_cfa_offset 4
 3726              		.cfi_offset 7, -4
 3727 0002 83B0     		sub	sp, sp, #12
 3728              	.LCFI196:
 3729              		.cfi_def_cfa_offset 16
 3730 0004 00AF     		add	r7, sp, #0
 3731              	.LCFI197:
 3732              		.cfi_def_cfa_register 7
 3733 0006 7860     		str	r0, [r7, #4]
 704:./mpu6050/mpu6050.c **** 	mpu->data.temp_high=0;
 3734              		.loc 1 704 21
 3735 0008 7B68     		ldr	r3, [r7, #4]
 3736 000a 0022     		movs	r2, #0
 3737 000c DA71     		strb	r2, [r3, #7]
 705:./mpu6050/mpu6050.c **** 	mpu->data.temp_low=0;
 3738              		.loc 1 705 20
 3739 000e 7B68     		ldr	r3, [r7, #4]
 3740 0010 0022     		movs	r2, #0
 3741 0012 1A72     		strb	r2, [r3, #8]
 706:./mpu6050/mpu6050.c **** 	mpu->Temperature=0.0f;
 3742              		.loc 1 706 18
 3743 0014 7B68     		ldr	r3, [r7, #4]
 3744 0016 4FF00002 		mov	r2, #0
ARM GAS  C:\Users\SAMEER~1.ALM\AppData\Local\Temp\ccKQVuZd.s 			page 78


 3745 001a 5A65     		str	r2, [r3, #84]	@ float
 707:./mpu6050/mpu6050.c **** }
 3746              		.loc 1 707 1
 3747 001c 00BF     		nop
 3748 001e 0C37     		adds	r7, r7, #12
 3749              	.LCFI198:
 3750              		.cfi_def_cfa_offset 4
 3751 0020 BD46     		mov	sp, r7
 3752              	.LCFI199:
 3753              		.cfi_def_cfa_register 13
 3754              		@ sp needed
 3755 0022 80BC     		pop	{r7}
 3756              	.LCFI200:
 3757              		.cfi_restore 7
 3758              		.cfi_def_cfa_offset 0
 3759 0024 7047     		bx	lr
 3760              		.cfi_endproc
 3761              	.LFE71:
 3763              		.global	__aeabi_i2f
 3764              		.global	__aeabi_fdiv
 3765              		.global	__aeabi_fmul
 3766              		.section	.text.mpu6050_read_Accelerometer,"ax",%progbits
 3767              		.align	1
 3768              		.global	mpu6050_read_Accelerometer
 3769              		.syntax unified
 3770              		.thumb
 3771              		.thumb_func
 3773              	mpu6050_read_Accelerometer:
 3774              	.LFB72:
 708:./mpu6050/mpu6050.c **** //-------------------------------------------------------------------------------------------
 709:./mpu6050/mpu6050.c **** /**
 710:./mpu6050/mpu6050.c ****  * @brief  Reads accelerometer data from sensor
 711:./mpu6050/mpu6050.c ****  * @param  mpu: Pointer to @ref MPU6050_t structure to store data to
 712:./mpu6050/mpu6050.c ****  * @retval Member of @ref MPU6050_Result_t:
 713:./mpu6050/mpu6050.c ****  *            - MPU6050_Result_Ok: everything is OK
 714:./mpu6050/mpu6050.c ****  *            - Other: in other cases
 715:./mpu6050/mpu6050.c ****  */
 716:./mpu6050/mpu6050.c **** uint8_t mpu6050_read_Accelerometer(MPU6050_t* mpu)
 717:./mpu6050/mpu6050.c **** {
 3775              		.loc 1 717 1
 3776              		.cfi_startproc
 3777              		@ args = 0, pretend = 0, frame = 16
 3778              		@ frame_needed = 1, uses_anonymous_args = 0
 3779 0000 80B5     		push	{r7, lr}
 3780              	.LCFI201:
 3781              		.cfi_def_cfa_offset 8
 3782              		.cfi_offset 7, -8
 3783              		.cfi_offset 14, -4
 3784 0002 86B0     		sub	sp, sp, #24
 3785              	.LCFI202:
 3786              		.cfi_def_cfa_offset 32
 3787 0004 02AF     		add	r7, sp, #8
 3788              	.LCFI203:
 3789              		.cfi_def_cfa 7, 24
 3790 0006 7860     		str	r0, [r7, #4]
 718:./mpu6050/mpu6050.c **** 	uint8_t data[6]={0};
 3791              		.loc 1 718 10
ARM GAS  C:\Users\SAMEER~1.ALM\AppData\Local\Temp\ccKQVuZd.s 			page 79


 3792 0008 0023     		movs	r3, #0
 3793 000a BB60     		str	r3, [r7, #8]
 3794 000c 0023     		movs	r3, #0
 3795 000e BB81     		strh	r3, [r7, #12]	@ movhi
 719:./mpu6050/mpu6050.c **** 	uint8_t error=0;
 3796              		.loc 1 719 10
 3797 0010 0023     		movs	r3, #0
 3798 0012 BB73     		strb	r3, [r7, #14]
 720:./mpu6050/mpu6050.c **** 	mpu6050_clear_Accelometer(mpu);
 3799              		.loc 1 720 2
 3800 0014 7868     		ldr	r0, [r7, #4]
 3801 0016 FFF7FEFF 		bl	mpu6050_clear_Accelometer
 721:./mpu6050/mpu6050.c **** 	/* Read accelerometer data */
 722:./mpu6050/mpu6050.c ****   error=i2c_read_7bit_base_nbyte_std(MPU6050_I2C,mpu->Address, MPU6050_ACCEL_XOUT_H, data, 6);
 3802              		.loc 1 722 9
 3803 001a 7B68     		ldr	r3, [r7, #4]
 3804 001c 1978     		ldrb	r1, [r3]	@ zero_extendqisi2
 3805 001e 07F10803 		add	r3, r7, #8
 3806 0022 0622     		movs	r2, #6
 3807 0024 0092     		str	r2, [sp]
 3808 0026 3B22     		movs	r2, #59
 3809 0028 4648     		ldr	r0, .L247
 3810 002a FFF7FEFF 		bl	i2c_read_7bit_base_nbyte_std
 3811 002e 0346     		mov	r3, r0
 3812 0030 BB73     		strb	r3, [r7, #14]
 723:./mpu6050/mpu6050.c ****   if(error) return error;
 3813              		.loc 1 723 5
 3814 0032 BB7B     		ldrb	r3, [r7, #14]	@ zero_extendqisi2
 3815 0034 002B     		cmp	r3, #0
 3816 0036 01D0     		beq	.L242
 3817              		.loc 1 723 20 discriminator 1
 3818 0038 BB7B     		ldrb	r3, [r7, #14]	@ zero_extendqisi2
 3819 003a 7FE0     		b	.L246
 3820              	.L242:
 724:./mpu6050/mpu6050.c **** 	/* Format */
 725:./mpu6050/mpu6050.c **** 	mpu->Accelerometer_nX = (int16_t)(data[0] << 8 | data[1]);	
 3821              		.loc 1 725 40
 3822 003c 3B7A     		ldrb	r3, [r7, #8]	@ zero_extendqisi2
 3823              		.loc 1 725 44
 3824 003e 1B02     		lsls	r3, r3, #8
 3825              		.loc 1 725 26
 3826 0040 1AB2     		sxth	r2, r3
 3827              		.loc 1 725 55
 3828 0042 7B7A     		ldrb	r3, [r7, #9]	@ zero_extendqisi2
 3829 0044 1BB2     		sxth	r3, r3
 3830              		.loc 1 725 26
 3831 0046 1343     		orrs	r3, r3, r2
 3832 0048 1AB2     		sxth	r2, r3
 3833              		.loc 1 725 24
 3834 004a 7B68     		ldr	r3, [r7, #4]
 3835 004c 1A82     		strh	r2, [r3, #16]	@ movhi
 726:./mpu6050/mpu6050.c **** 	mpu->Accelerometer_nY = (int16_t)(data[2] << 8 | data[3]);
 3836              		.loc 1 726 40
 3837 004e BB7A     		ldrb	r3, [r7, #10]	@ zero_extendqisi2
 3838              		.loc 1 726 44
 3839 0050 1B02     		lsls	r3, r3, #8
 3840              		.loc 1 726 26
ARM GAS  C:\Users\SAMEER~1.ALM\AppData\Local\Temp\ccKQVuZd.s 			page 80


 3841 0052 1AB2     		sxth	r2, r3
 3842              		.loc 1 726 55
 3843 0054 FB7A     		ldrb	r3, [r7, #11]	@ zero_extendqisi2
 3844 0056 1BB2     		sxth	r3, r3
 3845              		.loc 1 726 26
 3846 0058 1343     		orrs	r3, r3, r2
 3847 005a 1AB2     		sxth	r2, r3
 3848              		.loc 1 726 24
 3849 005c 7B68     		ldr	r3, [r7, #4]
 3850 005e 5A82     		strh	r2, [r3, #18]	@ movhi
 727:./mpu6050/mpu6050.c **** 	mpu->Accelerometer_nZ = (int16_t)(data[4] << 8 | data[5]);
 3851              		.loc 1 727 40
 3852 0060 3B7B     		ldrb	r3, [r7, #12]	@ zero_extendqisi2
 3853              		.loc 1 727 44
 3854 0062 1B02     		lsls	r3, r3, #8
 3855              		.loc 1 727 26
 3856 0064 1AB2     		sxth	r2, r3
 3857              		.loc 1 727 55
 3858 0066 7B7B     		ldrb	r3, [r7, #13]	@ zero_extendqisi2
 3859 0068 1BB2     		sxth	r3, r3
 3860              		.loc 1 727 26
 3861 006a 1343     		orrs	r3, r3, r2
 3862 006c 1AB2     		sxth	r2, r3
 3863              		.loc 1 727 24
 3864 006e 7B68     		ldr	r3, [r7, #4]
 3865 0070 9A82     		strh	r2, [r3, #20]	@ movhi
 728:./mpu6050/mpu6050.c **** 	
 729:./mpu6050/mpu6050.c **** 	mpu->Accel_X=(float)mpu->Accelerometer_nX / mpu->Acce_scale;
 3866              		.loc 1 729 25
 3867 0072 7B68     		ldr	r3, [r7, #4]
 3868 0074 B3F91030 		ldrsh	r3, [r3, #16]
 3869              		.loc 1 729 15
 3870 0078 1846     		mov	r0, r3
 3871 007a FFF7FEFF 		bl	__aeabi_i2f
 3872 007e 0246     		mov	r2, r0
 3873              		.loc 1 729 49
 3874 0080 7B68     		ldr	r3, [r7, #4]
 3875 0082 DB69     		ldr	r3, [r3, #28]	@ float
 3876              		.loc 1 729 44
 3877 0084 1946     		mov	r1, r3
 3878 0086 1046     		mov	r0, r2
 3879 0088 FFF7FEFF 		bl	__aeabi_fdiv
 3880 008c 0346     		mov	r3, r0
 3881 008e 1A46     		mov	r2, r3
 3882              		.loc 1 729 14
 3883 0090 7B68     		ldr	r3, [r7, #4]
 3884 0092 5A62     		str	r2, [r3, #36]	@ float
 730:./mpu6050/mpu6050.c **** 	mpu->Accel_Y=(float)mpu->Accelerometer_nY / mpu->Acce_scale;
 3885              		.loc 1 730 25
 3886 0094 7B68     		ldr	r3, [r7, #4]
 3887 0096 B3F91230 		ldrsh	r3, [r3, #18]
 3888              		.loc 1 730 15
 3889 009a 1846     		mov	r0, r3
 3890 009c FFF7FEFF 		bl	__aeabi_i2f
 3891 00a0 0246     		mov	r2, r0
 3892              		.loc 1 730 49
 3893 00a2 7B68     		ldr	r3, [r7, #4]
ARM GAS  C:\Users\SAMEER~1.ALM\AppData\Local\Temp\ccKQVuZd.s 			page 81


 3894 00a4 DB69     		ldr	r3, [r3, #28]	@ float
 3895              		.loc 1 730 44
 3896 00a6 1946     		mov	r1, r3
 3897 00a8 1046     		mov	r0, r2
 3898 00aa FFF7FEFF 		bl	__aeabi_fdiv
 3899 00ae 0346     		mov	r3, r0
 3900 00b0 1A46     		mov	r2, r3
 3901              		.loc 1 730 14
 3902 00b2 7B68     		ldr	r3, [r7, #4]
 3903 00b4 9A62     		str	r2, [r3, #40]	@ float
 731:./mpu6050/mpu6050.c **** 	mpu->Accel_Z=(float)mpu->Accelerometer_nZ / mpu->Acce_scale;
 3904              		.loc 1 731 25
 3905 00b6 7B68     		ldr	r3, [r7, #4]
 3906 00b8 B3F91430 		ldrsh	r3, [r3, #20]
 3907              		.loc 1 731 15
 3908 00bc 1846     		mov	r0, r3
 3909 00be FFF7FEFF 		bl	__aeabi_i2f
 3910 00c2 0246     		mov	r2, r0
 3911              		.loc 1 731 49
 3912 00c4 7B68     		ldr	r3, [r7, #4]
 3913 00c6 DB69     		ldr	r3, [r3, #28]	@ float
 3914              		.loc 1 731 44
 3915 00c8 1946     		mov	r1, r3
 3916 00ca 1046     		mov	r0, r2
 3917 00cc FFF7FEFF 		bl	__aeabi_fdiv
 3918 00d0 0346     		mov	r3, r0
 3919 00d2 1A46     		mov	r2, r3
 3920              		.loc 1 731 14
 3921 00d4 7B68     		ldr	r3, [r7, #4]
 3922 00d6 DA62     		str	r2, [r3, #44]	@ float
 732:./mpu6050/mpu6050.c **** 
 733:./mpu6050/mpu6050.c **** 	mpu->Accel_gr_X= mpu->Accel_X * SENSORS_GRAVITY_STANDARD;
 3923              		.loc 1 733 22
 3924 00d8 7B68     		ldr	r3, [r7, #4]
 3925 00da 5B6A     		ldr	r3, [r3, #36]	@ float
 3926              		.loc 1 733 32
 3927 00dc 1A49     		ldr	r1, .L247+4
 3928 00de 1846     		mov	r0, r3
 3929 00e0 FFF7FEFF 		bl	__aeabi_fmul
 3930 00e4 0346     		mov	r3, r0
 3931 00e6 1A46     		mov	r2, r3
 3932              		.loc 1 733 17
 3933 00e8 7B68     		ldr	r3, [r7, #4]
 3934 00ea DA63     		str	r2, [r3, #60]	@ float
 734:./mpu6050/mpu6050.c **** 	mpu->Accel_gr_Y= mpu->Accel_Y * SENSORS_GRAVITY_STANDARD;
 3935              		.loc 1 734 22
 3936 00ec 7B68     		ldr	r3, [r7, #4]
 3937 00ee 9B6A     		ldr	r3, [r3, #40]	@ float
 3938              		.loc 1 734 32
 3939 00f0 1549     		ldr	r1, .L247+4
 3940 00f2 1846     		mov	r0, r3
 3941 00f4 FFF7FEFF 		bl	__aeabi_fmul
 3942 00f8 0346     		mov	r3, r0
 3943 00fa 1A46     		mov	r2, r3
 3944              		.loc 1 734 17
 3945 00fc 7B68     		ldr	r3, [r7, #4]
 3946 00fe 1A64     		str	r2, [r3, #64]	@ float
ARM GAS  C:\Users\SAMEER~1.ALM\AppData\Local\Temp\ccKQVuZd.s 			page 82


 735:./mpu6050/mpu6050.c **** 	mpu->Accel_gr_Z= mpu->Accel_Z * SENSORS_GRAVITY_STANDARD;
 3947              		.loc 1 735 22
 3948 0100 7B68     		ldr	r3, [r7, #4]
 3949 0102 DB6A     		ldr	r3, [r3, #44]	@ float
 3950              		.loc 1 735 32
 3951 0104 1049     		ldr	r1, .L247+4
 3952 0106 1846     		mov	r0, r3
 3953 0108 FFF7FEFF 		bl	__aeabi_fmul
 3954 010c 0346     		mov	r3, r0
 3955 010e 1A46     		mov	r2, r3
 3956              		.loc 1 735 17
 3957 0110 7B68     		ldr	r3, [r7, #4]
 3958 0112 5A64     		str	r2, [r3, #68]	@ float
 3959              	.LBB2:
 736:./mpu6050/mpu6050.c **** 
 737:./mpu6050/mpu6050.c **** 
 738:./mpu6050/mpu6050.c **** 	for(uint8_t i=0;i<MPU6050_RAW_ACCEL_LEN;i++)
 3960              		.loc 1 738 14
 3961 0114 0023     		movs	r3, #0
 3962 0116 FB73     		strb	r3, [r7, #15]
 3963              		.loc 1 738 2
 3964 0118 0CE0     		b	.L244
 3965              	.L245:
 739:./mpu6050/mpu6050.c **** 	 mpu->data.Array[MPU6050_RAW_ACCEL_Base +i]=data[i];
 3966              		.loc 1 739 50 discriminator 3
 3967 011a FA7B     		ldrb	r2, [r7, #15]	@ zero_extendqisi2
 3968              		.loc 1 739 42 discriminator 3
 3969 011c FB7B     		ldrb	r3, [r7, #15]	@ zero_extendqisi2
 3970              		.loc 1 739 50 discriminator 3
 3971 011e 1032     		adds	r2, r2, #16
 3972 0120 3A44     		add	r2, r2, r7
 3973 0122 12F8081C 		ldrb	r1, [r2, #-8]	@ zero_extendqisi2
 3974              		.loc 1 739 45 discriminator 3
 3975 0126 7A68     		ldr	r2, [r7, #4]
 3976 0128 1344     		add	r3, r3, r2
 3977 012a 0A46     		mov	r2, r1
 3978 012c 5A70     		strb	r2, [r3, #1]
 738:./mpu6050/mpu6050.c **** 	 mpu->data.Array[MPU6050_RAW_ACCEL_Base +i]=data[i];
 3979              		.loc 1 738 43 discriminator 3
 3980 012e FB7B     		ldrb	r3, [r7, #15]	@ zero_extendqisi2
 3981 0130 0133     		adds	r3, r3, #1
 3982 0132 FB73     		strb	r3, [r7, #15]
 3983              	.L244:
 738:./mpu6050/mpu6050.c **** 	 mpu->data.Array[MPU6050_RAW_ACCEL_Base +i]=data[i];
 3984              		.loc 1 738 2 discriminator 1
 3985 0134 FB7B     		ldrb	r3, [r7, #15]	@ zero_extendqisi2
 3986 0136 052B     		cmp	r3, #5
 3987 0138 EFD9     		bls	.L245
 3988              	.LBE2:
 740:./mpu6050/mpu6050.c ****  /* Return OK */
 741:./mpu6050/mpu6050.c **** 	return  MPU6050_OK; 
 3989              		.loc 1 741 10
 3990 013a 0023     		movs	r3, #0
 3991              	.L246:
 742:./mpu6050/mpu6050.c **** }
 3992              		.loc 1 742 1 discriminator 1
 3993 013c 1846     		mov	r0, r3
ARM GAS  C:\Users\SAMEER~1.ALM\AppData\Local\Temp\ccKQVuZd.s 			page 83


 3994 013e 1037     		adds	r7, r7, #16
 3995              	.LCFI204:
 3996              		.cfi_def_cfa_offset 8
 3997 0140 BD46     		mov	sp, r7
 3998              	.LCFI205:
 3999              		.cfi_def_cfa_register 13
 4000              		@ sp needed
 4001 0142 80BD     		pop	{r7, pc}
 4002              	.L248:
 4003              		.align	2
 4004              	.L247:
 4005 0144 00540040 		.word	1073763328
 4006 0148 0AE81C41 		.word	1092413450
 4007              		.cfi_endproc
 4008              	.LFE72:
 4010              		.section	.text.mpu6050_read_Gyroscope,"ax",%progbits
 4011              		.align	1
 4012              		.global	mpu6050_read_Gyroscope
 4013              		.syntax unified
 4014              		.thumb
 4015              		.thumb_func
 4017              	mpu6050_read_Gyroscope:
 4018              	.LFB73:
 743:./mpu6050/mpu6050.c **** //-------------------------------------------------------------------------------------------------
 744:./mpu6050/mpu6050.c **** /**
 745:./mpu6050/mpu6050.c ****  * @brief  Reads gyroscope data from sensor
 746:./mpu6050/mpu6050.c ****  * @param  mpu: Pointer to @ref MPU6050_t structure to store data to
 747:./mpu6050/mpu6050.c ****  * @retval Member of @ref MPU6050_Result_t:
 748:./mpu6050/mpu6050.c ****  *            - MPU6050_Result_Ok: everything is OK
 749:./mpu6050/mpu6050.c ****  *            - Other: in other cases
 750:./mpu6050/mpu6050.c ****  */
 751:./mpu6050/mpu6050.c **** uint8_t mpu6050_read_Gyroscope(MPU6050_t* mpu)
 752:./mpu6050/mpu6050.c **** {
 4019              		.loc 1 752 1
 4020              		.cfi_startproc
 4021              		@ args = 0, pretend = 0, frame = 16
 4022              		@ frame_needed = 1, uses_anonymous_args = 0
 4023 0000 80B5     		push	{r7, lr}
 4024              	.LCFI206:
 4025              		.cfi_def_cfa_offset 8
 4026              		.cfi_offset 7, -8
 4027              		.cfi_offset 14, -4
 4028 0002 86B0     		sub	sp, sp, #24
 4029              	.LCFI207:
 4030              		.cfi_def_cfa_offset 32
 4031 0004 02AF     		add	r7, sp, #8
 4032              	.LCFI208:
 4033              		.cfi_def_cfa 7, 24
 4034 0006 7860     		str	r0, [r7, #4]
 753:./mpu6050/mpu6050.c **** 	uint8_t data[6]={0};
 4035              		.loc 1 753 10
 4036 0008 0023     		movs	r3, #0
 4037 000a BB60     		str	r3, [r7, #8]
 4038 000c 0023     		movs	r3, #0
 4039 000e BB81     		strh	r3, [r7, #12]	@ movhi
 754:./mpu6050/mpu6050.c **** 	uint8_t error=0;
 4040              		.loc 1 754 10
ARM GAS  C:\Users\SAMEER~1.ALM\AppData\Local\Temp\ccKQVuZd.s 			page 84


 4041 0010 0023     		movs	r3, #0
 4042 0012 BB73     		strb	r3, [r7, #14]
 755:./mpu6050/mpu6050.c ****   mpu6050_clear_Gyroscope(mpu);
 4043              		.loc 1 755 3
 4044 0014 7868     		ldr	r0, [r7, #4]
 4045 0016 FFF7FEFF 		bl	mpu6050_clear_Gyroscope
 756:./mpu6050/mpu6050.c **** 
 757:./mpu6050/mpu6050.c **** 	/* Read accelerometer data */
 758:./mpu6050/mpu6050.c ****   error=i2c_read_7bit_base_nbyte_std(MPU6050_I2C,mpu->Address, MPU6050_GYRO_XOUT_H, data, 6);
 4046              		.loc 1 758 9
 4047 001a 7B68     		ldr	r3, [r7, #4]
 4048 001c 1978     		ldrb	r1, [r3]	@ zero_extendqisi2
 4049 001e 07F10803 		add	r3, r7, #8
 4050 0022 0622     		movs	r2, #6
 4051 0024 0092     		str	r2, [sp]
 4052 0026 4322     		movs	r2, #67
 4053 0028 4748     		ldr	r0, .L255
 4054 002a FFF7FEFF 		bl	i2c_read_7bit_base_nbyte_std
 4055 002e 0346     		mov	r3, r0
 4056 0030 BB73     		strb	r3, [r7, #14]
 759:./mpu6050/mpu6050.c ****   if(error) return error;
 4057              		.loc 1 759 5
 4058 0032 BB7B     		ldrb	r3, [r7, #14]	@ zero_extendqisi2
 4059 0034 002B     		cmp	r3, #0
 4060 0036 01D0     		beq	.L250
 4061              		.loc 1 759 20 discriminator 1
 4062 0038 BB7B     		ldrb	r3, [r7, #14]	@ zero_extendqisi2
 4063 003a 80E0     		b	.L254
 4064              	.L250:
 760:./mpu6050/mpu6050.c **** 	/* Format */
 761:./mpu6050/mpu6050.c **** 	mpu->Gyroscope_nX = (int16_t)(data[0] << 8 | data[1]);	
 4065              		.loc 1 761 36
 4066 003c 3B7A     		ldrb	r3, [r7, #8]	@ zero_extendqisi2
 4067              		.loc 1 761 40
 4068 003e 1B02     		lsls	r3, r3, #8
 4069              		.loc 1 761 22
 4070 0040 1AB2     		sxth	r2, r3
 4071              		.loc 1 761 51
 4072 0042 7B7A     		ldrb	r3, [r7, #9]	@ zero_extendqisi2
 4073 0044 1BB2     		sxth	r3, r3
 4074              		.loc 1 761 22
 4075 0046 1343     		orrs	r3, r3, r2
 4076 0048 1AB2     		sxth	r2, r3
 4077              		.loc 1 761 20
 4078 004a 7B68     		ldr	r3, [r7, #4]
 4079 004c DA82     		strh	r2, [r3, #22]	@ movhi
 762:./mpu6050/mpu6050.c **** 	mpu->Gyroscope_nY = (int16_t)(data[2] << 8 | data[3]);
 4080              		.loc 1 762 36
 4081 004e BB7A     		ldrb	r3, [r7, #10]	@ zero_extendqisi2
 4082              		.loc 1 762 40
 4083 0050 1B02     		lsls	r3, r3, #8
 4084              		.loc 1 762 22
 4085 0052 1AB2     		sxth	r2, r3
 4086              		.loc 1 762 51
 4087 0054 FB7A     		ldrb	r3, [r7, #11]	@ zero_extendqisi2
 4088 0056 1BB2     		sxth	r3, r3
 4089              		.loc 1 762 22
ARM GAS  C:\Users\SAMEER~1.ALM\AppData\Local\Temp\ccKQVuZd.s 			page 85


 4090 0058 1343     		orrs	r3, r3, r2
 4091 005a 1AB2     		sxth	r2, r3
 4092              		.loc 1 762 20
 4093 005c 7B68     		ldr	r3, [r7, #4]
 4094 005e 1A83     		strh	r2, [r3, #24]	@ movhi
 763:./mpu6050/mpu6050.c **** 	mpu->Gyroscope_nZ = (int16_t)(data[4] << 8 | data[5]);
 4095              		.loc 1 763 36
 4096 0060 3B7B     		ldrb	r3, [r7, #12]	@ zero_extendqisi2
 4097              		.loc 1 763 40
 4098 0062 1B02     		lsls	r3, r3, #8
 4099              		.loc 1 763 22
 4100 0064 1AB2     		sxth	r2, r3
 4101              		.loc 1 763 51
 4102 0066 7B7B     		ldrb	r3, [r7, #13]	@ zero_extendqisi2
 4103 0068 1BB2     		sxth	r3, r3
 4104              		.loc 1 763 22
 4105 006a 1343     		orrs	r3, r3, r2
 4106 006c 1AB2     		sxth	r2, r3
 4107              		.loc 1 763 20
 4108 006e 7B68     		ldr	r3, [r7, #4]
 4109 0070 5A83     		strh	r2, [r3, #26]	@ movhi
 764:./mpu6050/mpu6050.c **** 
 765:./mpu6050/mpu6050.c **** 	mpu->Gyro_X=(float)mpu->Gyroscope_nX / mpu->Gyro_scale;
 4110              		.loc 1 765 24
 4111 0072 7B68     		ldr	r3, [r7, #4]
 4112 0074 B3F91630 		ldrsh	r3, [r3, #22]
 4113              		.loc 1 765 14
 4114 0078 1846     		mov	r0, r3
 4115 007a FFF7FEFF 		bl	__aeabi_i2f
 4116 007e 0246     		mov	r2, r0
 4117              		.loc 1 765 44
 4118 0080 7B68     		ldr	r3, [r7, #4]
 4119 0082 1B6A     		ldr	r3, [r3, #32]	@ float
 4120              		.loc 1 765 39
 4121 0084 1946     		mov	r1, r3
 4122 0086 1046     		mov	r0, r2
 4123 0088 FFF7FEFF 		bl	__aeabi_fdiv
 4124 008c 0346     		mov	r3, r0
 4125 008e 1A46     		mov	r2, r3
 4126              		.loc 1 765 13
 4127 0090 7B68     		ldr	r3, [r7, #4]
 4128 0092 1A63     		str	r2, [r3, #48]	@ float
 766:./mpu6050/mpu6050.c **** 	mpu->Gyro_Y=(float)mpu->Gyroscope_nY / mpu->Gyro_scale;
 4129              		.loc 1 766 24
 4130 0094 7B68     		ldr	r3, [r7, #4]
 4131 0096 B3F91830 		ldrsh	r3, [r3, #24]
 4132              		.loc 1 766 14
 4133 009a 1846     		mov	r0, r3
 4134 009c FFF7FEFF 		bl	__aeabi_i2f
 4135 00a0 0246     		mov	r2, r0
 4136              		.loc 1 766 44
 4137 00a2 7B68     		ldr	r3, [r7, #4]
 4138 00a4 1B6A     		ldr	r3, [r3, #32]	@ float
 4139              		.loc 1 766 39
 4140 00a6 1946     		mov	r1, r3
 4141 00a8 1046     		mov	r0, r2
 4142 00aa FFF7FEFF 		bl	__aeabi_fdiv
ARM GAS  C:\Users\SAMEER~1.ALM\AppData\Local\Temp\ccKQVuZd.s 			page 86


 4143 00ae 0346     		mov	r3, r0
 4144 00b0 1A46     		mov	r2, r3
 4145              		.loc 1 766 13
 4146 00b2 7B68     		ldr	r3, [r7, #4]
 4147 00b4 5A63     		str	r2, [r3, #52]	@ float
 767:./mpu6050/mpu6050.c **** 	mpu->Gyro_Z=(float)mpu->Gyroscope_nZ / mpu->Gyro_scale;
 4148              		.loc 1 767 24
 4149 00b6 7B68     		ldr	r3, [r7, #4]
 4150 00b8 B3F91A30 		ldrsh	r3, [r3, #26]
 4151              		.loc 1 767 14
 4152 00bc 1846     		mov	r0, r3
 4153 00be FFF7FEFF 		bl	__aeabi_i2f
 4154 00c2 0246     		mov	r2, r0
 4155              		.loc 1 767 44
 4156 00c4 7B68     		ldr	r3, [r7, #4]
 4157 00c6 1B6A     		ldr	r3, [r3, #32]	@ float
 4158              		.loc 1 767 39
 4159 00c8 1946     		mov	r1, r3
 4160 00ca 1046     		mov	r0, r2
 4161 00cc FFF7FEFF 		bl	__aeabi_fdiv
 4162 00d0 0346     		mov	r3, r0
 4163 00d2 1A46     		mov	r2, r3
 4164              		.loc 1 767 13
 4165 00d4 7B68     		ldr	r3, [r7, #4]
 4166 00d6 9A63     		str	r2, [r3, #56]	@ float
 768:./mpu6050/mpu6050.c **** 
 769:./mpu6050/mpu6050.c **** 	mpu->Gyro_rd_X= mpu->Gyro_X * SENSORS_DPS_TO_RADS;
 4167              		.loc 1 769 21
 4168 00d8 7B68     		ldr	r3, [r7, #4]
 4169 00da 1B6B     		ldr	r3, [r3, #48]	@ float
 4170              		.loc 1 769 30
 4171 00dc 1B49     		ldr	r1, .L255+4
 4172 00de 1846     		mov	r0, r3
 4173 00e0 FFF7FEFF 		bl	__aeabi_fmul
 4174 00e4 0346     		mov	r3, r0
 4175 00e6 1A46     		mov	r2, r3
 4176              		.loc 1 769 16
 4177 00e8 7B68     		ldr	r3, [r7, #4]
 4178 00ea 9A64     		str	r2, [r3, #72]	@ float
 770:./mpu6050/mpu6050.c **** 	mpu->Gyro_rd_Y= mpu->Gyro_Y * SENSORS_DPS_TO_RADS;
 4179              		.loc 1 770 21
 4180 00ec 7B68     		ldr	r3, [r7, #4]
 4181 00ee 5B6B     		ldr	r3, [r3, #52]	@ float
 4182              		.loc 1 770 30
 4183 00f0 1649     		ldr	r1, .L255+4
 4184 00f2 1846     		mov	r0, r3
 4185 00f4 FFF7FEFF 		bl	__aeabi_fmul
 4186 00f8 0346     		mov	r3, r0
 4187 00fa 1A46     		mov	r2, r3
 4188              		.loc 1 770 16
 4189 00fc 7B68     		ldr	r3, [r7, #4]
 4190 00fe DA64     		str	r2, [r3, #76]	@ float
 771:./mpu6050/mpu6050.c **** 	mpu->Gyro_rd_Z= mpu->Gyro_Z * SENSORS_DPS_TO_RADS;
 4191              		.loc 1 771 21
 4192 0100 7B68     		ldr	r3, [r7, #4]
 4193 0102 9B6B     		ldr	r3, [r3, #56]	@ float
 4194              		.loc 1 771 30
ARM GAS  C:\Users\SAMEER~1.ALM\AppData\Local\Temp\ccKQVuZd.s 			page 87


 4195 0104 1149     		ldr	r1, .L255+4
 4196 0106 1846     		mov	r0, r3
 4197 0108 FFF7FEFF 		bl	__aeabi_fmul
 4198 010c 0346     		mov	r3, r0
 4199 010e 1A46     		mov	r2, r3
 4200              		.loc 1 771 16
 4201 0110 7B68     		ldr	r3, [r7, #4]
 4202 0112 1A65     		str	r2, [r3, #80]	@ float
 4203              	.LBB3:
 772:./mpu6050/mpu6050.c **** 
 773:./mpu6050/mpu6050.c **** 	for(uint8_t i=0;i<MPU6050_RAW_GYRO_LEN;i++)
 4204              		.loc 1 773 14
 4205 0114 0023     		movs	r3, #0
 4206 0116 FB73     		strb	r3, [r7, #15]
 4207              		.loc 1 773 2
 4208 0118 0DE0     		b	.L252
 4209              	.L253:
 774:./mpu6050/mpu6050.c **** 	 mpu->data.Array[MPU6050_RAW_GYRO_Base +i]=data[i];
 4210              		.loc 1 774 49 discriminator 3
 4211 011a FA7B     		ldrb	r2, [r7, #15]	@ zero_extendqisi2
 4212              		.loc 1 774 41 discriminator 3
 4213 011c FB7B     		ldrb	r3, [r7, #15]	@ zero_extendqisi2
 4214 011e 0833     		adds	r3, r3, #8
 4215              		.loc 1 774 49 discriminator 3
 4216 0120 1032     		adds	r2, r2, #16
 4217 0122 3A44     		add	r2, r2, r7
 4218 0124 12F8081C 		ldrb	r1, [r2, #-8]	@ zero_extendqisi2
 4219              		.loc 1 774 44 discriminator 3
 4220 0128 7A68     		ldr	r2, [r7, #4]
 4221 012a 1344     		add	r3, r3, r2
 4222 012c 0A46     		mov	r2, r1
 4223 012e 5A70     		strb	r2, [r3, #1]
 773:./mpu6050/mpu6050.c **** 	 mpu->data.Array[MPU6050_RAW_GYRO_Base +i]=data[i];
 4224              		.loc 1 773 42 discriminator 3
 4225 0130 FB7B     		ldrb	r3, [r7, #15]	@ zero_extendqisi2
 4226 0132 0133     		adds	r3, r3, #1
 4227 0134 FB73     		strb	r3, [r7, #15]
 4228              	.L252:
 773:./mpu6050/mpu6050.c **** 	 mpu->data.Array[MPU6050_RAW_GYRO_Base +i]=data[i];
 4229              		.loc 1 773 2 discriminator 1
 4230 0136 FB7B     		ldrb	r3, [r7, #15]	@ zero_extendqisi2
 4231 0138 052B     		cmp	r3, #5
 4232 013a EED9     		bls	.L253
 4233              	.LBE3:
 775:./mpu6050/mpu6050.c **** 		
 776:./mpu6050/mpu6050.c ****  /* Return OK */
 777:./mpu6050/mpu6050.c **** 	return  MPU6050_OK; 
 4234              		.loc 1 777 10
 4235 013c 0023     		movs	r3, #0
 4236              	.L254:
 778:./mpu6050/mpu6050.c **** }
 4237              		.loc 1 778 1 discriminator 1
 4238 013e 1846     		mov	r0, r3
 4239 0140 1037     		adds	r7, r7, #16
 4240              	.LCFI209:
 4241              		.cfi_def_cfa_offset 8
 4242 0142 BD46     		mov	sp, r7
ARM GAS  C:\Users\SAMEER~1.ALM\AppData\Local\Temp\ccKQVuZd.s 			page 88


 4243              	.LCFI210:
 4244              		.cfi_def_cfa_register 13
 4245              		@ sp needed
 4246 0144 80BD     		pop	{r7, pc}
 4247              	.L256:
 4248 0146 00BF     		.align	2
 4249              	.L255:
 4250 0148 00540040 		.word	1073763328
 4251 014c 35FA8E3C 		.word	1016003125
 4252              		.cfi_endproc
 4253              	.LFE73:
 4255              		.global	__aeabi_fadd
 4256              		.section	.text.mpu6050_read_Temperature,"ax",%progbits
 4257              		.align	1
 4258              		.global	mpu6050_read_Temperature
 4259              		.syntax unified
 4260              		.thumb
 4261              		.thumb_func
 4263              	mpu6050_read_Temperature:
 4264              	.LFB74:
 779:./mpu6050/mpu6050.c **** //-------------------------------------------------------------------------------------------------
 780:./mpu6050/mpu6050.c **** /**
 781:./mpu6050/mpu6050.c ****  * @brief  Reads temperature data from sensor
 782:./mpu6050/mpu6050.c ****  * @param  *mpu: Pointer to @ref MPU6050_t structure to store data to
 783:./mpu6050/mpu6050.c ****  * @retval Member of @ref MPU6050_Result_t:
 784:./mpu6050/mpu6050.c ****  *            - MPU6050_Result_Ok: everything is OK
 785:./mpu6050/mpu6050.c ****  *            - Other: in other cases
 786:./mpu6050/mpu6050.c ****  */
 787:./mpu6050/mpu6050.c **** MPU6050_Result_t mpu6050_read_Temperature(MPU6050_t* mpu)
 788:./mpu6050/mpu6050.c **** {
 4265              		.loc 1 788 1
 4266              		.cfi_startproc
 4267              		@ args = 0, pretend = 0, frame = 16
 4268              		@ frame_needed = 1, uses_anonymous_args = 0
 4269 0000 80B5     		push	{r7, lr}
 4270              	.LCFI211:
 4271              		.cfi_def_cfa_offset 8
 4272              		.cfi_offset 7, -8
 4273              		.cfi_offset 14, -4
 4274 0002 86B0     		sub	sp, sp, #24
 4275              	.LCFI212:
 4276              		.cfi_def_cfa_offset 32
 4277 0004 02AF     		add	r7, sp, #8
 4278              	.LCFI213:
 4279              		.cfi_def_cfa 7, 24
 4280 0006 7860     		str	r0, [r7, #4]
 789:./mpu6050/mpu6050.c **** 	uint8_t data[2]={0};
 4281              		.loc 1 789 10
 4282 0008 0023     		movs	r3, #0
 4283 000a 3B81     		strh	r3, [r7, #8]	@ movhi
 790:./mpu6050/mpu6050.c **** 	uint8_t error=0;
 4284              		.loc 1 790 10
 4285 000c 0023     		movs	r3, #0
 4286 000e BB73     		strb	r3, [r7, #14]
 791:./mpu6050/mpu6050.c ****   	int16_t temp=0;
 4287              		.loc 1 791 12
 4288 0010 0023     		movs	r3, #0
ARM GAS  C:\Users\SAMEER~1.ALM\AppData\Local\Temp\ccKQVuZd.s 			page 89


 4289 0012 BB81     		strh	r3, [r7, #12]	@ movhi
 792:./mpu6050/mpu6050.c **** 	mpu6050_clear_Temperature(mpu);
 4290              		.loc 1 792 2
 4291 0014 7868     		ldr	r0, [r7, #4]
 4292 0016 FFF7FEFF 		bl	mpu6050_clear_Temperature
 793:./mpu6050/mpu6050.c **** 	/* Read accelerometer data */
 794:./mpu6050/mpu6050.c ****   error=i2c_read_7bit_base_nbyte_std(MPU6050_I2C,mpu->Address,MPU6050_TEMP_H, data, 2);
 4293              		.loc 1 794 9
 4294 001a 7B68     		ldr	r3, [r7, #4]
 4295 001c 1978     		ldrb	r1, [r3]	@ zero_extendqisi2
 4296 001e 07F10803 		add	r3, r7, #8
 4297 0022 0222     		movs	r2, #2
 4298 0024 0092     		str	r2, [sp]
 4299 0026 4122     		movs	r2, #65
 4300 0028 1E48     		ldr	r0, .L263
 4301 002a FFF7FEFF 		bl	i2c_read_7bit_base_nbyte_std
 4302 002e 0346     		mov	r3, r0
 4303 0030 BB73     		strb	r3, [r7, #14]
 795:./mpu6050/mpu6050.c ****   if(error) return error;
 4304              		.loc 1 795 5
 4305 0032 BB7B     		ldrb	r3, [r7, #14]	@ zero_extendqisi2
 4306 0034 002B     		cmp	r3, #0
 4307 0036 01D0     		beq	.L258
 4308              		.loc 1 795 20 discriminator 1
 4309 0038 BB7B     		ldrb	r3, [r7, #14]	@ zero_extendqisi2
 4310 003a 2EE0     		b	.L262
 4311              	.L258:
 796:./mpu6050/mpu6050.c **** 	/* Format */
 797:./mpu6050/mpu6050.c **** 	temp = (data[0] << 8 | data[1]);
 4312              		.loc 1 797 14
 4313 003c 3B7A     		ldrb	r3, [r7, #8]	@ zero_extendqisi2
 4314              		.loc 1 797 18
 4315 003e 1B02     		lsls	r3, r3, #8
 4316              		.loc 1 797 23
 4317 0040 1AB2     		sxth	r2, r3
 4318              		.loc 1 797 29
 4319 0042 7B7A     		ldrb	r3, [r7, #9]	@ zero_extendqisi2
 4320 0044 1BB2     		sxth	r3, r3
 4321              		.loc 1 797 7
 4322 0046 1343     		orrs	r3, r3, r2
 4323 0048 BB81     		strh	r3, [r7, #12]	@ movhi
 798:./mpu6050/mpu6050.c **** 	mpu->Temperature = (float)((int16_t)temp / (float)340.0 + (float)36.53);
 4324              		.loc 1 798 43
 4325 004a B7F90C30 		ldrsh	r3, [r7, #12]
 4326 004e 1846     		mov	r0, r3
 4327 0050 FFF7FEFF 		bl	__aeabi_i2f
 4328 0054 0346     		mov	r3, r0
 4329 0056 1449     		ldr	r1, .L263+4
 4330 0058 1846     		mov	r0, r3
 4331 005a FFF7FEFF 		bl	__aeabi_fdiv
 4332 005e 0346     		mov	r3, r0
 4333              		.loc 1 798 21
 4334 0060 1249     		ldr	r1, .L263+8
 4335 0062 1846     		mov	r0, r3
 4336 0064 FFF7FEFF 		bl	__aeabi_fadd
 4337 0068 0346     		mov	r3, r0
 4338 006a 1A46     		mov	r2, r3
ARM GAS  C:\Users\SAMEER~1.ALM\AppData\Local\Temp\ccKQVuZd.s 			page 90


 4339              		.loc 1 798 19
 4340 006c 7B68     		ldr	r3, [r7, #4]
 4341 006e 5A65     		str	r2, [r3, #84]	@ float
 4342              	.LBB4:
 799:./mpu6050/mpu6050.c **** 	for(uint8_t i=0;i<MPU6050_RAW_TEMP_LEN;i++)
 4343              		.loc 1 799 14
 4344 0070 0023     		movs	r3, #0
 4345 0072 FB73     		strb	r3, [r7, #15]
 4346              		.loc 1 799 2
 4347 0074 0DE0     		b	.L260
 4348              	.L261:
 800:./mpu6050/mpu6050.c **** 	 mpu->data.Array[MPU6050_RAW_TEMP_Base +i]=data[i];
 4349              		.loc 1 800 49 discriminator 3
 4350 0076 FA7B     		ldrb	r2, [r7, #15]	@ zero_extendqisi2
 4351              		.loc 1 800 41 discriminator 3
 4352 0078 FB7B     		ldrb	r3, [r7, #15]	@ zero_extendqisi2
 4353 007a 0633     		adds	r3, r3, #6
 4354              		.loc 1 800 49 discriminator 3
 4355 007c 1032     		adds	r2, r2, #16
 4356 007e 3A44     		add	r2, r2, r7
 4357 0080 12F8081C 		ldrb	r1, [r2, #-8]	@ zero_extendqisi2
 4358              		.loc 1 800 44 discriminator 3
 4359 0084 7A68     		ldr	r2, [r7, #4]
 4360 0086 1344     		add	r3, r3, r2
 4361 0088 0A46     		mov	r2, r1
 4362 008a 5A70     		strb	r2, [r3, #1]
 799:./mpu6050/mpu6050.c **** 	for(uint8_t i=0;i<MPU6050_RAW_TEMP_LEN;i++)
 4363              		.loc 1 799 42 discriminator 3
 4364 008c FB7B     		ldrb	r3, [r7, #15]	@ zero_extendqisi2
 4365 008e 0133     		adds	r3, r3, #1
 4366 0090 FB73     		strb	r3, [r7, #15]
 4367              	.L260:
 799:./mpu6050/mpu6050.c **** 	for(uint8_t i=0;i<MPU6050_RAW_TEMP_LEN;i++)
 4368              		.loc 1 799 2 discriminator 1
 4369 0092 FB7B     		ldrb	r3, [r7, #15]	@ zero_extendqisi2
 4370 0094 012B     		cmp	r3, #1
 4371 0096 EED9     		bls	.L261
 4372              	.LBE4:
 801:./mpu6050/mpu6050.c **** 
 802:./mpu6050/mpu6050.c ****  /* Return OK */
 803:./mpu6050/mpu6050.c **** 	return  MPU6050_OK; 
 4373              		.loc 1 803 10
 4374 0098 0023     		movs	r3, #0
 4375              	.L262:
 804:./mpu6050/mpu6050.c **** }
 4376              		.loc 1 804 1 discriminator 1
 4377 009a 1846     		mov	r0, r3
 4378 009c 1037     		adds	r7, r7, #16
 4379              	.LCFI214:
 4380              		.cfi_def_cfa_offset 8
 4381 009e BD46     		mov	sp, r7
 4382              	.LCFI215:
 4383              		.cfi_def_cfa_register 13
 4384              		@ sp needed
 4385 00a0 80BD     		pop	{r7, pc}
 4386              	.L264:
 4387 00a2 00BF     		.align	2
ARM GAS  C:\Users\SAMEER~1.ALM\AppData\Local\Temp\ccKQVuZd.s 			page 91


 4388              	.L263:
 4389 00a4 00540040 		.word	1073763328
 4390 00a8 0000AA43 		.word	1135214592
 4391 00ac B81E1242 		.word	1108483768
 4392              		.cfi_endproc
 4393              	.LFE74:
 4395              		.section	.text.mpu6050_read_All,"ax",%progbits
 4396              		.align	1
 4397              		.global	mpu6050_read_All
 4398              		.syntax unified
 4399              		.thumb
 4400              		.thumb_func
 4402              	mpu6050_read_All:
 4403              	.LFB75:
 805:./mpu6050/mpu6050.c **** //-------------------------------------------------------------------------------------------------
 806:./mpu6050/mpu6050.c **** /**
 807:./mpu6050/mpu6050.c ****  * @brief  Reads accelerometer, gyroscope and temperature data from sensor
 808:./mpu6050/mpu6050.c ****  * @param  mpu: Pointer to @ref MPU6050_t structure to store data to
 809:./mpu6050/mpu6050.c ****  * @retval Member of @ref MPU6050_Result_t:
 810:./mpu6050/mpu6050.c ****  *            - MPU6050_Result_Ok: everything is OK
 811:./mpu6050/mpu6050.c ****  *            - Other: in other cases
 812:./mpu6050/mpu6050.c ****  */
 813:./mpu6050/mpu6050.c **** uint8_t mpu6050_read_All(MPU6050_t* mpu)
 814:./mpu6050/mpu6050.c **** {
 4404              		.loc 1 814 1
 4405              		.cfi_startproc
 4406              		@ args = 0, pretend = 0, frame = 16
 4407              		@ frame_needed = 1, uses_anonymous_args = 0
 4408 0000 80B5     		push	{r7, lr}
 4409              	.LCFI216:
 4410              		.cfi_def_cfa_offset 8
 4411              		.cfi_offset 7, -8
 4412              		.cfi_offset 14, -4
 4413 0002 86B0     		sub	sp, sp, #24
 4414              	.LCFI217:
 4415              		.cfi_def_cfa_offset 32
 4416 0004 02AF     		add	r7, sp, #8
 4417              	.LCFI218:
 4418              		.cfi_def_cfa 7, 24
 4419 0006 7860     		str	r0, [r7, #4]
 815:./mpu6050/mpu6050.c **** 	
 816:./mpu6050/mpu6050.c **** 	int16_t temp ;
 817:./mpu6050/mpu6050.c **** 	uint8_t error=0; 
 4420              		.loc 1 817 10
 4421 0008 0023     		movs	r3, #0
 4422 000a FB73     		strb	r3, [r7, #15]
 818:./mpu6050/mpu6050.c **** 	mpu6050_clear_All(mpu);
 4423              		.loc 1 818 2
 4424 000c 7868     		ldr	r0, [r7, #4]
 4425 000e FFF7FEFF 		bl	mpu6050_clear_All
 819:./mpu6050/mpu6050.c **** 	/* Read full raw data, 14bytes */
 820:./mpu6050/mpu6050.c **** 	error=i2c_read_7bit_base_nbyte_std(MPU6050_I2C, mpu->Address, MPU6050_ACCEL_XOUT_H, mpu->data.Arra
 4426              		.loc 1 820 8
 4427 0012 7B68     		ldr	r3, [r7, #4]
 4428 0014 1978     		ldrb	r1, [r3]	@ zero_extendqisi2
 4429              		.loc 1 820 95
 4430 0016 7B68     		ldr	r3, [r7, #4]
ARM GAS  C:\Users\SAMEER~1.ALM\AppData\Local\Temp\ccKQVuZd.s 			page 92


 4431 0018 0133     		adds	r3, r3, #1
 4432              		.loc 1 820 8
 4433 001a 0E22     		movs	r2, #14
 4434 001c 0092     		str	r2, [sp]
 4435 001e 3B22     		movs	r2, #59
 4436 0020 8748     		ldr	r0, .L268
 4437 0022 FFF7FEFF 		bl	i2c_read_7bit_base_nbyte_std
 4438 0026 0346     		mov	r3, r0
 4439 0028 FB73     		strb	r3, [r7, #15]
 821:./mpu6050/mpu6050.c **** 	if(error) return error;
 4440              		.loc 1 821 4
 4441 002a FB7B     		ldrb	r3, [r7, #15]	@ zero_extendqisi2
 4442 002c 002B     		cmp	r3, #0
 4443 002e 01D0     		beq	.L266
 4444              		.loc 1 821 19 discriminator 1
 4445 0030 FB7B     		ldrb	r3, [r7, #15]	@ zero_extendqisi2
 4446 0032 00E1     		b	.L267
 4447              	.L266:
 822:./mpu6050/mpu6050.c **** 
 823:./mpu6050/mpu6050.c **** 	/* Format accelerometer data */
 824:./mpu6050/mpu6050.c **** 	mpu->Accelerometer_nX = (int16_t)(mpu->data.Array[0] << 8 | mpu->data.Array[1]);	
 4448              		.loc 1 824 51
 4449 0034 7B68     		ldr	r3, [r7, #4]
 4450 0036 5B78     		ldrb	r3, [r3, #1]	@ zero_extendqisi2
 4451              		.loc 1 824 55
 4452 0038 1B02     		lsls	r3, r3, #8
 4453              		.loc 1 824 26
 4454 003a 1AB2     		sxth	r2, r3
 4455              		.loc 1 824 77
 4456 003c 7B68     		ldr	r3, [r7, #4]
 4457 003e 9B78     		ldrb	r3, [r3, #2]	@ zero_extendqisi2
 4458 0040 1BB2     		sxth	r3, r3
 4459              		.loc 1 824 26
 4460 0042 1343     		orrs	r3, r3, r2
 4461 0044 1AB2     		sxth	r2, r3
 4462              		.loc 1 824 24
 4463 0046 7B68     		ldr	r3, [r7, #4]
 4464 0048 1A82     		strh	r2, [r3, #16]	@ movhi
 825:./mpu6050/mpu6050.c **** 	mpu->Accelerometer_nY = (int16_t)(mpu->data.Array[2] << 8 | mpu->data.Array[3]);
 4465              		.loc 1 825 51
 4466 004a 7B68     		ldr	r3, [r7, #4]
 4467 004c DB78     		ldrb	r3, [r3, #3]	@ zero_extendqisi2
 4468              		.loc 1 825 55
 4469 004e 1B02     		lsls	r3, r3, #8
 4470              		.loc 1 825 26
 4471 0050 1AB2     		sxth	r2, r3
 4472              		.loc 1 825 77
 4473 0052 7B68     		ldr	r3, [r7, #4]
 4474 0054 1B79     		ldrb	r3, [r3, #4]	@ zero_extendqisi2
 4475 0056 1BB2     		sxth	r3, r3
 4476              		.loc 1 825 26
 4477 0058 1343     		orrs	r3, r3, r2
 4478 005a 1AB2     		sxth	r2, r3
 4479              		.loc 1 825 24
 4480 005c 7B68     		ldr	r3, [r7, #4]
 4481 005e 5A82     		strh	r2, [r3, #18]	@ movhi
 826:./mpu6050/mpu6050.c **** 	mpu->Accelerometer_nZ = (int16_t)(mpu->data.Array[4] << 8 | mpu->data.Array[5]);
ARM GAS  C:\Users\SAMEER~1.ALM\AppData\Local\Temp\ccKQVuZd.s 			page 93


 4482              		.loc 1 826 51
 4483 0060 7B68     		ldr	r3, [r7, #4]
 4484 0062 5B79     		ldrb	r3, [r3, #5]	@ zero_extendqisi2
 4485              		.loc 1 826 55
 4486 0064 1B02     		lsls	r3, r3, #8
 4487              		.loc 1 826 26
 4488 0066 1AB2     		sxth	r2, r3
 4489              		.loc 1 826 77
 4490 0068 7B68     		ldr	r3, [r7, #4]
 4491 006a 9B79     		ldrb	r3, [r3, #6]	@ zero_extendqisi2
 4492 006c 1BB2     		sxth	r3, r3
 4493              		.loc 1 826 26
 4494 006e 1343     		orrs	r3, r3, r2
 4495 0070 1AB2     		sxth	r2, r3
 4496              		.loc 1 826 24
 4497 0072 7B68     		ldr	r3, [r7, #4]
 4498 0074 9A82     		strh	r2, [r3, #20]	@ movhi
 827:./mpu6050/mpu6050.c ****  
 828:./mpu6050/mpu6050.c ****  	mpu->Accel_X=(float)mpu->Accelerometer_nX / mpu->Acce_scale;
 4499              		.loc 1 828 26
 4500 0076 7B68     		ldr	r3, [r7, #4]
 4501 0078 B3F91030 		ldrsh	r3, [r3, #16]
 4502              		.loc 1 828 16
 4503 007c 1846     		mov	r0, r3
 4504 007e FFF7FEFF 		bl	__aeabi_i2f
 4505 0082 0246     		mov	r2, r0
 4506              		.loc 1 828 50
 4507 0084 7B68     		ldr	r3, [r7, #4]
 4508 0086 DB69     		ldr	r3, [r3, #28]	@ float
 4509              		.loc 1 828 45
 4510 0088 1946     		mov	r1, r3
 4511 008a 1046     		mov	r0, r2
 4512 008c FFF7FEFF 		bl	__aeabi_fdiv
 4513 0090 0346     		mov	r3, r0
 4514 0092 1A46     		mov	r2, r3
 4515              		.loc 1 828 15
 4516 0094 7B68     		ldr	r3, [r7, #4]
 4517 0096 5A62     		str	r2, [r3, #36]	@ float
 829:./mpu6050/mpu6050.c **** 	mpu->Accel_Y=(float)mpu->Accelerometer_nY / mpu->Acce_scale;
 4518              		.loc 1 829 25
 4519 0098 7B68     		ldr	r3, [r7, #4]
 4520 009a B3F91230 		ldrsh	r3, [r3, #18]
 4521              		.loc 1 829 15
 4522 009e 1846     		mov	r0, r3
 4523 00a0 FFF7FEFF 		bl	__aeabi_i2f
 4524 00a4 0246     		mov	r2, r0
 4525              		.loc 1 829 49
 4526 00a6 7B68     		ldr	r3, [r7, #4]
 4527 00a8 DB69     		ldr	r3, [r3, #28]	@ float
 4528              		.loc 1 829 44
 4529 00aa 1946     		mov	r1, r3
 4530 00ac 1046     		mov	r0, r2
 4531 00ae FFF7FEFF 		bl	__aeabi_fdiv
 4532 00b2 0346     		mov	r3, r0
 4533 00b4 1A46     		mov	r2, r3
 4534              		.loc 1 829 14
 4535 00b6 7B68     		ldr	r3, [r7, #4]
ARM GAS  C:\Users\SAMEER~1.ALM\AppData\Local\Temp\ccKQVuZd.s 			page 94


 4536 00b8 9A62     		str	r2, [r3, #40]	@ float
 830:./mpu6050/mpu6050.c **** 	mpu->Accel_Z=(float)mpu->Accelerometer_nZ / mpu->Acce_scale;
 4537              		.loc 1 830 25
 4538 00ba 7B68     		ldr	r3, [r7, #4]
 4539 00bc B3F91430 		ldrsh	r3, [r3, #20]
 4540              		.loc 1 830 15
 4541 00c0 1846     		mov	r0, r3
 4542 00c2 FFF7FEFF 		bl	__aeabi_i2f
 4543 00c6 0246     		mov	r2, r0
 4544              		.loc 1 830 49
 4545 00c8 7B68     		ldr	r3, [r7, #4]
 4546 00ca DB69     		ldr	r3, [r3, #28]	@ float
 4547              		.loc 1 830 44
 4548 00cc 1946     		mov	r1, r3
 4549 00ce 1046     		mov	r0, r2
 4550 00d0 FFF7FEFF 		bl	__aeabi_fdiv
 4551 00d4 0346     		mov	r3, r0
 4552 00d6 1A46     		mov	r2, r3
 4553              		.loc 1 830 14
 4554 00d8 7B68     		ldr	r3, [r7, #4]
 4555 00da DA62     		str	r2, [r3, #44]	@ float
 831:./mpu6050/mpu6050.c **** 
 832:./mpu6050/mpu6050.c **** 	mpu->Accel_gr_X= mpu->Accel_X * SENSORS_GRAVITY_STANDARD;
 4556              		.loc 1 832 22
 4557 00dc 7B68     		ldr	r3, [r7, #4]
 4558 00de 5B6A     		ldr	r3, [r3, #36]	@ float
 4559              		.loc 1 832 32
 4560 00e0 5849     		ldr	r1, .L268+4
 4561 00e2 1846     		mov	r0, r3
 4562 00e4 FFF7FEFF 		bl	__aeabi_fmul
 4563 00e8 0346     		mov	r3, r0
 4564 00ea 1A46     		mov	r2, r3
 4565              		.loc 1 832 17
 4566 00ec 7B68     		ldr	r3, [r7, #4]
 4567 00ee DA63     		str	r2, [r3, #60]	@ float
 833:./mpu6050/mpu6050.c **** 	mpu->Accel_gr_Y= mpu->Accel_Y * SENSORS_GRAVITY_STANDARD;
 4568              		.loc 1 833 22
 4569 00f0 7B68     		ldr	r3, [r7, #4]
 4570 00f2 9B6A     		ldr	r3, [r3, #40]	@ float
 4571              		.loc 1 833 32
 4572 00f4 5349     		ldr	r1, .L268+4
 4573 00f6 1846     		mov	r0, r3
 4574 00f8 FFF7FEFF 		bl	__aeabi_fmul
 4575 00fc 0346     		mov	r3, r0
 4576 00fe 1A46     		mov	r2, r3
 4577              		.loc 1 833 17
 4578 0100 7B68     		ldr	r3, [r7, #4]
 4579 0102 1A64     		str	r2, [r3, #64]	@ float
 834:./mpu6050/mpu6050.c **** 	mpu->Accel_gr_Z= mpu->Accel_Z * SENSORS_GRAVITY_STANDARD;
 4580              		.loc 1 834 22
 4581 0104 7B68     		ldr	r3, [r7, #4]
 4582 0106 DB6A     		ldr	r3, [r3, #44]	@ float
 4583              		.loc 1 834 32
 4584 0108 4E49     		ldr	r1, .L268+4
 4585 010a 1846     		mov	r0, r3
 4586 010c FFF7FEFF 		bl	__aeabi_fmul
 4587 0110 0346     		mov	r3, r0
ARM GAS  C:\Users\SAMEER~1.ALM\AppData\Local\Temp\ccKQVuZd.s 			page 95


 4588 0112 1A46     		mov	r2, r3
 4589              		.loc 1 834 17
 4590 0114 7B68     		ldr	r3, [r7, #4]
 4591 0116 5A64     		str	r2, [r3, #68]	@ float
 835:./mpu6050/mpu6050.c **** 	
 836:./mpu6050/mpu6050.c **** 	/* Format gyroscope data */
 837:./mpu6050/mpu6050.c **** 	mpu->Gyroscope_nX = (int16_t)(mpu->data.Array[8]  << 8 | mpu->data.Array[9]);
 4592              		.loc 1 837 47
 4593 0118 7B68     		ldr	r3, [r7, #4]
 4594 011a 5B7A     		ldrb	r3, [r3, #9]	@ zero_extendqisi2
 4595              		.loc 1 837 52
 4596 011c 1B02     		lsls	r3, r3, #8
 4597              		.loc 1 837 22
 4598 011e 1AB2     		sxth	r2, r3
 4599              		.loc 1 837 74
 4600 0120 7B68     		ldr	r3, [r7, #4]
 4601 0122 9B7A     		ldrb	r3, [r3, #10]	@ zero_extendqisi2
 4602 0124 1BB2     		sxth	r3, r3
 4603              		.loc 1 837 22
 4604 0126 1343     		orrs	r3, r3, r2
 4605 0128 1AB2     		sxth	r2, r3
 4606              		.loc 1 837 20
 4607 012a 7B68     		ldr	r3, [r7, #4]
 4608 012c DA82     		strh	r2, [r3, #22]	@ movhi
 838:./mpu6050/mpu6050.c **** 	mpu->Gyroscope_nY = (int16_t)(mpu->data.Array[10] << 8 | mpu->data.Array[11]);
 4609              		.loc 1 838 47
 4610 012e 7B68     		ldr	r3, [r7, #4]
 4611 0130 DB7A     		ldrb	r3, [r3, #11]	@ zero_extendqisi2
 4612              		.loc 1 838 52
 4613 0132 1B02     		lsls	r3, r3, #8
 4614              		.loc 1 838 22
 4615 0134 1AB2     		sxth	r2, r3
 4616              		.loc 1 838 74
 4617 0136 7B68     		ldr	r3, [r7, #4]
 4618 0138 1B7B     		ldrb	r3, [r3, #12]	@ zero_extendqisi2
 4619 013a 1BB2     		sxth	r3, r3
 4620              		.loc 1 838 22
 4621 013c 1343     		orrs	r3, r3, r2
 4622 013e 1AB2     		sxth	r2, r3
 4623              		.loc 1 838 20
 4624 0140 7B68     		ldr	r3, [r7, #4]
 4625 0142 1A83     		strh	r2, [r3, #24]	@ movhi
 839:./mpu6050/mpu6050.c **** 	mpu->Gyroscope_nZ = (int16_t)(mpu->data.Array[12] << 8 | mpu->data.Array[13]);
 4626              		.loc 1 839 47
 4627 0144 7B68     		ldr	r3, [r7, #4]
 4628 0146 5B7B     		ldrb	r3, [r3, #13]	@ zero_extendqisi2
 4629              		.loc 1 839 52
 4630 0148 1B02     		lsls	r3, r3, #8
 4631              		.loc 1 839 22
 4632 014a 1AB2     		sxth	r2, r3
 4633              		.loc 1 839 74
 4634 014c 7B68     		ldr	r3, [r7, #4]
 4635 014e 9B7B     		ldrb	r3, [r3, #14]	@ zero_extendqisi2
 4636 0150 1BB2     		sxth	r3, r3
 4637              		.loc 1 839 22
 4638 0152 1343     		orrs	r3, r3, r2
 4639 0154 1AB2     		sxth	r2, r3
ARM GAS  C:\Users\SAMEER~1.ALM\AppData\Local\Temp\ccKQVuZd.s 			page 96


 4640              		.loc 1 839 20
 4641 0156 7B68     		ldr	r3, [r7, #4]
 4642 0158 5A83     		strh	r2, [r3, #26]	@ movhi
 840:./mpu6050/mpu6050.c **** 
 841:./mpu6050/mpu6050.c **** 	mpu->Gyro_X=(float)mpu->Gyroscope_nX / mpu->Gyro_scale;
 4643              		.loc 1 841 24
 4644 015a 7B68     		ldr	r3, [r7, #4]
 4645 015c B3F91630 		ldrsh	r3, [r3, #22]
 4646              		.loc 1 841 14
 4647 0160 1846     		mov	r0, r3
 4648 0162 FFF7FEFF 		bl	__aeabi_i2f
 4649 0166 0246     		mov	r2, r0
 4650              		.loc 1 841 44
 4651 0168 7B68     		ldr	r3, [r7, #4]
 4652 016a 1B6A     		ldr	r3, [r3, #32]	@ float
 4653              		.loc 1 841 39
 4654 016c 1946     		mov	r1, r3
 4655 016e 1046     		mov	r0, r2
 4656 0170 FFF7FEFF 		bl	__aeabi_fdiv
 4657 0174 0346     		mov	r3, r0
 4658 0176 1A46     		mov	r2, r3
 4659              		.loc 1 841 13
 4660 0178 7B68     		ldr	r3, [r7, #4]
 4661 017a 1A63     		str	r2, [r3, #48]	@ float
 842:./mpu6050/mpu6050.c **** 	mpu->Gyro_Y=(float)mpu->Gyroscope_nY / mpu->Gyro_scale;
 4662              		.loc 1 842 24
 4663 017c 7B68     		ldr	r3, [r7, #4]
 4664 017e B3F91830 		ldrsh	r3, [r3, #24]
 4665              		.loc 1 842 14
 4666 0182 1846     		mov	r0, r3
 4667 0184 FFF7FEFF 		bl	__aeabi_i2f
 4668 0188 0246     		mov	r2, r0
 4669              		.loc 1 842 44
 4670 018a 7B68     		ldr	r3, [r7, #4]
 4671 018c 1B6A     		ldr	r3, [r3, #32]	@ float
 4672              		.loc 1 842 39
 4673 018e 1946     		mov	r1, r3
 4674 0190 1046     		mov	r0, r2
 4675 0192 FFF7FEFF 		bl	__aeabi_fdiv
 4676 0196 0346     		mov	r3, r0
 4677 0198 1A46     		mov	r2, r3
 4678              		.loc 1 842 13
 4679 019a 7B68     		ldr	r3, [r7, #4]
 4680 019c 5A63     		str	r2, [r3, #52]	@ float
 843:./mpu6050/mpu6050.c **** 	mpu->Gyro_Z=(float)mpu->Gyroscope_nZ / mpu->Gyro_scale;
 4681              		.loc 1 843 24
 4682 019e 7B68     		ldr	r3, [r7, #4]
 4683 01a0 B3F91A30 		ldrsh	r3, [r3, #26]
 4684              		.loc 1 843 14
 4685 01a4 1846     		mov	r0, r3
 4686 01a6 FFF7FEFF 		bl	__aeabi_i2f
 4687 01aa 0246     		mov	r2, r0
 4688              		.loc 1 843 44
 4689 01ac 7B68     		ldr	r3, [r7, #4]
 4690 01ae 1B6A     		ldr	r3, [r3, #32]	@ float
 4691              		.loc 1 843 39
 4692 01b0 1946     		mov	r1, r3
ARM GAS  C:\Users\SAMEER~1.ALM\AppData\Local\Temp\ccKQVuZd.s 			page 97


 4693 01b2 1046     		mov	r0, r2
 4694 01b4 FFF7FEFF 		bl	__aeabi_fdiv
 4695 01b8 0346     		mov	r3, r0
 4696 01ba 1A46     		mov	r2, r3
 4697              		.loc 1 843 13
 4698 01bc 7B68     		ldr	r3, [r7, #4]
 4699 01be 9A63     		str	r2, [r3, #56]	@ float
 844:./mpu6050/mpu6050.c **** 
 845:./mpu6050/mpu6050.c **** 	mpu->Gyro_rd_X= mpu->Gyro_X * SENSORS_DPS_TO_RADS;
 4700              		.loc 1 845 21
 4701 01c0 7B68     		ldr	r3, [r7, #4]
 4702 01c2 1B6B     		ldr	r3, [r3, #48]	@ float
 4703              		.loc 1 845 30
 4704 01c4 2049     		ldr	r1, .L268+8
 4705 01c6 1846     		mov	r0, r3
 4706 01c8 FFF7FEFF 		bl	__aeabi_fmul
 4707 01cc 0346     		mov	r3, r0
 4708 01ce 1A46     		mov	r2, r3
 4709              		.loc 1 845 16
 4710 01d0 7B68     		ldr	r3, [r7, #4]
 4711 01d2 9A64     		str	r2, [r3, #72]	@ float
 846:./mpu6050/mpu6050.c **** 	mpu->Gyro_rd_Y= mpu->Gyro_Y * SENSORS_DPS_TO_RADS;
 4712              		.loc 1 846 21
 4713 01d4 7B68     		ldr	r3, [r7, #4]
 4714 01d6 5B6B     		ldr	r3, [r3, #52]	@ float
 4715              		.loc 1 846 30
 4716 01d8 1B49     		ldr	r1, .L268+8
 4717 01da 1846     		mov	r0, r3
 4718 01dc FFF7FEFF 		bl	__aeabi_fmul
 4719 01e0 0346     		mov	r3, r0
 4720 01e2 1A46     		mov	r2, r3
 4721              		.loc 1 846 16
 4722 01e4 7B68     		ldr	r3, [r7, #4]
 4723 01e6 DA64     		str	r2, [r3, #76]	@ float
 847:./mpu6050/mpu6050.c **** 	mpu->Gyro_rd_Z= mpu->Gyro_Z * SENSORS_DPS_TO_RADS;
 4724              		.loc 1 847 21
 4725 01e8 7B68     		ldr	r3, [r7, #4]
 4726 01ea 9B6B     		ldr	r3, [r3, #56]	@ float
 4727              		.loc 1 847 30
 4728 01ec 1649     		ldr	r1, .L268+8
 4729 01ee 1846     		mov	r0, r3
 4730 01f0 FFF7FEFF 		bl	__aeabi_fmul
 4731 01f4 0346     		mov	r3, r0
 4732 01f6 1A46     		mov	r2, r3
 4733              		.loc 1 847 16
 4734 01f8 7B68     		ldr	r3, [r7, #4]
 4735 01fa 1A65     		str	r2, [r3, #80]	@ float
 848:./mpu6050/mpu6050.c **** 
 849:./mpu6050/mpu6050.c **** 	/* Format temperature */
 850:./mpu6050/mpu6050.c **** 	temp = (mpu->data.Array[6] << 8 | mpu->data.Array[7]);
 4736              		.loc 1 850 25
 4737 01fc 7B68     		ldr	r3, [r7, #4]
 4738 01fe DB79     		ldrb	r3, [r3, #7]	@ zero_extendqisi2
 4739              		.loc 1 850 29
 4740 0200 1B02     		lsls	r3, r3, #8
 4741              		.loc 1 850 34
 4742 0202 1AB2     		sxth	r2, r3
ARM GAS  C:\Users\SAMEER~1.ALM\AppData\Local\Temp\ccKQVuZd.s 			page 98


 4743              		.loc 1 850 51
 4744 0204 7B68     		ldr	r3, [r7, #4]
 4745 0206 1B7A     		ldrb	r3, [r3, #8]	@ zero_extendqisi2
 4746 0208 1BB2     		sxth	r3, r3
 4747              		.loc 1 850 7
 4748 020a 1343     		orrs	r3, r3, r2
 4749 020c BB81     		strh	r3, [r7, #12]	@ movhi
 851:./mpu6050/mpu6050.c **** 	mpu->Temperature = (float)((float)( (int16_t)temp) / (float)340.0f + (float)36.53);
 4750              		.loc 1 851 29
 4751 020e B7F90C30 		ldrsh	r3, [r7, #12]
 4752 0212 1846     		mov	r0, r3
 4753 0214 FFF7FEFF 		bl	__aeabi_i2f
 4754 0218 0346     		mov	r3, r0
 4755              		.loc 1 851 53
 4756 021a 0C49     		ldr	r1, .L268+12
 4757 021c 1846     		mov	r0, r3
 4758 021e FFF7FEFF 		bl	__aeabi_fdiv
 4759 0222 0346     		mov	r3, r0
 4760              		.loc 1 851 21
 4761 0224 0A49     		ldr	r1, .L268+16
 4762 0226 1846     		mov	r0, r3
 4763 0228 FFF7FEFF 		bl	__aeabi_fadd
 4764 022c 0346     		mov	r3, r0
 4765 022e 1A46     		mov	r2, r3
 4766              		.loc 1 851 19
 4767 0230 7B68     		ldr	r3, [r7, #4]
 4768 0232 5A65     		str	r2, [r3, #84]	@ float
 852:./mpu6050/mpu6050.c **** 
 853:./mpu6050/mpu6050.c **** 	/* Return OK */
 854:./mpu6050/mpu6050.c **** 	return MPU6050_OK; //  or return I2C_OK;
 4769              		.loc 1 854 9
 4770 0234 0023     		movs	r3, #0
 4771              	.L267:
 855:./mpu6050/mpu6050.c **** }
 4772              		.loc 1 855 1
 4773 0236 1846     		mov	r0, r3
 4774 0238 1037     		adds	r7, r7, #16
 4775              	.LCFI219:
 4776              		.cfi_def_cfa_offset 8
 4777 023a BD46     		mov	sp, r7
 4778              	.LCFI220:
 4779              		.cfi_def_cfa_register 13
 4780              		@ sp needed
 4781 023c 80BD     		pop	{r7, pc}
 4782              	.L269:
 4783 023e 00BF     		.align	2
 4784              	.L268:
 4785 0240 00540040 		.word	1073763328
 4786 0244 0AE81C41 		.word	1092413450
 4787 0248 35FA8E3C 		.word	1016003125
 4788 024c 0000AA43 		.word	1135214592
 4789 0250 B81E1242 		.word	1108483768
 4790              		.cfi_endproc
 4791              	.LFE75:
 4793              		.section	.text.mpu6050_read,"ax",%progbits
 4794              		.align	1
 4795              		.global	mpu6050_read
ARM GAS  C:\Users\SAMEER~1.ALM\AppData\Local\Temp\ccKQVuZd.s 			page 99


 4796              		.syntax unified
 4797              		.thumb
 4798              		.thumb_func
 4800              	mpu6050_read:
 4801              	.LFB76:
 856:./mpu6050/mpu6050.c **** //-------------------------------------------------------------------------------------------------
 857:./mpu6050/mpu6050.c **** 
 858:./mpu6050/mpu6050.c **** uint8_t mpu6050_read(MPU6050_t* mpu,uint8_t acq_sense)
 859:./mpu6050/mpu6050.c **** {
 4802              		.loc 1 859 1
 4803              		.cfi_startproc
 4804              		@ args = 0, pretend = 0, frame = 8
 4805              		@ frame_needed = 1, uses_anonymous_args = 0
 4806 0000 80B5     		push	{r7, lr}
 4807              	.LCFI221:
 4808              		.cfi_def_cfa_offset 8
 4809              		.cfi_offset 7, -8
 4810              		.cfi_offset 14, -4
 4811 0002 82B0     		sub	sp, sp, #8
 4812              	.LCFI222:
 4813              		.cfi_def_cfa_offset 16
 4814 0004 00AF     		add	r7, sp, #0
 4815              	.LCFI223:
 4816              		.cfi_def_cfa_register 7
 4817 0006 7860     		str	r0, [r7, #4]
 4818 0008 0B46     		mov	r3, r1
 4819 000a FB70     		strb	r3, [r7, #3]
 860:./mpu6050/mpu6050.c **** 	
 861:./mpu6050/mpu6050.c **** 		switch(acq_sense)
 4820              		.loc 1 861 3
 4821 000c FB78     		ldrb	r3, [r7, #3]	@ zero_extendqisi2
 4822 000e 032B     		cmp	r3, #3
 4823 0010 10D0     		beq	.L271
 4824 0012 032B     		cmp	r3, #3
 4825 0014 13DC     		bgt	.L272
 4826 0016 012B     		cmp	r3, #1
 4827 0018 02D0     		beq	.L273
 4828 001a 022B     		cmp	r3, #2
 4829 001c 05D0     		beq	.L274
 4830 001e 0EE0     		b	.L272
 4831              	.L273:
 862:./mpu6050/mpu6050.c **** 		{
 863:./mpu6050/mpu6050.c **** 
 864:./mpu6050/mpu6050.c **** 			case MPU_ACQ_SENSE_ACC: return  mpu6050_read_Accelerometer(mpu);		
 4832              		.loc 1 864 36
 4833 0020 7868     		ldr	r0, [r7, #4]
 4834 0022 FFF7FEFF 		bl	mpu6050_read_Accelerometer
 4835 0026 0346     		mov	r3, r0
 4836 0028 0DE0     		b	.L275
 4837              	.L274:
 865:./mpu6050/mpu6050.c **** 			case MPU_ACQ_SENSE_GYR: return 	mpu6050_read_Gyroscope(mpu); 
 4838              		.loc 1 865 36
 4839 002a 7868     		ldr	r0, [r7, #4]
 4840 002c FFF7FEFF 		bl	mpu6050_read_Gyroscope
 4841 0030 0346     		mov	r3, r0
 4842 0032 08E0     		b	.L275
 4843              	.L271:
ARM GAS  C:\Users\SAMEER~1.ALM\AppData\Local\Temp\ccKQVuZd.s 			page 100


 866:./mpu6050/mpu6050.c **** 			case MPU_ACQ_SENSE_TEM: return 	mpu6050_read_Temperature(mpu); 
 4844              		.loc 1 866 36
 4845 0034 7868     		ldr	r0, [r7, #4]
 4846 0036 FFF7FEFF 		bl	mpu6050_read_Temperature
 4847 003a 0346     		mov	r3, r0
 4848 003c 03E0     		b	.L275
 4849              	.L272:
 867:./mpu6050/mpu6050.c **** 
 868:./mpu6050/mpu6050.c **** 			case MPU_ACQ_SENSE_ALL: 		 						
 869:./mpu6050/mpu6050.c **** 			case MPU_ACQ_SENSE_ACC_GYR:  
 870:./mpu6050/mpu6050.c **** 			case MPU_ACQ_SENSE_ACC_TEM:
 871:./mpu6050/mpu6050.c **** 			case MPU_ACQ_SENSE_GYR_TEM:
 872:./mpu6050/mpu6050.c **** 			default:
 873:./mpu6050/mpu6050.c **** 					return 	mpu6050_read_All(mpu);
 4850              		.loc 1 873 14
