ARM GAS  C:\Users\SAMEER~1.ALM\AppData\Local\Temp\ccWED5M3.s 			page 1


   1              		.cpu cortex-m3
   2              		.arch armv7-m
   3              		.fpu softvfp
   4              		.eabi_attribute 20, 1
   5              		.eabi_attribute 21, 1
   6              		.eabi_attribute 23, 3
   7              		.eabi_attribute 24, 1
   8              		.eabi_attribute 25, 1
   9              		.eabi_attribute 26, 1
  10              		.eabi_attribute 30, 6
  11              		.eabi_attribute 34, 1
  12              		.eabi_attribute 18, 4
  13              		.file	"stm32f10x_fsmc.c"
  14              		.text
  15              	.Ltext0:
  16              		.cfi_sections	.debug_frame
  17              		.section	.text.FSMC_NORSRAMDeInit,"ax",%progbits
  18              		.align	1
  19              		.global	FSMC_NORSRAMDeInit
  20              		.syntax unified
  21              		.thumb
  22              		.thumb_func
  24              	FSMC_NORSRAMDeInit:
  25              	.LFB29:
  26              		.file 1 "./.driver/STM32F10x_StdPeriph_Driver/src/stm32f10x_fsmc.c"
   1:./.driver/STM32F10x_StdPeriph_Driver/src/stm32f10x_fsmc.c **** /**
   2:./.driver/STM32F10x_StdPeriph_Driver/src/stm32f10x_fsmc.c ****   ******************************************************************************
   3:./.driver/STM32F10x_StdPeriph_Driver/src/stm32f10x_fsmc.c ****   * @file    stm32f10x_fsmc.c
   4:./.driver/STM32F10x_StdPeriph_Driver/src/stm32f10x_fsmc.c ****   * @author  MCD Application Team
   5:./.driver/STM32F10x_StdPeriph_Driver/src/stm32f10x_fsmc.c ****   * @version V3.6.2
   6:./.driver/STM32F10x_StdPeriph_Driver/src/stm32f10x_fsmc.c ****   * @date    17-September-2021
   7:./.driver/STM32F10x_StdPeriph_Driver/src/stm32f10x_fsmc.c ****   * @brief   This file provides all the FSMC firmware functions.
   8:./.driver/STM32F10x_StdPeriph_Driver/src/stm32f10x_fsmc.c ****   ******************************************************************************
   9:./.driver/STM32F10x_StdPeriph_Driver/src/stm32f10x_fsmc.c ****   * @attention
  10:./.driver/STM32F10x_StdPeriph_Driver/src/stm32f10x_fsmc.c ****   *
  11:./.driver/STM32F10x_StdPeriph_Driver/src/stm32f10x_fsmc.c ****   * Copyright (c) 2012 STMicroelectronics.
  12:./.driver/STM32F10x_StdPeriph_Driver/src/stm32f10x_fsmc.c ****   * All rights reserved.
  13:./.driver/STM32F10x_StdPeriph_Driver/src/stm32f10x_fsmc.c ****   *
  14:./.driver/STM32F10x_StdPeriph_Driver/src/stm32f10x_fsmc.c ****   * This software is licensed under terms that can be found in the LICENSE file
  15:./.driver/STM32F10x_StdPeriph_Driver/src/stm32f10x_fsmc.c ****   * in the root directory of this software component.
  16:./.driver/STM32F10x_StdPeriph_Driver/src/stm32f10x_fsmc.c ****   * If no LICENSE file comes with this software, it is provided AS-IS.
  17:./.driver/STM32F10x_StdPeriph_Driver/src/stm32f10x_fsmc.c ****   *
  18:./.driver/STM32F10x_StdPeriph_Driver/src/stm32f10x_fsmc.c ****   ******************************************************************************
  19:./.driver/STM32F10x_StdPeriph_Driver/src/stm32f10x_fsmc.c ****   */
  20:./.driver/STM32F10x_StdPeriph_Driver/src/stm32f10x_fsmc.c **** 
  21:./.driver/STM32F10x_StdPeriph_Driver/src/stm32f10x_fsmc.c **** /* Includes ------------------------------------------------------------------*/
  22:./.driver/STM32F10x_StdPeriph_Driver/src/stm32f10x_fsmc.c **** #include "stm32f10x_fsmc.h"
  23:./.driver/STM32F10x_StdPeriph_Driver/src/stm32f10x_fsmc.c **** #include "stm32f10x_rcc.h"
  24:./.driver/STM32F10x_StdPeriph_Driver/src/stm32f10x_fsmc.c **** 
  25:./.driver/STM32F10x_StdPeriph_Driver/src/stm32f10x_fsmc.c **** /** @addtogroup STM32F10x_StdPeriph_Driver
  26:./.driver/STM32F10x_StdPeriph_Driver/src/stm32f10x_fsmc.c ****   * @{
  27:./.driver/STM32F10x_StdPeriph_Driver/src/stm32f10x_fsmc.c ****   */
  28:./.driver/STM32F10x_StdPeriph_Driver/src/stm32f10x_fsmc.c **** 
  29:./.driver/STM32F10x_StdPeriph_Driver/src/stm32f10x_fsmc.c **** /** @defgroup FSMC 
  30:./.driver/STM32F10x_StdPeriph_Driver/src/stm32f10x_fsmc.c ****   * @brief FSMC driver modules
  31:./.driver/STM32F10x_StdPeriph_Driver/src/stm32f10x_fsmc.c ****   * @{
  32:./.driver/STM32F10x_StdPeriph_Driver/src/stm32f10x_fsmc.c ****   */ 
ARM GAS  C:\Users\SAMEER~1.ALM\AppData\Local\Temp\ccWED5M3.s 			page 2


  33:./.driver/STM32F10x_StdPeriph_Driver/src/stm32f10x_fsmc.c **** 
  34:./.driver/STM32F10x_StdPeriph_Driver/src/stm32f10x_fsmc.c **** /** @defgroup FSMC_Private_TypesDefinitions
  35:./.driver/STM32F10x_StdPeriph_Driver/src/stm32f10x_fsmc.c ****   * @{
  36:./.driver/STM32F10x_StdPeriph_Driver/src/stm32f10x_fsmc.c ****   */ 
  37:./.driver/STM32F10x_StdPeriph_Driver/src/stm32f10x_fsmc.c **** /**
  38:./.driver/STM32F10x_StdPeriph_Driver/src/stm32f10x_fsmc.c ****   * @}
  39:./.driver/STM32F10x_StdPeriph_Driver/src/stm32f10x_fsmc.c ****   */
  40:./.driver/STM32F10x_StdPeriph_Driver/src/stm32f10x_fsmc.c **** 
  41:./.driver/STM32F10x_StdPeriph_Driver/src/stm32f10x_fsmc.c **** /** @defgroup FSMC_Private_Defines
  42:./.driver/STM32F10x_StdPeriph_Driver/src/stm32f10x_fsmc.c ****   * @{
  43:./.driver/STM32F10x_StdPeriph_Driver/src/stm32f10x_fsmc.c ****   */
  44:./.driver/STM32F10x_StdPeriph_Driver/src/stm32f10x_fsmc.c **** 
  45:./.driver/STM32F10x_StdPeriph_Driver/src/stm32f10x_fsmc.c **** /* --------------------- FSMC registers bit mask ---------------------------- */
  46:./.driver/STM32F10x_StdPeriph_Driver/src/stm32f10x_fsmc.c **** 
  47:./.driver/STM32F10x_StdPeriph_Driver/src/stm32f10x_fsmc.c **** /* FSMC BCRx Mask */
  48:./.driver/STM32F10x_StdPeriph_Driver/src/stm32f10x_fsmc.c **** #define BCR_MBKEN_Set                       ((uint32_t)0x00000001)
  49:./.driver/STM32F10x_StdPeriph_Driver/src/stm32f10x_fsmc.c **** #define BCR_MBKEN_Reset                     ((uint32_t)0x000FFFFE)
  50:./.driver/STM32F10x_StdPeriph_Driver/src/stm32f10x_fsmc.c **** #define BCR_FACCEN_Set                      ((uint32_t)0x00000040)
  51:./.driver/STM32F10x_StdPeriph_Driver/src/stm32f10x_fsmc.c **** 
  52:./.driver/STM32F10x_StdPeriph_Driver/src/stm32f10x_fsmc.c **** /* FSMC PCRx Mask */
  53:./.driver/STM32F10x_StdPeriph_Driver/src/stm32f10x_fsmc.c **** #define PCR_PBKEN_Set                       ((uint32_t)0x00000004)
  54:./.driver/STM32F10x_StdPeriph_Driver/src/stm32f10x_fsmc.c **** #define PCR_PBKEN_Reset                     ((uint32_t)0x000FFFFB)
  55:./.driver/STM32F10x_StdPeriph_Driver/src/stm32f10x_fsmc.c **** #define PCR_ECCEN_Set                       ((uint32_t)0x00000040)
  56:./.driver/STM32F10x_StdPeriph_Driver/src/stm32f10x_fsmc.c **** #define PCR_ECCEN_Reset                     ((uint32_t)0x000FFFBF)
  57:./.driver/STM32F10x_StdPeriph_Driver/src/stm32f10x_fsmc.c **** #define PCR_MemoryType_NAND                 ((uint32_t)0x00000008)
  58:./.driver/STM32F10x_StdPeriph_Driver/src/stm32f10x_fsmc.c **** /**
  59:./.driver/STM32F10x_StdPeriph_Driver/src/stm32f10x_fsmc.c ****   * @}
  60:./.driver/STM32F10x_StdPeriph_Driver/src/stm32f10x_fsmc.c ****   */
  61:./.driver/STM32F10x_StdPeriph_Driver/src/stm32f10x_fsmc.c **** 
  62:./.driver/STM32F10x_StdPeriph_Driver/src/stm32f10x_fsmc.c **** /** @defgroup FSMC_Private_Macros
  63:./.driver/STM32F10x_StdPeriph_Driver/src/stm32f10x_fsmc.c ****   * @{
  64:./.driver/STM32F10x_StdPeriph_Driver/src/stm32f10x_fsmc.c ****   */
  65:./.driver/STM32F10x_StdPeriph_Driver/src/stm32f10x_fsmc.c **** 
  66:./.driver/STM32F10x_StdPeriph_Driver/src/stm32f10x_fsmc.c **** /**
  67:./.driver/STM32F10x_StdPeriph_Driver/src/stm32f10x_fsmc.c ****   * @}
  68:./.driver/STM32F10x_StdPeriph_Driver/src/stm32f10x_fsmc.c ****   */
  69:./.driver/STM32F10x_StdPeriph_Driver/src/stm32f10x_fsmc.c **** 
  70:./.driver/STM32F10x_StdPeriph_Driver/src/stm32f10x_fsmc.c **** /** @defgroup FSMC_Private_Variables
  71:./.driver/STM32F10x_StdPeriph_Driver/src/stm32f10x_fsmc.c ****   * @{
  72:./.driver/STM32F10x_StdPeriph_Driver/src/stm32f10x_fsmc.c ****   */
  73:./.driver/STM32F10x_StdPeriph_Driver/src/stm32f10x_fsmc.c **** 
  74:./.driver/STM32F10x_StdPeriph_Driver/src/stm32f10x_fsmc.c **** /**
  75:./.driver/STM32F10x_StdPeriph_Driver/src/stm32f10x_fsmc.c ****   * @}
  76:./.driver/STM32F10x_StdPeriph_Driver/src/stm32f10x_fsmc.c ****   */
  77:./.driver/STM32F10x_StdPeriph_Driver/src/stm32f10x_fsmc.c **** 
  78:./.driver/STM32F10x_StdPeriph_Driver/src/stm32f10x_fsmc.c **** /** @defgroup FSMC_Private_FunctionPrototypes
  79:./.driver/STM32F10x_StdPeriph_Driver/src/stm32f10x_fsmc.c ****   * @{
  80:./.driver/STM32F10x_StdPeriph_Driver/src/stm32f10x_fsmc.c ****   */
  81:./.driver/STM32F10x_StdPeriph_Driver/src/stm32f10x_fsmc.c **** 
  82:./.driver/STM32F10x_StdPeriph_Driver/src/stm32f10x_fsmc.c **** /**
  83:./.driver/STM32F10x_StdPeriph_Driver/src/stm32f10x_fsmc.c ****   * @}
  84:./.driver/STM32F10x_StdPeriph_Driver/src/stm32f10x_fsmc.c ****   */
  85:./.driver/STM32F10x_StdPeriph_Driver/src/stm32f10x_fsmc.c **** 
  86:./.driver/STM32F10x_StdPeriph_Driver/src/stm32f10x_fsmc.c **** /** @defgroup FSMC_Private_Functions
  87:./.driver/STM32F10x_StdPeriph_Driver/src/stm32f10x_fsmc.c ****   * @{
  88:./.driver/STM32F10x_StdPeriph_Driver/src/stm32f10x_fsmc.c ****   */
  89:./.driver/STM32F10x_StdPeriph_Driver/src/stm32f10x_fsmc.c **** 
ARM GAS  C:\Users\SAMEER~1.ALM\AppData\Local\Temp\ccWED5M3.s 			page 3


  90:./.driver/STM32F10x_StdPeriph_Driver/src/stm32f10x_fsmc.c **** /**
  91:./.driver/STM32F10x_StdPeriph_Driver/src/stm32f10x_fsmc.c ****   * @brief  Deinitializes the FSMC NOR/SRAM Banks registers to their default 
  92:./.driver/STM32F10x_StdPeriph_Driver/src/stm32f10x_fsmc.c ****   *         reset values.
  93:./.driver/STM32F10x_StdPeriph_Driver/src/stm32f10x_fsmc.c ****   * @param  FSMC_Bank: specifies the FSMC Bank to be used
  94:./.driver/STM32F10x_StdPeriph_Driver/src/stm32f10x_fsmc.c ****   *   This parameter can be one of the following values:
  95:./.driver/STM32F10x_StdPeriph_Driver/src/stm32f10x_fsmc.c ****   *     @arg FSMC_Bank1_NORSRAM1: FSMC Bank1 NOR/SRAM1  
  96:./.driver/STM32F10x_StdPeriph_Driver/src/stm32f10x_fsmc.c ****   *     @arg FSMC_Bank1_NORSRAM2: FSMC Bank1 NOR/SRAM2 
  97:./.driver/STM32F10x_StdPeriph_Driver/src/stm32f10x_fsmc.c ****   *     @arg FSMC_Bank1_NORSRAM3: FSMC Bank1 NOR/SRAM3 
  98:./.driver/STM32F10x_StdPeriph_Driver/src/stm32f10x_fsmc.c ****   *     @arg FSMC_Bank1_NORSRAM4: FSMC Bank1 NOR/SRAM4 
  99:./.driver/STM32F10x_StdPeriph_Driver/src/stm32f10x_fsmc.c ****   * @retval None
 100:./.driver/STM32F10x_StdPeriph_Driver/src/stm32f10x_fsmc.c ****   */
 101:./.driver/STM32F10x_StdPeriph_Driver/src/stm32f10x_fsmc.c **** void FSMC_NORSRAMDeInit(uint32_t FSMC_Bank)
 102:./.driver/STM32F10x_StdPeriph_Driver/src/stm32f10x_fsmc.c **** {
  27              		.loc 1 102 1
  28              		.cfi_startproc
  29              		@ args = 0, pretend = 0, frame = 8
  30              		@ frame_needed = 1, uses_anonymous_args = 0
  31              		@ link register save eliminated.
  32 0000 80B4     		push	{r7}
  33              	.LCFI0:
  34              		.cfi_def_cfa_offset 4
  35              		.cfi_offset 7, -4
  36 0002 83B0     		sub	sp, sp, #12
  37              	.LCFI1:
  38              		.cfi_def_cfa_offset 16
  39 0004 00AF     		add	r7, sp, #0
  40              	.LCFI2:
  41              		.cfi_def_cfa_register 7
  42 0006 7860     		str	r0, [r7, #4]
 103:./.driver/STM32F10x_StdPeriph_Driver/src/stm32f10x_fsmc.c ****   /* Check the parameter */
 104:./.driver/STM32F10x_StdPeriph_Driver/src/stm32f10x_fsmc.c ****   assert_param(IS_FSMC_NORSRAM_BANK(FSMC_Bank));
 105:./.driver/STM32F10x_StdPeriph_Driver/src/stm32f10x_fsmc.c ****   
 106:./.driver/STM32F10x_StdPeriph_Driver/src/stm32f10x_fsmc.c ****   /* FSMC_Bank1_NORSRAM1 */
 107:./.driver/STM32F10x_StdPeriph_Driver/src/stm32f10x_fsmc.c ****   if(FSMC_Bank == FSMC_Bank1_NORSRAM1)
  43              		.loc 1 107 5
  44 0008 7B68     		ldr	r3, [r7, #4]
  45 000a 002B     		cmp	r3, #0
  46 000c 07D1     		bne	.L2
 108:./.driver/STM32F10x_StdPeriph_Driver/src/stm32f10x_fsmc.c ****   {
 109:./.driver/STM32F10x_StdPeriph_Driver/src/stm32f10x_fsmc.c ****     FSMC_Bank1->BTCR[FSMC_Bank] = 0x000030DB;    
  47              		.loc 1 109 15
  48 000e 4FF02042 		mov	r2, #-1610612736
  49              		.loc 1 109 33
  50 0012 7B68     		ldr	r3, [r7, #4]
  51 0014 43F2DB01 		movw	r1, #12507
  52 0018 42F82310 		str	r1, [r2, r3, lsl #2]
  53 001c 06E0     		b	.L3
  54              	.L2:
 110:./.driver/STM32F10x_StdPeriph_Driver/src/stm32f10x_fsmc.c ****   }
 111:./.driver/STM32F10x_StdPeriph_Driver/src/stm32f10x_fsmc.c ****   /* FSMC_Bank1_NORSRAM2,  FSMC_Bank1_NORSRAM3 or FSMC_Bank1_NORSRAM4 */
 112:./.driver/STM32F10x_StdPeriph_Driver/src/stm32f10x_fsmc.c ****   else
 113:./.driver/STM32F10x_StdPeriph_Driver/src/stm32f10x_fsmc.c ****   {   
 114:./.driver/STM32F10x_StdPeriph_Driver/src/stm32f10x_fsmc.c ****     FSMC_Bank1->BTCR[FSMC_Bank] = 0x000030D2; 
  55              		.loc 1 114 15
  56 001e 4FF02042 		mov	r2, #-1610612736
  57              		.loc 1 114 33
  58 0022 7B68     		ldr	r3, [r7, #4]
ARM GAS  C:\Users\SAMEER~1.ALM\AppData\Local\Temp\ccWED5M3.s 			page 4


  59 0024 43F2D201 		movw	r1, #12498
  60 0028 42F82310 		str	r1, [r2, r3, lsl #2]
  61              	.L3:
 115:./.driver/STM32F10x_StdPeriph_Driver/src/stm32f10x_fsmc.c ****   }
 116:./.driver/STM32F10x_StdPeriph_Driver/src/stm32f10x_fsmc.c ****   FSMC_Bank1->BTCR[FSMC_Bank + 1] = 0x0FFFFFFF;
  62              		.loc 1 116 13
  63 002c 4FF02042 		mov	r2, #-1610612736
  64              		.loc 1 116 30
  65 0030 7B68     		ldr	r3, [r7, #4]
  66 0032 0133     		adds	r3, r3, #1
  67              		.loc 1 116 35
  68 0034 6FF07041 		mvn	r1, #-268435456
  69 0038 42F82310 		str	r1, [r2, r3, lsl #2]
 117:./.driver/STM32F10x_StdPeriph_Driver/src/stm32f10x_fsmc.c ****   FSMC_Bank1E->BWTR[FSMC_Bank] = 0x0FFFFFFF;  
  70              		.loc 1 117 14
  71 003c 054A     		ldr	r2, .L4
  72              		.loc 1 117 32
  73 003e 7B68     		ldr	r3, [r7, #4]
  74 0040 6FF07041 		mvn	r1, #-268435456
  75 0044 42F82310 		str	r1, [r2, r3, lsl #2]
 118:./.driver/STM32F10x_StdPeriph_Driver/src/stm32f10x_fsmc.c **** }
  76              		.loc 1 118 1
  77 0048 00BF     		nop
  78 004a 0C37     		adds	r7, r7, #12
  79              	.LCFI3:
  80              		.cfi_def_cfa_offset 4
  81 004c BD46     		mov	sp, r7
  82              	.LCFI4:
  83              		.cfi_def_cfa_register 13
  84              		@ sp needed
  85 004e 80BC     		pop	{r7}
  86              	.LCFI5:
  87              		.cfi_restore 7
  88              		.cfi_def_cfa_offset 0
  89 0050 7047     		bx	lr
  90              	.L5:
  91 0052 00BF     		.align	2
  92              	.L4:
  93 0054 040100A0 		.word	-1610612476
  94              		.cfi_endproc
  95              	.LFE29:
  97              		.section	.text.FSMC_NANDDeInit,"ax",%progbits
  98              		.align	1
  99              		.global	FSMC_NANDDeInit
 100              		.syntax unified
 101              		.thumb
 102              		.thumb_func
 104              	FSMC_NANDDeInit:
 105              	.LFB30:
 119:./.driver/STM32F10x_StdPeriph_Driver/src/stm32f10x_fsmc.c **** 
 120:./.driver/STM32F10x_StdPeriph_Driver/src/stm32f10x_fsmc.c **** /**
 121:./.driver/STM32F10x_StdPeriph_Driver/src/stm32f10x_fsmc.c ****   * @brief  Deinitializes the FSMC NAND Banks registers to their default reset values.
 122:./.driver/STM32F10x_StdPeriph_Driver/src/stm32f10x_fsmc.c ****   * @param  FSMC_Bank: specifies the FSMC Bank to be used
 123:./.driver/STM32F10x_StdPeriph_Driver/src/stm32f10x_fsmc.c ****   *   This parameter can be one of the following values:
 124:./.driver/STM32F10x_StdPeriph_Driver/src/stm32f10x_fsmc.c ****   *     @arg FSMC_Bank2_NAND: FSMC Bank2 NAND 
 125:./.driver/STM32F10x_StdPeriph_Driver/src/stm32f10x_fsmc.c ****   *     @arg FSMC_Bank3_NAND: FSMC Bank3 NAND 
 126:./.driver/STM32F10x_StdPeriph_Driver/src/stm32f10x_fsmc.c ****   * @retval None
ARM GAS  C:\Users\SAMEER~1.ALM\AppData\Local\Temp\ccWED5M3.s 			page 5


 127:./.driver/STM32F10x_StdPeriph_Driver/src/stm32f10x_fsmc.c ****   */
 128:./.driver/STM32F10x_StdPeriph_Driver/src/stm32f10x_fsmc.c **** void FSMC_NANDDeInit(uint32_t FSMC_Bank)
 129:./.driver/STM32F10x_StdPeriph_Driver/src/stm32f10x_fsmc.c **** {
 106              		.loc 1 129 1
 107              		.cfi_startproc
 108              		@ args = 0, pretend = 0, frame = 8
 109              		@ frame_needed = 1, uses_anonymous_args = 0
 110              		@ link register save eliminated.
 111 0000 80B4     		push	{r7}
 112              	.LCFI6:
 113              		.cfi_def_cfa_offset 4
 114              		.cfi_offset 7, -4
 115 0002 83B0     		sub	sp, sp, #12
 116              	.LCFI7:
 117              		.cfi_def_cfa_offset 16
 118 0004 00AF     		add	r7, sp, #0
 119              	.LCFI8:
 120              		.cfi_def_cfa_register 7
 121 0006 7860     		str	r0, [r7, #4]
 130:./.driver/STM32F10x_StdPeriph_Driver/src/stm32f10x_fsmc.c ****   /* Check the parameter */
 131:./.driver/STM32F10x_StdPeriph_Driver/src/stm32f10x_fsmc.c ****   assert_param(IS_FSMC_NAND_BANK(FSMC_Bank));
 132:./.driver/STM32F10x_StdPeriph_Driver/src/stm32f10x_fsmc.c ****   
 133:./.driver/STM32F10x_StdPeriph_Driver/src/stm32f10x_fsmc.c ****   if(FSMC_Bank == FSMC_Bank2_NAND)
 122              		.loc 1 133 5
 123 0008 7B68     		ldr	r3, [r7, #4]
 124 000a 102B     		cmp	r3, #16
 125 000c 0ED1     		bne	.L7
 134:./.driver/STM32F10x_StdPeriph_Driver/src/stm32f10x_fsmc.c ****   {
 135:./.driver/STM32F10x_StdPeriph_Driver/src/stm32f10x_fsmc.c ****     /* Set the FSMC_Bank2 registers to their reset values */
 136:./.driver/STM32F10x_StdPeriph_Driver/src/stm32f10x_fsmc.c ****     FSMC_Bank2->PCR2 = 0x00000018;
 126              		.loc 1 136 15
 127 000e 114B     		ldr	r3, .L10
 128              		.loc 1 136 22
 129 0010 1822     		movs	r2, #24
 130 0012 1A60     		str	r2, [r3]
 137:./.driver/STM32F10x_StdPeriph_Driver/src/stm32f10x_fsmc.c ****     FSMC_Bank2->SR2 = 0x00000040;
 131              		.loc 1 137 15
 132 0014 0F4B     		ldr	r3, .L10
 133              		.loc 1 137 21
 134 0016 4022     		movs	r2, #64
 135 0018 5A60     		str	r2, [r3, #4]
 138:./.driver/STM32F10x_StdPeriph_Driver/src/stm32f10x_fsmc.c ****     FSMC_Bank2->PMEM2 = 0xFCFCFCFC;
 136              		.loc 1 138 15
 137 001a 0E4B     		ldr	r3, .L10
 138              		.loc 1 138 23
 139 001c 4FF0FC32 		mov	r2, #-50529028
 140 0020 9A60     		str	r2, [r3, #8]
 139:./.driver/STM32F10x_StdPeriph_Driver/src/stm32f10x_fsmc.c ****     FSMC_Bank2->PATT2 = 0xFCFCFCFC;  
 141              		.loc 1 139 15
 142 0022 0C4B     		ldr	r3, .L10
 143              		.loc 1 139 23
 144 0024 4FF0FC32 		mov	r2, #-50529028
 145 0028 DA60     		str	r2, [r3, #12]
 140:./.driver/STM32F10x_StdPeriph_Driver/src/stm32f10x_fsmc.c ****   }
 141:./.driver/STM32F10x_StdPeriph_Driver/src/stm32f10x_fsmc.c ****   /* FSMC_Bank3_NAND */  
 142:./.driver/STM32F10x_StdPeriph_Driver/src/stm32f10x_fsmc.c ****   else
 143:./.driver/STM32F10x_StdPeriph_Driver/src/stm32f10x_fsmc.c ****   {
ARM GAS  C:\Users\SAMEER~1.ALM\AppData\Local\Temp\ccWED5M3.s 			page 6


 144:./.driver/STM32F10x_StdPeriph_Driver/src/stm32f10x_fsmc.c ****     /* Set the FSMC_Bank3 registers to their reset values */
 145:./.driver/STM32F10x_StdPeriph_Driver/src/stm32f10x_fsmc.c ****     FSMC_Bank3->PCR3 = 0x00000018;
 146:./.driver/STM32F10x_StdPeriph_Driver/src/stm32f10x_fsmc.c ****     FSMC_Bank3->SR3 = 0x00000040;
 147:./.driver/STM32F10x_StdPeriph_Driver/src/stm32f10x_fsmc.c ****     FSMC_Bank3->PMEM3 = 0xFCFCFCFC;
 148:./.driver/STM32F10x_StdPeriph_Driver/src/stm32f10x_fsmc.c ****     FSMC_Bank3->PATT3 = 0xFCFCFCFC; 
 149:./.driver/STM32F10x_StdPeriph_Driver/src/stm32f10x_fsmc.c ****   }  
 150:./.driver/STM32F10x_StdPeriph_Driver/src/stm32f10x_fsmc.c **** }
 146              		.loc 1 150 1
 147 002a 0DE0     		b	.L9
 148              	.L7:
 145:./.driver/STM32F10x_StdPeriph_Driver/src/stm32f10x_fsmc.c ****     FSMC_Bank3->SR3 = 0x00000040;
 149              		.loc 1 145 15
 150 002c 0A4B     		ldr	r3, .L10+4
 145:./.driver/STM32F10x_StdPeriph_Driver/src/stm32f10x_fsmc.c ****     FSMC_Bank3->SR3 = 0x00000040;
 151              		.loc 1 145 22
 152 002e 1822     		movs	r2, #24
 153 0030 1A60     		str	r2, [r3]
 146:./.driver/STM32F10x_StdPeriph_Driver/src/stm32f10x_fsmc.c ****     FSMC_Bank3->PMEM3 = 0xFCFCFCFC;
 154              		.loc 1 146 15
 155 0032 094B     		ldr	r3, .L10+4
 146:./.driver/STM32F10x_StdPeriph_Driver/src/stm32f10x_fsmc.c ****     FSMC_Bank3->PMEM3 = 0xFCFCFCFC;
 156              		.loc 1 146 21
 157 0034 4022     		movs	r2, #64
 158 0036 5A60     		str	r2, [r3, #4]
 147:./.driver/STM32F10x_StdPeriph_Driver/src/stm32f10x_fsmc.c ****     FSMC_Bank3->PATT3 = 0xFCFCFCFC; 
 159              		.loc 1 147 15
 160 0038 074B     		ldr	r3, .L10+4
 147:./.driver/STM32F10x_StdPeriph_Driver/src/stm32f10x_fsmc.c ****     FSMC_Bank3->PATT3 = 0xFCFCFCFC; 
 161              		.loc 1 147 23
 162 003a 4FF0FC32 		mov	r2, #-50529028
 163 003e 9A60     		str	r2, [r3, #8]
 148:./.driver/STM32F10x_StdPeriph_Driver/src/stm32f10x_fsmc.c ****   }  
 164              		.loc 1 148 15
 165 0040 054B     		ldr	r3, .L10+4
 148:./.driver/STM32F10x_StdPeriph_Driver/src/stm32f10x_fsmc.c ****   }  
 166              		.loc 1 148 23
 167 0042 4FF0FC32 		mov	r2, #-50529028
 168 0046 DA60     		str	r2, [r3, #12]
 169              	.L9:
 170              		.loc 1 150 1
 171 0048 00BF     		nop
 172 004a 0C37     		adds	r7, r7, #12
 173              	.LCFI9:
 174              		.cfi_def_cfa_offset 4
 175 004c BD46     		mov	sp, r7
 176              	.LCFI10:
 177              		.cfi_def_cfa_register 13
 178              		@ sp needed
 179 004e 80BC     		pop	{r7}
 180              	.LCFI11:
 181              		.cfi_restore 7
 182              		.cfi_def_cfa_offset 0
 183 0050 7047     		bx	lr
 184              	.L11:
 185 0052 00BF     		.align	2
 186              	.L10:
 187 0054 600000A0 		.word	-1610612640
ARM GAS  C:\Users\SAMEER~1.ALM\AppData\Local\Temp\ccWED5M3.s 			page 7


 188 0058 800000A0 		.word	-1610612608
 189              		.cfi_endproc
 190              	.LFE30:
 192              		.section	.text.FSMC_PCCARDDeInit,"ax",%progbits
 193              		.align	1
 194              		.global	FSMC_PCCARDDeInit
 195              		.syntax unified
 196              		.thumb
 197              		.thumb_func
 199              	FSMC_PCCARDDeInit:
 200              	.LFB31:
 151:./.driver/STM32F10x_StdPeriph_Driver/src/stm32f10x_fsmc.c **** 
 152:./.driver/STM32F10x_StdPeriph_Driver/src/stm32f10x_fsmc.c **** /**
 153:./.driver/STM32F10x_StdPeriph_Driver/src/stm32f10x_fsmc.c ****   * @brief  Deinitializes the FSMC PCCARD Bank registers to their default reset values.
 154:./.driver/STM32F10x_StdPeriph_Driver/src/stm32f10x_fsmc.c ****   * @param  None                       
 155:./.driver/STM32F10x_StdPeriph_Driver/src/stm32f10x_fsmc.c ****   * @retval None
 156:./.driver/STM32F10x_StdPeriph_Driver/src/stm32f10x_fsmc.c ****   */
 157:./.driver/STM32F10x_StdPeriph_Driver/src/stm32f10x_fsmc.c **** void FSMC_PCCARDDeInit(void)
 158:./.driver/STM32F10x_StdPeriph_Driver/src/stm32f10x_fsmc.c **** {
 201              		.loc 1 158 1
 202              		.cfi_startproc
 203              		@ args = 0, pretend = 0, frame = 0
 204              		@ frame_needed = 1, uses_anonymous_args = 0
 205              		@ link register save eliminated.
 206 0000 80B4     		push	{r7}
 207              	.LCFI12:
 208              		.cfi_def_cfa_offset 4
 209              		.cfi_offset 7, -4
 210 0002 00AF     		add	r7, sp, #0
 211              	.LCFI13:
 212              		.cfi_def_cfa_register 7
 159:./.driver/STM32F10x_StdPeriph_Driver/src/stm32f10x_fsmc.c ****   /* Set the FSMC_Bank4 registers to their reset values */
 160:./.driver/STM32F10x_StdPeriph_Driver/src/stm32f10x_fsmc.c ****   FSMC_Bank4->PCR4 = 0x00000018; 
 213              		.loc 1 160 13
 214 0004 0A4B     		ldr	r3, .L13
 215              		.loc 1 160 20
 216 0006 1822     		movs	r2, #24
 217 0008 1A60     		str	r2, [r3]
 161:./.driver/STM32F10x_StdPeriph_Driver/src/stm32f10x_fsmc.c ****   FSMC_Bank4->SR4 = 0x00000000;	
 218              		.loc 1 161 13
 219 000a 094B     		ldr	r3, .L13
 220              		.loc 1 161 19
 221 000c 0022     		movs	r2, #0
 222 000e 5A60     		str	r2, [r3, #4]
 162:./.driver/STM32F10x_StdPeriph_Driver/src/stm32f10x_fsmc.c ****   FSMC_Bank4->PMEM4 = 0xFCFCFCFC;
 223              		.loc 1 162 13
 224 0010 074B     		ldr	r3, .L13
 225              		.loc 1 162 21
 226 0012 4FF0FC32 		mov	r2, #-50529028
 227 0016 9A60     		str	r2, [r3, #8]
 163:./.driver/STM32F10x_StdPeriph_Driver/src/stm32f10x_fsmc.c ****   FSMC_Bank4->PATT4 = 0xFCFCFCFC;
 228              		.loc 1 163 13
 229 0018 054B     		ldr	r3, .L13
 230              		.loc 1 163 21
 231 001a 4FF0FC32 		mov	r2, #-50529028
 232 001e DA60     		str	r2, [r3, #12]
 164:./.driver/STM32F10x_StdPeriph_Driver/src/stm32f10x_fsmc.c ****   FSMC_Bank4->PIO4 = 0xFCFCFCFC;
ARM GAS  C:\Users\SAMEER~1.ALM\AppData\Local\Temp\ccWED5M3.s 			page 8


 233              		.loc 1 164 13
 234 0020 034B     		ldr	r3, .L13
 235              		.loc 1 164 20
 236 0022 4FF0FC32 		mov	r2, #-50529028
 237 0026 1A61     		str	r2, [r3, #16]
 165:./.driver/STM32F10x_StdPeriph_Driver/src/stm32f10x_fsmc.c **** }
 238              		.loc 1 165 1
 239 0028 00BF     		nop
 240 002a BD46     		mov	sp, r7
 241              	.LCFI14:
 242              		.cfi_def_cfa_register 13
 243              		@ sp needed
 244 002c 80BC     		pop	{r7}
 245              	.LCFI15:
 246              		.cfi_restore 7
 247              		.cfi_def_cfa_offset 0
 248 002e 7047     		bx	lr
 249              	.L14:
 250              		.align	2
 251              	.L13:
 252 0030 A00000A0 		.word	-1610612576
 253              		.cfi_endproc
 254              	.LFE31:
 256              		.section	.text.FSMC_NORSRAMInit,"ax",%progbits
 257              		.align	1
 258              		.global	FSMC_NORSRAMInit
 259              		.syntax unified
 260              		.thumb
 261              		.thumb_func
 263              	FSMC_NORSRAMInit:
 264              	.LFB32:
 166:./.driver/STM32F10x_StdPeriph_Driver/src/stm32f10x_fsmc.c **** 
 167:./.driver/STM32F10x_StdPeriph_Driver/src/stm32f10x_fsmc.c **** /**
 168:./.driver/STM32F10x_StdPeriph_Driver/src/stm32f10x_fsmc.c ****   * @brief  Initializes the FSMC NOR/SRAM Banks according to the specified
 169:./.driver/STM32F10x_StdPeriph_Driver/src/stm32f10x_fsmc.c ****   *         parameters in the FSMC_NORSRAMInitStruct.
 170:./.driver/STM32F10x_StdPeriph_Driver/src/stm32f10x_fsmc.c ****   * @param  FSMC_NORSRAMInitStruct : pointer to a FSMC_NORSRAMInitTypeDef
 171:./.driver/STM32F10x_StdPeriph_Driver/src/stm32f10x_fsmc.c ****   *         structure that contains the configuration information for 
 172:./.driver/STM32F10x_StdPeriph_Driver/src/stm32f10x_fsmc.c ****   *        the FSMC NOR/SRAM specified Banks.                       
 173:./.driver/STM32F10x_StdPeriph_Driver/src/stm32f10x_fsmc.c ****   * @retval None
 174:./.driver/STM32F10x_StdPeriph_Driver/src/stm32f10x_fsmc.c ****   */
 175:./.driver/STM32F10x_StdPeriph_Driver/src/stm32f10x_fsmc.c **** void FSMC_NORSRAMInit(FSMC_NORSRAMInitTypeDef* FSMC_NORSRAMInitStruct)
 176:./.driver/STM32F10x_StdPeriph_Driver/src/stm32f10x_fsmc.c **** { 
 265              		.loc 1 176 1
 266              		.cfi_startproc
 267              		@ args = 0, pretend = 0, frame = 8
 268              		@ frame_needed = 1, uses_anonymous_args = 0
 269              		@ link register save eliminated.
 270 0000 80B4     		push	{r7}
 271              	.LCFI16:
 272              		.cfi_def_cfa_offset 4
 273              		.cfi_offset 7, -4
 274 0002 83B0     		sub	sp, sp, #12
 275              	.LCFI17:
 276              		.cfi_def_cfa_offset 16
 277 0004 00AF     		add	r7, sp, #0
 278              	.LCFI18:
 279              		.cfi_def_cfa_register 7
ARM GAS  C:\Users\SAMEER~1.ALM\AppData\Local\Temp\ccWED5M3.s 			page 9


 280 0006 7860     		str	r0, [r7, #4]
 177:./.driver/STM32F10x_StdPeriph_Driver/src/stm32f10x_fsmc.c ****   /* Check the parameters */
 178:./.driver/STM32F10x_StdPeriph_Driver/src/stm32f10x_fsmc.c ****   assert_param(IS_FSMC_NORSRAM_BANK(FSMC_NORSRAMInitStruct->FSMC_Bank));
 179:./.driver/STM32F10x_StdPeriph_Driver/src/stm32f10x_fsmc.c ****   assert_param(IS_FSMC_MUX(FSMC_NORSRAMInitStruct->FSMC_DataAddressMux));
 180:./.driver/STM32F10x_StdPeriph_Driver/src/stm32f10x_fsmc.c ****   assert_param(IS_FSMC_MEMORY(FSMC_NORSRAMInitStruct->FSMC_MemoryType));
 181:./.driver/STM32F10x_StdPeriph_Driver/src/stm32f10x_fsmc.c ****   assert_param(IS_FSMC_MEMORY_WIDTH(FSMC_NORSRAMInitStruct->FSMC_MemoryDataWidth));
 182:./.driver/STM32F10x_StdPeriph_Driver/src/stm32f10x_fsmc.c ****   assert_param(IS_FSMC_BURSTMODE(FSMC_NORSRAMInitStruct->FSMC_BurstAccessMode));
 183:./.driver/STM32F10x_StdPeriph_Driver/src/stm32f10x_fsmc.c ****   assert_param(IS_FSMC_ASYNWAIT(FSMC_NORSRAMInitStruct->FSMC_AsynchronousWait));
 184:./.driver/STM32F10x_StdPeriph_Driver/src/stm32f10x_fsmc.c ****   assert_param(IS_FSMC_WAIT_POLARITY(FSMC_NORSRAMInitStruct->FSMC_WaitSignalPolarity));
 185:./.driver/STM32F10x_StdPeriph_Driver/src/stm32f10x_fsmc.c ****   assert_param(IS_FSMC_WRAP_MODE(FSMC_NORSRAMInitStruct->FSMC_WrapMode));
 186:./.driver/STM32F10x_StdPeriph_Driver/src/stm32f10x_fsmc.c ****   assert_param(IS_FSMC_WAIT_SIGNAL_ACTIVE(FSMC_NORSRAMInitStruct->FSMC_WaitSignalActive));
 187:./.driver/STM32F10x_StdPeriph_Driver/src/stm32f10x_fsmc.c ****   assert_param(IS_FSMC_WRITE_OPERATION(FSMC_NORSRAMInitStruct->FSMC_WriteOperation));
 188:./.driver/STM32F10x_StdPeriph_Driver/src/stm32f10x_fsmc.c ****   assert_param(IS_FSMC_WAITE_SIGNAL(FSMC_NORSRAMInitStruct->FSMC_WaitSignal));
 189:./.driver/STM32F10x_StdPeriph_Driver/src/stm32f10x_fsmc.c ****   assert_param(IS_FSMC_EXTENDED_MODE(FSMC_NORSRAMInitStruct->FSMC_ExtendedMode));
 190:./.driver/STM32F10x_StdPeriph_Driver/src/stm32f10x_fsmc.c ****   assert_param(IS_FSMC_WRITE_BURST(FSMC_NORSRAMInitStruct->FSMC_WriteBurst));  
 191:./.driver/STM32F10x_StdPeriph_Driver/src/stm32f10x_fsmc.c ****   assert_param(IS_FSMC_ADDRESS_SETUP_TIME(FSMC_NORSRAMInitStruct->FSMC_ReadWriteTimingStruct->FSMC_
 192:./.driver/STM32F10x_StdPeriph_Driver/src/stm32f10x_fsmc.c ****   assert_param(IS_FSMC_ADDRESS_HOLD_TIME(FSMC_NORSRAMInitStruct->FSMC_ReadWriteTimingStruct->FSMC_A
 193:./.driver/STM32F10x_StdPeriph_Driver/src/stm32f10x_fsmc.c ****   assert_param(IS_FSMC_DATASETUP_TIME(FSMC_NORSRAMInitStruct->FSMC_ReadWriteTimingStruct->FSMC_Data
 194:./.driver/STM32F10x_StdPeriph_Driver/src/stm32f10x_fsmc.c ****   assert_param(IS_FSMC_TURNAROUND_TIME(FSMC_NORSRAMInitStruct->FSMC_ReadWriteTimingStruct->FSMC_Bus
 195:./.driver/STM32F10x_StdPeriph_Driver/src/stm32f10x_fsmc.c ****   assert_param(IS_FSMC_CLK_DIV(FSMC_NORSRAMInitStruct->FSMC_ReadWriteTimingStruct->FSMC_CLKDivision
 196:./.driver/STM32F10x_StdPeriph_Driver/src/stm32f10x_fsmc.c ****   assert_param(IS_FSMC_DATA_LATENCY(FSMC_NORSRAMInitStruct->FSMC_ReadWriteTimingStruct->FSMC_DataLa
 197:./.driver/STM32F10x_StdPeriph_Driver/src/stm32f10x_fsmc.c ****   assert_param(IS_FSMC_ACCESS_MODE(FSMC_NORSRAMInitStruct->FSMC_ReadWriteTimingStruct->FSMC_AccessM
 198:./.driver/STM32F10x_StdPeriph_Driver/src/stm32f10x_fsmc.c ****   
 199:./.driver/STM32F10x_StdPeriph_Driver/src/stm32f10x_fsmc.c ****   /* Bank1 NOR/SRAM control register configuration */ 
 200:./.driver/STM32F10x_StdPeriph_Driver/src/stm32f10x_fsmc.c ****   FSMC_Bank1->BTCR[FSMC_NORSRAMInitStruct->FSMC_Bank] = 
 201:./.driver/STM32F10x_StdPeriph_Driver/src/stm32f10x_fsmc.c ****             (uint32_t)FSMC_NORSRAMInitStruct->FSMC_DataAddressMux |
 281              		.loc 1 201 45
 282 0008 7B68     		ldr	r3, [r7, #4]
 283 000a 5A68     		ldr	r2, [r3, #4]
 202:./.driver/STM32F10x_StdPeriph_Driver/src/stm32f10x_fsmc.c ****             FSMC_NORSRAMInitStruct->FSMC_MemoryType |
 284              		.loc 1 202 35
 285 000c 7B68     		ldr	r3, [r7, #4]
 286 000e 9B68     		ldr	r3, [r3, #8]
 201:./.driver/STM32F10x_StdPeriph_Driver/src/stm32f10x_fsmc.c ****             FSMC_NORSRAMInitStruct->FSMC_MemoryType |
 287              		.loc 1 201 67
 288 0010 1A43     		orrs	r2, r2, r3
 203:./.driver/STM32F10x_StdPeriph_Driver/src/stm32f10x_fsmc.c ****             FSMC_NORSRAMInitStruct->FSMC_MemoryDataWidth |
 289              		.loc 1 203 35
 290 0012 7B68     		ldr	r3, [r7, #4]
 291 0014 DB68     		ldr	r3, [r3, #12]
 202:./.driver/STM32F10x_StdPeriph_Driver/src/stm32f10x_fsmc.c ****             FSMC_NORSRAMInitStruct->FSMC_MemoryType |
 292              		.loc 1 202 53
 293 0016 1A43     		orrs	r2, r2, r3
 204:./.driver/STM32F10x_StdPeriph_Driver/src/stm32f10x_fsmc.c ****             FSMC_NORSRAMInitStruct->FSMC_BurstAccessMode |
 294              		.loc 1 204 35
 295 0018 7B68     		ldr	r3, [r7, #4]
 296 001a 1B69     		ldr	r3, [r3, #16]
 203:./.driver/STM32F10x_StdPeriph_Driver/src/stm32f10x_fsmc.c ****             FSMC_NORSRAMInitStruct->FSMC_MemoryDataWidth |
 297              		.loc 1 203 58
 298 001c 1A43     		orrs	r2, r2, r3
 205:./.driver/STM32F10x_StdPeriph_Driver/src/stm32f10x_fsmc.c ****             FSMC_NORSRAMInitStruct->FSMC_AsynchronousWait |
 299              		.loc 1 205 35
 300 001e 7B68     		ldr	r3, [r7, #4]
 301 0020 5B69     		ldr	r3, [r3, #20]
 204:./.driver/STM32F10x_StdPeriph_Driver/src/stm32f10x_fsmc.c ****             FSMC_NORSRAMInitStruct->FSMC_BurstAccessMode |
 302              		.loc 1 204 58
 303 0022 1A43     		orrs	r2, r2, r3
ARM GAS  C:\Users\SAMEER~1.ALM\AppData\Local\Temp\ccWED5M3.s 			page 10


 206:./.driver/STM32F10x_StdPeriph_Driver/src/stm32f10x_fsmc.c ****             FSMC_NORSRAMInitStruct->FSMC_WaitSignalPolarity |
 304              		.loc 1 206 35
 305 0024 7B68     		ldr	r3, [r7, #4]
 306 0026 9B69     		ldr	r3, [r3, #24]
 205:./.driver/STM32F10x_StdPeriph_Driver/src/stm32f10x_fsmc.c ****             FSMC_NORSRAMInitStruct->FSMC_AsynchronousWait |
 307              		.loc 1 205 59
 308 0028 1A43     		orrs	r2, r2, r3
 207:./.driver/STM32F10x_StdPeriph_Driver/src/stm32f10x_fsmc.c ****             FSMC_NORSRAMInitStruct->FSMC_WrapMode |
 309              		.loc 1 207 35
 310 002a 7B68     		ldr	r3, [r7, #4]
 311 002c DB69     		ldr	r3, [r3, #28]
 206:./.driver/STM32F10x_StdPeriph_Driver/src/stm32f10x_fsmc.c ****             FSMC_NORSRAMInitStruct->FSMC_WaitSignalPolarity |
 312              		.loc 1 206 61
 313 002e 1A43     		orrs	r2, r2, r3
 208:./.driver/STM32F10x_StdPeriph_Driver/src/stm32f10x_fsmc.c ****             FSMC_NORSRAMInitStruct->FSMC_WaitSignalActive |
 314              		.loc 1 208 35
 315 0030 7B68     		ldr	r3, [r7, #4]
 316 0032 1B6A     		ldr	r3, [r3, #32]
 207:./.driver/STM32F10x_StdPeriph_Driver/src/stm32f10x_fsmc.c ****             FSMC_NORSRAMInitStruct->FSMC_WrapMode |
 317              		.loc 1 207 51
 318 0034 1A43     		orrs	r2, r2, r3
 209:./.driver/STM32F10x_StdPeriph_Driver/src/stm32f10x_fsmc.c ****             FSMC_NORSRAMInitStruct->FSMC_WriteOperation |
 319              		.loc 1 209 35
 320 0036 7B68     		ldr	r3, [r7, #4]
 321 0038 5B6A     		ldr	r3, [r3, #36]
 208:./.driver/STM32F10x_StdPeriph_Driver/src/stm32f10x_fsmc.c ****             FSMC_NORSRAMInitStruct->FSMC_WaitSignalActive |
 322              		.loc 1 208 59
 323 003a 1A43     		orrs	r2, r2, r3
 210:./.driver/STM32F10x_StdPeriph_Driver/src/stm32f10x_fsmc.c ****             FSMC_NORSRAMInitStruct->FSMC_WaitSignal |
 324              		.loc 1 210 35
 325 003c 7B68     		ldr	r3, [r7, #4]
 326 003e 9B6A     		ldr	r3, [r3, #40]
 209:./.driver/STM32F10x_StdPeriph_Driver/src/stm32f10x_fsmc.c ****             FSMC_NORSRAMInitStruct->FSMC_WriteOperation |
 327              		.loc 1 209 57
 328 0040 1A43     		orrs	r2, r2, r3
 211:./.driver/STM32F10x_StdPeriph_Driver/src/stm32f10x_fsmc.c ****             FSMC_NORSRAMInitStruct->FSMC_ExtendedMode |
 329              		.loc 1 211 35
 330 0042 7B68     		ldr	r3, [r7, #4]
 331 0044 DB6A     		ldr	r3, [r3, #44]
 210:./.driver/STM32F10x_StdPeriph_Driver/src/stm32f10x_fsmc.c ****             FSMC_NORSRAMInitStruct->FSMC_WaitSignal |
 332              		.loc 1 210 53
 333 0046 42EA0301 		orr	r1, r2, r3
 212:./.driver/STM32F10x_StdPeriph_Driver/src/stm32f10x_fsmc.c ****             FSMC_NORSRAMInitStruct->FSMC_WriteBurst;
 334              		.loc 1 212 35
 335 004a 7B68     		ldr	r3, [r7, #4]
 336 004c 1A6B     		ldr	r2, [r3, #48]
 200:./.driver/STM32F10x_StdPeriph_Driver/src/stm32f10x_fsmc.c ****             (uint32_t)FSMC_NORSRAMInitStruct->FSMC_DataAddressMux |
 337              		.loc 1 200 13
 338 004e 4FF02040 		mov	r0, #-1610612736
 200:./.driver/STM32F10x_StdPeriph_Driver/src/stm32f10x_fsmc.c ****             (uint32_t)FSMC_NORSRAMInitStruct->FSMC_DataAddressMux |
 339              		.loc 1 200 42
 340 0052 7B68     		ldr	r3, [r7, #4]
 341 0054 1B68     		ldr	r3, [r3]
 211:./.driver/STM32F10x_StdPeriph_Driver/src/stm32f10x_fsmc.c ****             FSMC_NORSRAMInitStruct->FSMC_ExtendedMode |
 342              		.loc 1 211 55
 343 0056 0A43     		orrs	r2, r2, r1
 200:./.driver/STM32F10x_StdPeriph_Driver/src/stm32f10x_fsmc.c ****             (uint32_t)FSMC_NORSRAMInitStruct->FSMC_DataAddressMux |
ARM GAS  C:\Users\SAMEER~1.ALM\AppData\Local\Temp\ccWED5M3.s 			page 11


 344              		.loc 1 200 55
 345 0058 40F82320 		str	r2, [r0, r3, lsl #2]
 213:./.driver/STM32F10x_StdPeriph_Driver/src/stm32f10x_fsmc.c **** 
 214:./.driver/STM32F10x_StdPeriph_Driver/src/stm32f10x_fsmc.c ****   if(FSMC_NORSRAMInitStruct->FSMC_MemoryType == FSMC_MemoryType_NOR)
 346              		.loc 1 214 28
 347 005c 7B68     		ldr	r3, [r7, #4]
 348 005e 9B68     		ldr	r3, [r3, #8]
 349              		.loc 1 214 5
 350 0060 082B     		cmp	r3, #8
 351 0062 0DD1     		bne	.L16
 215:./.driver/STM32F10x_StdPeriph_Driver/src/stm32f10x_fsmc.c ****   {
 216:./.driver/STM32F10x_StdPeriph_Driver/src/stm32f10x_fsmc.c ****     FSMC_Bank1->BTCR[FSMC_NORSRAMInitStruct->FSMC_Bank] |= (uint32_t)BCR_FACCEN_Set;
 352              		.loc 1 216 57
 353 0064 4FF02042 		mov	r2, #-1610612736
 354              		.loc 1 216 44
 355 0068 7B68     		ldr	r3, [r7, #4]
 356 006a 1B68     		ldr	r3, [r3]
 357              		.loc 1 216 57
 358 006c 52F82320 		ldr	r2, [r2, r3, lsl #2]
 359 0070 4FF02041 		mov	r1, #-1610612736
 360              		.loc 1 216 44
 361 0074 7B68     		ldr	r3, [r7, #4]
 362 0076 1B68     		ldr	r3, [r3]
 363              		.loc 1 216 57
 364 0078 42F04002 		orr	r2, r2, #64
 365 007c 41F82320 		str	r2, [r1, r3, lsl #2]
 366              	.L16:
 217:./.driver/STM32F10x_StdPeriph_Driver/src/stm32f10x_fsmc.c ****   }
 218:./.driver/STM32F10x_StdPeriph_Driver/src/stm32f10x_fsmc.c ****   
 219:./.driver/STM32F10x_StdPeriph_Driver/src/stm32f10x_fsmc.c ****   /* Bank1 NOR/SRAM timing register configuration */
 220:./.driver/STM32F10x_StdPeriph_Driver/src/stm32f10x_fsmc.c ****   FSMC_Bank1->BTCR[FSMC_NORSRAMInitStruct->FSMC_Bank+1] = 
 221:./.driver/STM32F10x_StdPeriph_Driver/src/stm32f10x_fsmc.c ****             (uint32_t)FSMC_NORSRAMInitStruct->FSMC_ReadWriteTimingStruct->FSMC_AddressSetupTime |
 367              		.loc 1 221 45
 368 0080 7B68     		ldr	r3, [r7, #4]
 369 0082 5B6B     		ldr	r3, [r3, #52]
 370              		.loc 1 221 73
 371 0084 1A68     		ldr	r2, [r3]
 222:./.driver/STM32F10x_StdPeriph_Driver/src/stm32f10x_fsmc.c ****             (FSMC_NORSRAMInitStruct->FSMC_ReadWriteTimingStruct->FSMC_AddressHoldTime << 4) |
 372              		.loc 1 222 36
 373 0086 7B68     		ldr	r3, [r7, #4]
 374 0088 5B6B     		ldr	r3, [r3, #52]
 375              		.loc 1 222 64
 376 008a 5B68     		ldr	r3, [r3, #4]
 377              		.loc 1 222 87
 378 008c 1B01     		lsls	r3, r3, #4
 221:./.driver/STM32F10x_StdPeriph_Driver/src/stm32f10x_fsmc.c ****             (FSMC_NORSRAMInitStruct->FSMC_ReadWriteTimingStruct->FSMC_AddressHoldTime << 4) |
 379              		.loc 1 221 97
 380 008e 1A43     		orrs	r2, r2, r3
 223:./.driver/STM32F10x_StdPeriph_Driver/src/stm32f10x_fsmc.c ****             (FSMC_NORSRAMInitStruct->FSMC_ReadWriteTimingStruct->FSMC_DataSetupTime << 8) |
 381              		.loc 1 223 36
 382 0090 7B68     		ldr	r3, [r7, #4]
 383 0092 5B6B     		ldr	r3, [r3, #52]
 384              		.loc 1 223 64
 385 0094 9B68     		ldr	r3, [r3, #8]
 386              		.loc 1 223 85
 387 0096 1B02     		lsls	r3, r3, #8
 222:./.driver/STM32F10x_StdPeriph_Driver/src/stm32f10x_fsmc.c ****             (FSMC_NORSRAMInitStruct->FSMC_ReadWriteTimingStruct->FSMC_AddressHoldTime << 4) |
ARM GAS  C:\Users\SAMEER~1.ALM\AppData\Local\Temp\ccWED5M3.s 			page 12


 388              		.loc 1 222 93
 389 0098 1A43     		orrs	r2, r2, r3
 224:./.driver/STM32F10x_StdPeriph_Driver/src/stm32f10x_fsmc.c ****             (FSMC_NORSRAMInitStruct->FSMC_ReadWriteTimingStruct->FSMC_BusTurnAroundDuration << 16) 
 390              		.loc 1 224 36
 391 009a 7B68     		ldr	r3, [r7, #4]
 392 009c 5B6B     		ldr	r3, [r3, #52]
 393              		.loc 1 224 64
 394 009e DB68     		ldr	r3, [r3, #12]
 395              		.loc 1 224 93
 396 00a0 1B04     		lsls	r3, r3, #16
 223:./.driver/STM32F10x_StdPeriph_Driver/src/stm32f10x_fsmc.c ****             (FSMC_NORSRAMInitStruct->FSMC_ReadWriteTimingStruct->FSMC_DataSetupTime << 8) |
 397              		.loc 1 223 91
 398 00a2 1A43     		orrs	r2, r2, r3
 225:./.driver/STM32F10x_StdPeriph_Driver/src/stm32f10x_fsmc.c ****             (FSMC_NORSRAMInitStruct->FSMC_ReadWriteTimingStruct->FSMC_CLKDivision << 20) |
 399              		.loc 1 225 36
 400 00a4 7B68     		ldr	r3, [r7, #4]
 401 00a6 5B6B     		ldr	r3, [r3, #52]
 402              		.loc 1 225 64
 403 00a8 1B69     		ldr	r3, [r3, #16]
 404              		.loc 1 225 83
 405 00aa 1B05     		lsls	r3, r3, #20
 224:./.driver/STM32F10x_StdPeriph_Driver/src/stm32f10x_fsmc.c ****             (FSMC_NORSRAMInitStruct->FSMC_ReadWriteTimingStruct->FSMC_BusTurnAroundDuration << 16) 
 406              		.loc 1 224 100
 407 00ac 1A43     		orrs	r2, r2, r3
 226:./.driver/STM32F10x_StdPeriph_Driver/src/stm32f10x_fsmc.c ****             (FSMC_NORSRAMInitStruct->FSMC_ReadWriteTimingStruct->FSMC_DataLatency << 24) |
 408              		.loc 1 226 36
 409 00ae 7B68     		ldr	r3, [r7, #4]
 410 00b0 5B6B     		ldr	r3, [r3, #52]
 411              		.loc 1 226 64
 412 00b2 5B69     		ldr	r3, [r3, #20]
 413              		.loc 1 226 83
 414 00b4 1B06     		lsls	r3, r3, #24
 225:./.driver/STM32F10x_StdPeriph_Driver/src/stm32f10x_fsmc.c ****             (FSMC_NORSRAMInitStruct->FSMC_ReadWriteTimingStruct->FSMC_CLKDivision << 20) |
 415              		.loc 1 225 90
 416 00b6 42EA0301 		orr	r1, r2, r3
 227:./.driver/STM32F10x_StdPeriph_Driver/src/stm32f10x_fsmc.c ****              FSMC_NORSRAMInitStruct->FSMC_ReadWriteTimingStruct->FSMC_AccessMode;
 417              		.loc 1 227 36
 418 00ba 7B68     		ldr	r3, [r7, #4]
 419 00bc 5B6B     		ldr	r3, [r3, #52]
 420              		.loc 1 227 64
 421 00be 9A69     		ldr	r2, [r3, #24]
 220:./.driver/STM32F10x_StdPeriph_Driver/src/stm32f10x_fsmc.c ****             (uint32_t)FSMC_NORSRAMInitStruct->FSMC_ReadWriteTimingStruct->FSMC_AddressSetupTime |
 422              		.loc 1 220 13
 423 00c0 4FF02040 		mov	r0, #-1610612736
 220:./.driver/STM32F10x_StdPeriph_Driver/src/stm32f10x_fsmc.c ****             (uint32_t)FSMC_NORSRAMInitStruct->FSMC_ReadWriteTimingStruct->FSMC_AddressSetupTime |
 424              		.loc 1 220 42
 425 00c4 7B68     		ldr	r3, [r7, #4]
 426 00c6 1B68     		ldr	r3, [r3]
 220:./.driver/STM32F10x_StdPeriph_Driver/src/stm32f10x_fsmc.c ****             (uint32_t)FSMC_NORSRAMInitStruct->FSMC_ReadWriteTimingStruct->FSMC_AddressSetupTime |
 427              		.loc 1 220 53
 428 00c8 0133     		adds	r3, r3, #1
 226:./.driver/STM32F10x_StdPeriph_Driver/src/stm32f10x_fsmc.c ****             (FSMC_NORSRAMInitStruct->FSMC_ReadWriteTimingStruct->FSMC_DataLatency << 24) |
 429              		.loc 1 226 90
 430 00ca 0A43     		orrs	r2, r2, r1
 220:./.driver/STM32F10x_StdPeriph_Driver/src/stm32f10x_fsmc.c ****             (uint32_t)FSMC_NORSRAMInitStruct->FSMC_ReadWriteTimingStruct->FSMC_AddressSetupTime |
 431              		.loc 1 220 57
 432 00cc 40F82320 		str	r2, [r0, r3, lsl #2]
ARM GAS  C:\Users\SAMEER~1.ALM\AppData\Local\Temp\ccWED5M3.s 			page 13


 228:./.driver/STM32F10x_StdPeriph_Driver/src/stm32f10x_fsmc.c ****             
 229:./.driver/STM32F10x_StdPeriph_Driver/src/stm32f10x_fsmc.c ****     
 230:./.driver/STM32F10x_StdPeriph_Driver/src/stm32f10x_fsmc.c ****   /* Bank1 NOR/SRAM timing register for write configuration, if extended mode is used */
 231:./.driver/STM32F10x_StdPeriph_Driver/src/stm32f10x_fsmc.c ****   if(FSMC_NORSRAMInitStruct->FSMC_ExtendedMode == FSMC_ExtendedMode_Enable)
 433              		.loc 1 231 28
 434 00d0 7B68     		ldr	r3, [r7, #4]
 435 00d2 DB6A     		ldr	r3, [r3, #44]
 436              		.loc 1 231 5
 437 00d4 B3F5804F 		cmp	r3, #16384
 438 00d8 21D1     		bne	.L17
 232:./.driver/STM32F10x_StdPeriph_Driver/src/stm32f10x_fsmc.c ****   {
 233:./.driver/STM32F10x_StdPeriph_Driver/src/stm32f10x_fsmc.c ****     assert_param(IS_FSMC_ADDRESS_SETUP_TIME(FSMC_NORSRAMInitStruct->FSMC_WriteTimingStruct->FSMC_Ad
 234:./.driver/STM32F10x_StdPeriph_Driver/src/stm32f10x_fsmc.c ****     assert_param(IS_FSMC_ADDRESS_HOLD_TIME(FSMC_NORSRAMInitStruct->FSMC_WriteTimingStruct->FSMC_Add
 235:./.driver/STM32F10x_StdPeriph_Driver/src/stm32f10x_fsmc.c ****     assert_param(IS_FSMC_DATASETUP_TIME(FSMC_NORSRAMInitStruct->FSMC_WriteTimingStruct->FSMC_DataSe
 236:./.driver/STM32F10x_StdPeriph_Driver/src/stm32f10x_fsmc.c ****     assert_param(IS_FSMC_CLK_DIV(FSMC_NORSRAMInitStruct->FSMC_WriteTimingStruct->FSMC_CLKDivision))
 237:./.driver/STM32F10x_StdPeriph_Driver/src/stm32f10x_fsmc.c ****     assert_param(IS_FSMC_DATA_LATENCY(FSMC_NORSRAMInitStruct->FSMC_WriteTimingStruct->FSMC_DataLate
 238:./.driver/STM32F10x_StdPeriph_Driver/src/stm32f10x_fsmc.c ****     assert_param(IS_FSMC_ACCESS_MODE(FSMC_NORSRAMInitStruct->FSMC_WriteTimingStruct->FSMC_AccessMod
 239:./.driver/STM32F10x_StdPeriph_Driver/src/stm32f10x_fsmc.c ****     FSMC_Bank1E->BWTR[FSMC_NORSRAMInitStruct->FSMC_Bank] = 
 240:./.driver/STM32F10x_StdPeriph_Driver/src/stm32f10x_fsmc.c ****               (uint32_t)FSMC_NORSRAMInitStruct->FSMC_WriteTimingStruct->FSMC_AddressSetupTime |
 439              		.loc 1 240 47
 440 00da 7B68     		ldr	r3, [r7, #4]
 441 00dc 9B6B     		ldr	r3, [r3, #56]
 442              		.loc 1 240 71
 443 00de 1A68     		ldr	r2, [r3]
 241:./.driver/STM32F10x_StdPeriph_Driver/src/stm32f10x_fsmc.c ****               (FSMC_NORSRAMInitStruct->FSMC_WriteTimingStruct->FSMC_AddressHoldTime << 4 )|
 444              		.loc 1 241 38
 445 00e0 7B68     		ldr	r3, [r7, #4]
 446 00e2 9B6B     		ldr	r3, [r3, #56]
 447              		.loc 1 241 62
 448 00e4 5B68     		ldr	r3, [r3, #4]
 449              		.loc 1 241 85
 450 00e6 1B01     		lsls	r3, r3, #4
 240:./.driver/STM32F10x_StdPeriph_Driver/src/stm32f10x_fsmc.c ****               (FSMC_NORSRAMInitStruct->FSMC_WriteTimingStruct->FSMC_AddressHoldTime << 4 )|
 451              		.loc 1 240 95
 452 00e8 1A43     		orrs	r2, r2, r3
 242:./.driver/STM32F10x_StdPeriph_Driver/src/stm32f10x_fsmc.c ****               (FSMC_NORSRAMInitStruct->FSMC_WriteTimingStruct->FSMC_DataSetupTime << 8) |
 453              		.loc 1 242 38
 454 00ea 7B68     		ldr	r3, [r7, #4]
 455 00ec 9B6B     		ldr	r3, [r3, #56]
 456              		.loc 1 242 62
 457 00ee 9B68     		ldr	r3, [r3, #8]
 458              		.loc 1 242 83
 459 00f0 1B02     		lsls	r3, r3, #8
 241:./.driver/STM32F10x_StdPeriph_Driver/src/stm32f10x_fsmc.c ****               (FSMC_NORSRAMInitStruct->FSMC_WriteTimingStruct->FSMC_AddressHoldTime << 4 )|
 460              		.loc 1 241 91
 461 00f2 1A43     		orrs	r2, r2, r3
 243:./.driver/STM32F10x_StdPeriph_Driver/src/stm32f10x_fsmc.c ****               (FSMC_NORSRAMInitStruct->FSMC_WriteTimingStruct->FSMC_CLKDivision << 20) |
 462              		.loc 1 243 38
 463 00f4 7B68     		ldr	r3, [r7, #4]
 464 00f6 9B6B     		ldr	r3, [r3, #56]
 465              		.loc 1 243 62
 466 00f8 1B69     		ldr	r3, [r3, #16]
 467              		.loc 1 243 81
 468 00fa 1B05     		lsls	r3, r3, #20
 242:./.driver/STM32F10x_StdPeriph_Driver/src/stm32f10x_fsmc.c ****               (FSMC_NORSRAMInitStruct->FSMC_WriteTimingStruct->FSMC_DataSetupTime << 8) |
 469              		.loc 1 242 89
 470 00fc 1A43     		orrs	r2, r2, r3
ARM GAS  C:\Users\SAMEER~1.ALM\AppData\Local\Temp\ccWED5M3.s 			page 14


 244:./.driver/STM32F10x_StdPeriph_Driver/src/stm32f10x_fsmc.c ****               (FSMC_NORSRAMInitStruct->FSMC_WriteTimingStruct->FSMC_DataLatency << 24) |
 471              		.loc 1 244 38
 472 00fe 7B68     		ldr	r3, [r7, #4]
 473 0100 9B6B     		ldr	r3, [r3, #56]
 474              		.loc 1 244 62
 475 0102 5B69     		ldr	r3, [r3, #20]
 476              		.loc 1 244 81
 477 0104 1B06     		lsls	r3, r3, #24
 243:./.driver/STM32F10x_StdPeriph_Driver/src/stm32f10x_fsmc.c ****               (FSMC_NORSRAMInitStruct->FSMC_WriteTimingStruct->FSMC_CLKDivision << 20) |
 478              		.loc 1 243 88
 479 0106 42EA0301 		orr	r1, r2, r3
 245:./.driver/STM32F10x_StdPeriph_Driver/src/stm32f10x_fsmc.c ****                FSMC_NORSRAMInitStruct->FSMC_WriteTimingStruct->FSMC_AccessMode;
 480              		.loc 1 245 38
 481 010a 7B68     		ldr	r3, [r7, #4]
 482 010c 9B6B     		ldr	r3, [r3, #56]
 483              		.loc 1 245 62
 484 010e 9A69     		ldr	r2, [r3, #24]
 239:./.driver/STM32F10x_StdPeriph_Driver/src/stm32f10x_fsmc.c ****               (uint32_t)FSMC_NORSRAMInitStruct->FSMC_WriteTimingStruct->FSMC_AddressSetupTime |
 485              		.loc 1 239 16
 486 0110 0948     		ldr	r0, .L20
 239:./.driver/STM32F10x_StdPeriph_Driver/src/stm32f10x_fsmc.c ****               (uint32_t)FSMC_NORSRAMInitStruct->FSMC_WriteTimingStruct->FSMC_AddressSetupTime |
 487              		.loc 1 239 45
 488 0112 7B68     		ldr	r3, [r7, #4]
 489 0114 1B68     		ldr	r3, [r3]
 244:./.driver/STM32F10x_StdPeriph_Driver/src/stm32f10x_fsmc.c ****               (FSMC_NORSRAMInitStruct->FSMC_WriteTimingStruct->FSMC_DataLatency << 24) |
 490              		.loc 1 244 88
 491 0116 0A43     		orrs	r2, r2, r1
 239:./.driver/STM32F10x_StdPeriph_Driver/src/stm32f10x_fsmc.c ****               (uint32_t)FSMC_NORSRAMInitStruct->FSMC_WriteTimingStruct->FSMC_AddressSetupTime |
 492              		.loc 1 239 58
 493 0118 40F82320 		str	r2, [r0, r3, lsl #2]
 246:./.driver/STM32F10x_StdPeriph_Driver/src/stm32f10x_fsmc.c ****   }
 247:./.driver/STM32F10x_StdPeriph_Driver/src/stm32f10x_fsmc.c ****   else
 248:./.driver/STM32F10x_StdPeriph_Driver/src/stm32f10x_fsmc.c ****   {
 249:./.driver/STM32F10x_StdPeriph_Driver/src/stm32f10x_fsmc.c ****     FSMC_Bank1E->BWTR[FSMC_NORSRAMInitStruct->FSMC_Bank] = 0x0FFFFFFF;
 250:./.driver/STM32F10x_StdPeriph_Driver/src/stm32f10x_fsmc.c ****   }
 251:./.driver/STM32F10x_StdPeriph_Driver/src/stm32f10x_fsmc.c **** }
 494              		.loc 1 251 1
 495 011c 06E0     		b	.L19
 496              	.L17:
 249:./.driver/STM32F10x_StdPeriph_Driver/src/stm32f10x_fsmc.c ****   }
 497              		.loc 1 249 16
 498 011e 064A     		ldr	r2, .L20
 249:./.driver/STM32F10x_StdPeriph_Driver/src/stm32f10x_fsmc.c ****   }
 499              		.loc 1 249 45
 500 0120 7B68     		ldr	r3, [r7, #4]
 501 0122 1B68     		ldr	r3, [r3]
 249:./.driver/STM32F10x_StdPeriph_Driver/src/stm32f10x_fsmc.c ****   }
 502              		.loc 1 249 58
 503 0124 6FF07041 		mvn	r1, #-268435456
 504 0128 42F82310 		str	r1, [r2, r3, lsl #2]
 505              	.L19:
 506              		.loc 1 251 1
 507 012c 00BF     		nop
 508 012e 0C37     		adds	r7, r7, #12
 509              	.LCFI19:
 510              		.cfi_def_cfa_offset 4
 511 0130 BD46     		mov	sp, r7
ARM GAS  C:\Users\SAMEER~1.ALM\AppData\Local\Temp\ccWED5M3.s 			page 15


 512              	.LCFI20:
 513              		.cfi_def_cfa_register 13
 514              		@ sp needed
 515 0132 80BC     		pop	{r7}
 516              	.LCFI21:
 517              		.cfi_restore 7
 518              		.cfi_def_cfa_offset 0
 519 0134 7047     		bx	lr
 520              	.L21:
 521 0136 00BF     		.align	2
 522              	.L20:
 523 0138 040100A0 		.word	-1610612476
 524              		.cfi_endproc
 525              	.LFE32:
 527              		.section	.text.FSMC_NANDInit,"ax",%progbits
 528              		.align	1
 529              		.global	FSMC_NANDInit
 530              		.syntax unified
 531              		.thumb
 532              		.thumb_func
 534              	FSMC_NANDInit:
 535              	.LFB33:
 252:./.driver/STM32F10x_StdPeriph_Driver/src/stm32f10x_fsmc.c **** 
 253:./.driver/STM32F10x_StdPeriph_Driver/src/stm32f10x_fsmc.c **** /**
 254:./.driver/STM32F10x_StdPeriph_Driver/src/stm32f10x_fsmc.c ****   * @brief  Initializes the FSMC NAND Banks according to the specified 
 255:./.driver/STM32F10x_StdPeriph_Driver/src/stm32f10x_fsmc.c ****   *         parameters in the FSMC_NANDInitStruct.
 256:./.driver/STM32F10x_StdPeriph_Driver/src/stm32f10x_fsmc.c ****   * @param  FSMC_NANDInitStruct : pointer to a FSMC_NANDInitTypeDef 
 257:./.driver/STM32F10x_StdPeriph_Driver/src/stm32f10x_fsmc.c ****   *         structure that contains the configuration information for the FSMC 
 258:./.driver/STM32F10x_StdPeriph_Driver/src/stm32f10x_fsmc.c ****   *         NAND specified Banks.                       
 259:./.driver/STM32F10x_StdPeriph_Driver/src/stm32f10x_fsmc.c ****   * @retval None
 260:./.driver/STM32F10x_StdPeriph_Driver/src/stm32f10x_fsmc.c ****   */
 261:./.driver/STM32F10x_StdPeriph_Driver/src/stm32f10x_fsmc.c **** void FSMC_NANDInit(FSMC_NANDInitTypeDef* FSMC_NANDInitStruct)
 262:./.driver/STM32F10x_StdPeriph_Driver/src/stm32f10x_fsmc.c **** {
 536              		.loc 1 262 1
 537              		.cfi_startproc
 538              		@ args = 0, pretend = 0, frame = 24
 539              		@ frame_needed = 1, uses_anonymous_args = 0
 540              		@ link register save eliminated.
 541 0000 80B4     		push	{r7}
 542              	.LCFI22:
 543              		.cfi_def_cfa_offset 4
 544              		.cfi_offset 7, -4
 545 0002 87B0     		sub	sp, sp, #28
 546              	.LCFI23:
 547              		.cfi_def_cfa_offset 32
 548 0004 00AF     		add	r7, sp, #0
 549              	.LCFI24:
 550              		.cfi_def_cfa_register 7
 551 0006 7860     		str	r0, [r7, #4]
 263:./.driver/STM32F10x_StdPeriph_Driver/src/stm32f10x_fsmc.c ****   uint32_t tmppcr = 0x00000000, tmppmem = 0x00000000, tmppatt = 0x00000000; 
 552              		.loc 1 263 12
 553 0008 0023     		movs	r3, #0
 554 000a 7B61     		str	r3, [r7, #20]
 555              		.loc 1 263 33
 556 000c 0023     		movs	r3, #0
 557 000e 3B61     		str	r3, [r7, #16]
 558              		.loc 1 263 55
ARM GAS  C:\Users\SAMEER~1.ALM\AppData\Local\Temp\ccWED5M3.s 			page 16


 559 0010 0023     		movs	r3, #0
 560 0012 FB60     		str	r3, [r7, #12]
 264:./.driver/STM32F10x_StdPeriph_Driver/src/stm32f10x_fsmc.c ****     
 265:./.driver/STM32F10x_StdPeriph_Driver/src/stm32f10x_fsmc.c ****   /* Check the parameters */
 266:./.driver/STM32F10x_StdPeriph_Driver/src/stm32f10x_fsmc.c ****   assert_param( IS_FSMC_NAND_BANK(FSMC_NANDInitStruct->FSMC_Bank));
 267:./.driver/STM32F10x_StdPeriph_Driver/src/stm32f10x_fsmc.c ****   assert_param( IS_FSMC_WAIT_FEATURE(FSMC_NANDInitStruct->FSMC_Waitfeature));
 268:./.driver/STM32F10x_StdPeriph_Driver/src/stm32f10x_fsmc.c ****   assert_param( IS_FSMC_MEMORY_WIDTH(FSMC_NANDInitStruct->FSMC_MemoryDataWidth));
 269:./.driver/STM32F10x_StdPeriph_Driver/src/stm32f10x_fsmc.c ****   assert_param( IS_FSMC_ECC_STATE(FSMC_NANDInitStruct->FSMC_ECC));
 270:./.driver/STM32F10x_StdPeriph_Driver/src/stm32f10x_fsmc.c ****   assert_param( IS_FSMC_ECCPAGE_SIZE(FSMC_NANDInitStruct->FSMC_ECCPageSize));
 271:./.driver/STM32F10x_StdPeriph_Driver/src/stm32f10x_fsmc.c ****   assert_param( IS_FSMC_TCLR_TIME(FSMC_NANDInitStruct->FSMC_TCLRSetupTime));
 272:./.driver/STM32F10x_StdPeriph_Driver/src/stm32f10x_fsmc.c ****   assert_param( IS_FSMC_TAR_TIME(FSMC_NANDInitStruct->FSMC_TARSetupTime));
 273:./.driver/STM32F10x_StdPeriph_Driver/src/stm32f10x_fsmc.c ****   assert_param(IS_FSMC_SETUP_TIME(FSMC_NANDInitStruct->FSMC_CommonSpaceTimingStruct->FSMC_SetupTime
 274:./.driver/STM32F10x_StdPeriph_Driver/src/stm32f10x_fsmc.c ****   assert_param(IS_FSMC_WAIT_TIME(FSMC_NANDInitStruct->FSMC_CommonSpaceTimingStruct->FSMC_WaitSetupT
 275:./.driver/STM32F10x_StdPeriph_Driver/src/stm32f10x_fsmc.c ****   assert_param(IS_FSMC_HOLD_TIME(FSMC_NANDInitStruct->FSMC_CommonSpaceTimingStruct->FSMC_HoldSetupT
 276:./.driver/STM32F10x_StdPeriph_Driver/src/stm32f10x_fsmc.c ****   assert_param(IS_FSMC_HIZ_TIME(FSMC_NANDInitStruct->FSMC_CommonSpaceTimingStruct->FSMC_HiZSetupTim
 277:./.driver/STM32F10x_StdPeriph_Driver/src/stm32f10x_fsmc.c ****   assert_param(IS_FSMC_SETUP_TIME(FSMC_NANDInitStruct->FSMC_AttributeSpaceTimingStruct->FSMC_SetupT
 278:./.driver/STM32F10x_StdPeriph_Driver/src/stm32f10x_fsmc.c ****   assert_param(IS_FSMC_WAIT_TIME(FSMC_NANDInitStruct->FSMC_AttributeSpaceTimingStruct->FSMC_WaitSet
 279:./.driver/STM32F10x_StdPeriph_Driver/src/stm32f10x_fsmc.c ****   assert_param(IS_FSMC_HOLD_TIME(FSMC_NANDInitStruct->FSMC_AttributeSpaceTimingStruct->FSMC_HoldSet
 280:./.driver/STM32F10x_StdPeriph_Driver/src/stm32f10x_fsmc.c ****   assert_param(IS_FSMC_HIZ_TIME(FSMC_NANDInitStruct->FSMC_AttributeSpaceTimingStruct->FSMC_HiZSetup
 281:./.driver/STM32F10x_StdPeriph_Driver/src/stm32f10x_fsmc.c ****   
 282:./.driver/STM32F10x_StdPeriph_Driver/src/stm32f10x_fsmc.c ****   /* Set the tmppcr value according to FSMC_NANDInitStruct parameters */
 283:./.driver/STM32F10x_StdPeriph_Driver/src/stm32f10x_fsmc.c ****   tmppcr = (uint32_t)FSMC_NANDInitStruct->FSMC_Waitfeature |
 561              		.loc 1 283 41
 562 0014 7B68     		ldr	r3, [r7, #4]
 563 0016 5A68     		ldr	r2, [r3, #4]
 284:./.driver/STM32F10x_StdPeriph_Driver/src/stm32f10x_fsmc.c ****             PCR_MemoryType_NAND |
 285:./.driver/STM32F10x_StdPeriph_Driver/src/stm32f10x_fsmc.c ****             FSMC_NANDInitStruct->FSMC_MemoryDataWidth |
 564              		.loc 1 285 32
 565 0018 7B68     		ldr	r3, [r7, #4]
 566 001a 9B68     		ldr	r3, [r3, #8]
 284:./.driver/STM32F10x_StdPeriph_Driver/src/stm32f10x_fsmc.c ****             PCR_MemoryType_NAND |
 567              		.loc 1 284 33
 568 001c 1A43     		orrs	r2, r2, r3
 286:./.driver/STM32F10x_StdPeriph_Driver/src/stm32f10x_fsmc.c ****             FSMC_NANDInitStruct->FSMC_ECC |
 569              		.loc 1 286 32
 570 001e 7B68     		ldr	r3, [r7, #4]
 571 0020 DB68     		ldr	r3, [r3, #12]
 285:./.driver/STM32F10x_StdPeriph_Driver/src/stm32f10x_fsmc.c ****             FSMC_NANDInitStruct->FSMC_ECC |
 572              		.loc 1 285 55
 573 0022 1A43     		orrs	r2, r2, r3
 287:./.driver/STM32F10x_StdPeriph_Driver/src/stm32f10x_fsmc.c ****             FSMC_NANDInitStruct->FSMC_ECCPageSize |
 574              		.loc 1 287 32
 575 0024 7B68     		ldr	r3, [r7, #4]
 576 0026 1B69     		ldr	r3, [r3, #16]
 286:./.driver/STM32F10x_StdPeriph_Driver/src/stm32f10x_fsmc.c ****             FSMC_NANDInitStruct->FSMC_ECC |
 577              		.loc 1 286 43
 578 0028 1A43     		orrs	r2, r2, r3
 288:./.driver/STM32F10x_StdPeriph_Driver/src/stm32f10x_fsmc.c ****             (FSMC_NANDInitStruct->FSMC_TCLRSetupTime << 9 )|
 579              		.loc 1 288 33
 580 002a 7B68     		ldr	r3, [r7, #4]
 581 002c 5B69     		ldr	r3, [r3, #20]
 582              		.loc 1 288 54
 583 002e 5B02     		lsls	r3, r3, #9
 287:./.driver/STM32F10x_StdPeriph_Driver/src/stm32f10x_fsmc.c ****             FSMC_NANDInitStruct->FSMC_ECCPageSize |
 584              		.loc 1 287 51
 585 0030 1A43     		orrs	r2, r2, r3
 289:./.driver/STM32F10x_StdPeriph_Driver/src/stm32f10x_fsmc.c ****             (FSMC_NANDInitStruct->FSMC_TARSetupTime << 13);
ARM GAS  C:\Users\SAMEER~1.ALM\AppData\Local\Temp\ccWED5M3.s 			page 17


 586              		.loc 1 289 33
 587 0032 7B68     		ldr	r3, [r7, #4]
 588 0034 9B69     		ldr	r3, [r3, #24]
 589              		.loc 1 289 53
 590 0036 5B03     		lsls	r3, r3, #13
 288:./.driver/STM32F10x_StdPeriph_Driver/src/stm32f10x_fsmc.c ****             (FSMC_NANDInitStruct->FSMC_TCLRSetupTime << 9 )|
 591              		.loc 1 288 60
 592 0038 1343     		orrs	r3, r3, r2
 283:./.driver/STM32F10x_StdPeriph_Driver/src/stm32f10x_fsmc.c ****             PCR_MemoryType_NAND |
 593              		.loc 1 283 10
 594 003a 43F00803 		orr	r3, r3, #8
 595 003e 7B61     		str	r3, [r7, #20]
 290:./.driver/STM32F10x_StdPeriph_Driver/src/stm32f10x_fsmc.c ****             
 291:./.driver/STM32F10x_StdPeriph_Driver/src/stm32f10x_fsmc.c ****   /* Set tmppmem value according to FSMC_CommonSpaceTimingStructure parameters */
 292:./.driver/STM32F10x_StdPeriph_Driver/src/stm32f10x_fsmc.c ****   tmppmem = (uint32_t)FSMC_NANDInitStruct->FSMC_CommonSpaceTimingStruct->FSMC_SetupTime |
 596              		.loc 1 292 42
 597 0040 7B68     		ldr	r3, [r7, #4]
 598 0042 DB69     		ldr	r3, [r3, #28]
 599              		.loc 1 292 72
 600 0044 1A68     		ldr	r2, [r3]
 293:./.driver/STM32F10x_StdPeriph_Driver/src/stm32f10x_fsmc.c ****             (FSMC_NANDInitStruct->FSMC_CommonSpaceTimingStruct->FSMC_WaitSetupTime << 8) |
 601              		.loc 1 293 33
 602 0046 7B68     		ldr	r3, [r7, #4]
 603 0048 DB69     		ldr	r3, [r3, #28]
 604              		.loc 1 293 63
 605 004a 5B68     		ldr	r3, [r3, #4]
 606              		.loc 1 293 84
 607 004c 1B02     		lsls	r3, r3, #8
 292:./.driver/STM32F10x_StdPeriph_Driver/src/stm32f10x_fsmc.c ****             (FSMC_NANDInitStruct->FSMC_CommonSpaceTimingStruct->FSMC_WaitSetupTime << 8) |
 608              		.loc 1 292 89
 609 004e 1A43     		orrs	r2, r2, r3
 294:./.driver/STM32F10x_StdPeriph_Driver/src/stm32f10x_fsmc.c ****             (FSMC_NANDInitStruct->FSMC_CommonSpaceTimingStruct->FSMC_HoldSetupTime << 16)|
 610              		.loc 1 294 33
 611 0050 7B68     		ldr	r3, [r7, #4]
 612 0052 DB69     		ldr	r3, [r3, #28]
 613              		.loc 1 294 63
 614 0054 9B68     		ldr	r3, [r3, #8]
 615              		.loc 1 294 84
 616 0056 1B04     		lsls	r3, r3, #16
 293:./.driver/STM32F10x_StdPeriph_Driver/src/stm32f10x_fsmc.c ****             (FSMC_NANDInitStruct->FSMC_CommonSpaceTimingStruct->FSMC_WaitSetupTime << 8) |
 617              		.loc 1 293 90
 618 0058 1A43     		orrs	r2, r2, r3
 295:./.driver/STM32F10x_StdPeriph_Driver/src/stm32f10x_fsmc.c ****             (FSMC_NANDInitStruct->FSMC_CommonSpaceTimingStruct->FSMC_HiZSetupTime << 24); 
 619              		.loc 1 295 33
 620 005a 7B68     		ldr	r3, [r7, #4]
 621 005c DB69     		ldr	r3, [r3, #28]
 622              		.loc 1 295 63
 623 005e DB68     		ldr	r3, [r3, #12]
 624              		.loc 1 295 83
 625 0060 1B06     		lsls	r3, r3, #24
 292:./.driver/STM32F10x_StdPeriph_Driver/src/stm32f10x_fsmc.c ****             (FSMC_NANDInitStruct->FSMC_CommonSpaceTimingStruct->FSMC_WaitSetupTime << 8) |
 626              		.loc 1 292 11
 627 0062 1343     		orrs	r3, r3, r2
 628 0064 3B61     		str	r3, [r7, #16]
 296:./.driver/STM32F10x_StdPeriph_Driver/src/stm32f10x_fsmc.c ****             
 297:./.driver/STM32F10x_StdPeriph_Driver/src/stm32f10x_fsmc.c ****   /* Set tmppatt value according to FSMC_AttributeSpaceTimingStructure parameters */
 298:./.driver/STM32F10x_StdPeriph_Driver/src/stm32f10x_fsmc.c ****   tmppatt = (uint32_t)FSMC_NANDInitStruct->FSMC_AttributeSpaceTimingStruct->FSMC_SetupTime |
ARM GAS  C:\Users\SAMEER~1.ALM\AppData\Local\Temp\ccWED5M3.s 			page 18


 629              		.loc 1 298 42
 630 0066 7B68     		ldr	r3, [r7, #4]
 631 0068 1B6A     		ldr	r3, [r3, #32]
 632              		.loc 1 298 75
 633 006a 1A68     		ldr	r2, [r3]
 299:./.driver/STM32F10x_StdPeriph_Driver/src/stm32f10x_fsmc.c ****             (FSMC_NANDInitStruct->FSMC_AttributeSpaceTimingStruct->FSMC_WaitSetupTime << 8) |
 634              		.loc 1 299 33
 635 006c 7B68     		ldr	r3, [r7, #4]
 636 006e 1B6A     		ldr	r3, [r3, #32]
 637              		.loc 1 299 66
 638 0070 5B68     		ldr	r3, [r3, #4]
 639              		.loc 1 299 87
 640 0072 1B02     		lsls	r3, r3, #8
 298:./.driver/STM32F10x_StdPeriph_Driver/src/stm32f10x_fsmc.c ****             (FSMC_NANDInitStruct->FSMC_AttributeSpaceTimingStruct->FSMC_WaitSetupTime << 8) |
 641              		.loc 1 298 92
 642 0074 1A43     		orrs	r2, r2, r3
 300:./.driver/STM32F10x_StdPeriph_Driver/src/stm32f10x_fsmc.c ****             (FSMC_NANDInitStruct->FSMC_AttributeSpaceTimingStruct->FSMC_HoldSetupTime << 16)|
 643              		.loc 1 300 33
 644 0076 7B68     		ldr	r3, [r7, #4]
 645 0078 1B6A     		ldr	r3, [r3, #32]
 646              		.loc 1 300 66
 647 007a 9B68     		ldr	r3, [r3, #8]
 648              		.loc 1 300 87
 649 007c 1B04     		lsls	r3, r3, #16
 299:./.driver/STM32F10x_StdPeriph_Driver/src/stm32f10x_fsmc.c ****             (FSMC_NANDInitStruct->FSMC_AttributeSpaceTimingStruct->FSMC_WaitSetupTime << 8) |
 650              		.loc 1 299 93
 651 007e 1A43     		orrs	r2, r2, r3
 301:./.driver/STM32F10x_StdPeriph_Driver/src/stm32f10x_fsmc.c ****             (FSMC_NANDInitStruct->FSMC_AttributeSpaceTimingStruct->FSMC_HiZSetupTime << 24);
 652              		.loc 1 301 33
 653 0080 7B68     		ldr	r3, [r7, #4]
 654 0082 1B6A     		ldr	r3, [r3, #32]
 655              		.loc 1 301 66
 656 0084 DB68     		ldr	r3, [r3, #12]
 657              		.loc 1 301 86
 658 0086 1B06     		lsls	r3, r3, #24
 298:./.driver/STM32F10x_StdPeriph_Driver/src/stm32f10x_fsmc.c ****             (FSMC_NANDInitStruct->FSMC_AttributeSpaceTimingStruct->FSMC_WaitSetupTime << 8) |
 659              		.loc 1 298 11
 660 0088 1343     		orrs	r3, r3, r2
 661 008a FB60     		str	r3, [r7, #12]
 302:./.driver/STM32F10x_StdPeriph_Driver/src/stm32f10x_fsmc.c ****   
 303:./.driver/STM32F10x_StdPeriph_Driver/src/stm32f10x_fsmc.c ****   if(FSMC_NANDInitStruct->FSMC_Bank == FSMC_Bank2_NAND)
 662              		.loc 1 303 25
 663 008c 7B68     		ldr	r3, [r7, #4]
 664 008e 1B68     		ldr	r3, [r3]
 665              		.loc 1 303 5
 666 0090 102B     		cmp	r3, #16
 667 0092 09D1     		bne	.L23
 304:./.driver/STM32F10x_StdPeriph_Driver/src/stm32f10x_fsmc.c ****   {
 305:./.driver/STM32F10x_StdPeriph_Driver/src/stm32f10x_fsmc.c ****     /* FSMC_Bank2_NAND registers configuration */
 306:./.driver/STM32F10x_StdPeriph_Driver/src/stm32f10x_fsmc.c ****     FSMC_Bank2->PCR2 = tmppcr;
 668              		.loc 1 306 15
 669 0094 0B4A     		ldr	r2, .L26
 670              		.loc 1 306 22
 671 0096 7B69     		ldr	r3, [r7, #20]
 672 0098 1360     		str	r3, [r2]
 307:./.driver/STM32F10x_StdPeriph_Driver/src/stm32f10x_fsmc.c ****     FSMC_Bank2->PMEM2 = tmppmem;
 673              		.loc 1 307 15
ARM GAS  C:\Users\SAMEER~1.ALM\AppData\Local\Temp\ccWED5M3.s 			page 19


 674 009a 0A4A     		ldr	r2, .L26
 675              		.loc 1 307 23
 676 009c 3B69     		ldr	r3, [r7, #16]
 677 009e 9360     		str	r3, [r2, #8]
 308:./.driver/STM32F10x_StdPeriph_Driver/src/stm32f10x_fsmc.c ****     FSMC_Bank2->PATT2 = tmppatt;
 678              		.loc 1 308 15
 679 00a0 084A     		ldr	r2, .L26
 680              		.loc 1 308 23
 681 00a2 FB68     		ldr	r3, [r7, #12]
 682 00a4 D360     		str	r3, [r2, #12]
 309:./.driver/STM32F10x_StdPeriph_Driver/src/stm32f10x_fsmc.c ****   }
 310:./.driver/STM32F10x_StdPeriph_Driver/src/stm32f10x_fsmc.c ****   else
 311:./.driver/STM32F10x_StdPeriph_Driver/src/stm32f10x_fsmc.c ****   {
 312:./.driver/STM32F10x_StdPeriph_Driver/src/stm32f10x_fsmc.c ****     /* FSMC_Bank3_NAND registers configuration */
 313:./.driver/STM32F10x_StdPeriph_Driver/src/stm32f10x_fsmc.c ****     FSMC_Bank3->PCR3 = tmppcr;
 314:./.driver/STM32F10x_StdPeriph_Driver/src/stm32f10x_fsmc.c ****     FSMC_Bank3->PMEM3 = tmppmem;
 315:./.driver/STM32F10x_StdPeriph_Driver/src/stm32f10x_fsmc.c ****     FSMC_Bank3->PATT3 = tmppatt;
 316:./.driver/STM32F10x_StdPeriph_Driver/src/stm32f10x_fsmc.c ****   }
 317:./.driver/STM32F10x_StdPeriph_Driver/src/stm32f10x_fsmc.c **** }
 683              		.loc 1 317 1
 684 00a6 08E0     		b	.L25
 685              	.L23:
 313:./.driver/STM32F10x_StdPeriph_Driver/src/stm32f10x_fsmc.c ****     FSMC_Bank3->PMEM3 = tmppmem;
 686              		.loc 1 313 15
 687 00a8 074A     		ldr	r2, .L26+4
 313:./.driver/STM32F10x_StdPeriph_Driver/src/stm32f10x_fsmc.c ****     FSMC_Bank3->PMEM3 = tmppmem;
 688              		.loc 1 313 22
 689 00aa 7B69     		ldr	r3, [r7, #20]
 690 00ac 1360     		str	r3, [r2]
 314:./.driver/STM32F10x_StdPeriph_Driver/src/stm32f10x_fsmc.c ****     FSMC_Bank3->PATT3 = tmppatt;
 691              		.loc 1 314 15
 692 00ae 064A     		ldr	r2, .L26+4
 314:./.driver/STM32F10x_StdPeriph_Driver/src/stm32f10x_fsmc.c ****     FSMC_Bank3->PATT3 = tmppatt;
 693              		.loc 1 314 23
 694 00b0 3B69     		ldr	r3, [r7, #16]
 695 00b2 9360     		str	r3, [r2, #8]
 315:./.driver/STM32F10x_StdPeriph_Driver/src/stm32f10x_fsmc.c ****   }
 696              		.loc 1 315 15
 697 00b4 044A     		ldr	r2, .L26+4
 315:./.driver/STM32F10x_StdPeriph_Driver/src/stm32f10x_fsmc.c ****   }
 698              		.loc 1 315 23
 699 00b6 FB68     		ldr	r3, [r7, #12]
 700 00b8 D360     		str	r3, [r2, #12]
 701              	.L25:
 702              		.loc 1 317 1
 703 00ba 00BF     		nop
 704 00bc 1C37     		adds	r7, r7, #28
 705              	.LCFI25:
 706              		.cfi_def_cfa_offset 4
 707 00be BD46     		mov	sp, r7
 708              	.LCFI26:
 709              		.cfi_def_cfa_register 13
 710              		@ sp needed
 711 00c0 80BC     		pop	{r7}
 712              	.LCFI27:
 713              		.cfi_restore 7
 714              		.cfi_def_cfa_offset 0
ARM GAS  C:\Users\SAMEER~1.ALM\AppData\Local\Temp\ccWED5M3.s 			page 20


 715 00c2 7047     		bx	lr
 716              	.L27:
 717              		.align	2
 718              	.L26:
 719 00c4 600000A0 		.word	-1610612640
 720 00c8 800000A0 		.word	-1610612608
 721              		.cfi_endproc
 722              	.LFE33:
 724              		.section	.text.FSMC_PCCARDInit,"ax",%progbits
 725              		.align	1
 726              		.global	FSMC_PCCARDInit
 727              		.syntax unified
 728              		.thumb
 729              		.thumb_func
 731              	FSMC_PCCARDInit:
 732              	.LFB34:
 318:./.driver/STM32F10x_StdPeriph_Driver/src/stm32f10x_fsmc.c **** 
 319:./.driver/STM32F10x_StdPeriph_Driver/src/stm32f10x_fsmc.c **** /**
 320:./.driver/STM32F10x_StdPeriph_Driver/src/stm32f10x_fsmc.c ****   * @brief  Initializes the FSMC PCCARD Bank according to the specified 
 321:./.driver/STM32F10x_StdPeriph_Driver/src/stm32f10x_fsmc.c ****   *         parameters in the FSMC_PCCARDInitStruct.
 322:./.driver/STM32F10x_StdPeriph_Driver/src/stm32f10x_fsmc.c ****   * @param  FSMC_PCCARDInitStruct : pointer to a FSMC_PCCARDInitTypeDef
 323:./.driver/STM32F10x_StdPeriph_Driver/src/stm32f10x_fsmc.c ****   *         structure that contains the configuration information for the FSMC 
 324:./.driver/STM32F10x_StdPeriph_Driver/src/stm32f10x_fsmc.c ****   *         PCCARD Bank.                       
 325:./.driver/STM32F10x_StdPeriph_Driver/src/stm32f10x_fsmc.c ****   * @retval None
 326:./.driver/STM32F10x_StdPeriph_Driver/src/stm32f10x_fsmc.c ****   */
 327:./.driver/STM32F10x_StdPeriph_Driver/src/stm32f10x_fsmc.c **** void FSMC_PCCARDInit(FSMC_PCCARDInitTypeDef* FSMC_PCCARDInitStruct)
 328:./.driver/STM32F10x_StdPeriph_Driver/src/stm32f10x_fsmc.c **** {
 733              		.loc 1 328 1
 734              		.cfi_startproc
 735              		@ args = 0, pretend = 0, frame = 8
 736              		@ frame_needed = 1, uses_anonymous_args = 0
 737              		@ link register save eliminated.
 738 0000 80B4     		push	{r7}
 739              	.LCFI28:
 740              		.cfi_def_cfa_offset 4
 741              		.cfi_offset 7, -4
 742 0002 83B0     		sub	sp, sp, #12
 743              	.LCFI29:
 744              		.cfi_def_cfa_offset 16
 745 0004 00AF     		add	r7, sp, #0
 746              	.LCFI30:
 747              		.cfi_def_cfa_register 7
 748 0006 7860     		str	r0, [r7, #4]
 329:./.driver/STM32F10x_StdPeriph_Driver/src/stm32f10x_fsmc.c ****   /* Check the parameters */
 330:./.driver/STM32F10x_StdPeriph_Driver/src/stm32f10x_fsmc.c ****   assert_param(IS_FSMC_WAIT_FEATURE(FSMC_PCCARDInitStruct->FSMC_Waitfeature));
 331:./.driver/STM32F10x_StdPeriph_Driver/src/stm32f10x_fsmc.c ****   assert_param(IS_FSMC_TCLR_TIME(FSMC_PCCARDInitStruct->FSMC_TCLRSetupTime));
 332:./.driver/STM32F10x_StdPeriph_Driver/src/stm32f10x_fsmc.c ****   assert_param(IS_FSMC_TAR_TIME(FSMC_PCCARDInitStruct->FSMC_TARSetupTime));
 333:./.driver/STM32F10x_StdPeriph_Driver/src/stm32f10x_fsmc.c ****  
 334:./.driver/STM32F10x_StdPeriph_Driver/src/stm32f10x_fsmc.c ****   assert_param(IS_FSMC_SETUP_TIME(FSMC_PCCARDInitStruct->FSMC_CommonSpaceTimingStruct->FSMC_SetupTi
 335:./.driver/STM32F10x_StdPeriph_Driver/src/stm32f10x_fsmc.c ****   assert_param(IS_FSMC_WAIT_TIME(FSMC_PCCARDInitStruct->FSMC_CommonSpaceTimingStruct->FSMC_WaitSetu
 336:./.driver/STM32F10x_StdPeriph_Driver/src/stm32f10x_fsmc.c ****   assert_param(IS_FSMC_HOLD_TIME(FSMC_PCCARDInitStruct->FSMC_CommonSpaceTimingStruct->FSMC_HoldSetu
 337:./.driver/STM32F10x_StdPeriph_Driver/src/stm32f10x_fsmc.c ****   assert_param(IS_FSMC_HIZ_TIME(FSMC_PCCARDInitStruct->FSMC_CommonSpaceTimingStruct->FSMC_HiZSetupT
 338:./.driver/STM32F10x_StdPeriph_Driver/src/stm32f10x_fsmc.c ****   
 339:./.driver/STM32F10x_StdPeriph_Driver/src/stm32f10x_fsmc.c ****   assert_param(IS_FSMC_SETUP_TIME(FSMC_PCCARDInitStruct->FSMC_AttributeSpaceTimingStruct->FSMC_Setu
 340:./.driver/STM32F10x_StdPeriph_Driver/src/stm32f10x_fsmc.c ****   assert_param(IS_FSMC_WAIT_TIME(FSMC_PCCARDInitStruct->FSMC_AttributeSpaceTimingStruct->FSMC_WaitS
 341:./.driver/STM32F10x_StdPeriph_Driver/src/stm32f10x_fsmc.c ****   assert_param(IS_FSMC_HOLD_TIME(FSMC_PCCARDInitStruct->FSMC_AttributeSpaceTimingStruct->FSMC_HoldS
 342:./.driver/STM32F10x_StdPeriph_Driver/src/stm32f10x_fsmc.c ****   assert_param(IS_FSMC_HIZ_TIME(FSMC_PCCARDInitStruct->FSMC_AttributeSpaceTimingStruct->FSMC_HiZSet
ARM GAS  C:\Users\SAMEER~1.ALM\AppData\Local\Temp\ccWED5M3.s 			page 21


 343:./.driver/STM32F10x_StdPeriph_Driver/src/stm32f10x_fsmc.c ****   assert_param(IS_FSMC_SETUP_TIME(FSMC_PCCARDInitStruct->FSMC_IOSpaceTimingStruct->FSMC_SetupTime))
 344:./.driver/STM32F10x_StdPeriph_Driver/src/stm32f10x_fsmc.c ****   assert_param(IS_FSMC_WAIT_TIME(FSMC_PCCARDInitStruct->FSMC_IOSpaceTimingStruct->FSMC_WaitSetupTim
 345:./.driver/STM32F10x_StdPeriph_Driver/src/stm32f10x_fsmc.c ****   assert_param(IS_FSMC_HOLD_TIME(FSMC_PCCARDInitStruct->FSMC_IOSpaceTimingStruct->FSMC_HoldSetupTim
 346:./.driver/STM32F10x_StdPeriph_Driver/src/stm32f10x_fsmc.c ****   assert_param(IS_FSMC_HIZ_TIME(FSMC_PCCARDInitStruct->FSMC_IOSpaceTimingStruct->FSMC_HiZSetupTime)
 347:./.driver/STM32F10x_StdPeriph_Driver/src/stm32f10x_fsmc.c ****   
 348:./.driver/STM32F10x_StdPeriph_Driver/src/stm32f10x_fsmc.c ****   /* Set the PCR4 register value according to FSMC_PCCARDInitStruct parameters */
 349:./.driver/STM32F10x_StdPeriph_Driver/src/stm32f10x_fsmc.c ****   FSMC_Bank4->PCR4 = (uint32_t)FSMC_PCCARDInitStruct->FSMC_Waitfeature |
 749              		.loc 1 349 53
 750 0008 7B68     		ldr	r3, [r7, #4]
 751 000a 1A68     		ldr	r2, [r3]
 350:./.driver/STM32F10x_StdPeriph_Driver/src/stm32f10x_fsmc.c ****                      FSMC_MemoryDataWidth_16b |  
 351:./.driver/STM32F10x_StdPeriph_Driver/src/stm32f10x_fsmc.c ****                      (FSMC_PCCARDInitStruct->FSMC_TCLRSetupTime << 9) |
 752              		.loc 1 351 44
 753 000c 7B68     		ldr	r3, [r7, #4]
 754 000e 5B68     		ldr	r3, [r3, #4]
 755              		.loc 1 351 65
 756 0010 5B02     		lsls	r3, r3, #9
 350:./.driver/STM32F10x_StdPeriph_Driver/src/stm32f10x_fsmc.c ****                      FSMC_MemoryDataWidth_16b |  
 757              		.loc 1 350 47
 758 0012 1A43     		orrs	r2, r2, r3
 352:./.driver/STM32F10x_StdPeriph_Driver/src/stm32f10x_fsmc.c ****                      (FSMC_PCCARDInitStruct->FSMC_TARSetupTime << 13);
 759              		.loc 1 352 44
 760 0014 7B68     		ldr	r3, [r7, #4]
 761 0016 9B68     		ldr	r3, [r3, #8]
 762              		.loc 1 352 64
 763 0018 5B03     		lsls	r3, r3, #13
 351:./.driver/STM32F10x_StdPeriph_Driver/src/stm32f10x_fsmc.c ****                      (FSMC_PCCARDInitStruct->FSMC_TARSetupTime << 13);
 764              		.loc 1 351 71
 765 001a 1343     		orrs	r3, r3, r2
 349:./.driver/STM32F10x_StdPeriph_Driver/src/stm32f10x_fsmc.c ****                      FSMC_MemoryDataWidth_16b |  
 766              		.loc 1 349 13
 767 001c 224A     		ldr	r2, .L29
 351:./.driver/STM32F10x_StdPeriph_Driver/src/stm32f10x_fsmc.c ****                      (FSMC_PCCARDInitStruct->FSMC_TARSetupTime << 13);
 768              		.loc 1 351 71
 769 001e 43F01003 		orr	r3, r3, #16
 349:./.driver/STM32F10x_StdPeriph_Driver/src/stm32f10x_fsmc.c ****                      FSMC_MemoryDataWidth_16b |  
 770              		.loc 1 349 20
 771 0022 1360     		str	r3, [r2]
 353:./.driver/STM32F10x_StdPeriph_Driver/src/stm32f10x_fsmc.c ****             
 354:./.driver/STM32F10x_StdPeriph_Driver/src/stm32f10x_fsmc.c ****   /* Set PMEM4 register value according to FSMC_CommonSpaceTimingStructure parameters */
 355:./.driver/STM32F10x_StdPeriph_Driver/src/stm32f10x_fsmc.c ****   FSMC_Bank4->PMEM4 = (uint32_t)FSMC_PCCARDInitStruct->FSMC_CommonSpaceTimingStruct->FSMC_SetupTime
 772              		.loc 1 355 54
 773 0024 7B68     		ldr	r3, [r7, #4]
 774 0026 DB68     		ldr	r3, [r3, #12]
 775              		.loc 1 355 84
 776 0028 1A68     		ldr	r2, [r3]
 356:./.driver/STM32F10x_StdPeriph_Driver/src/stm32f10x_fsmc.c ****                       (FSMC_PCCARDInitStruct->FSMC_CommonSpaceTimingStruct->FSMC_WaitSetupTime << 8
 777              		.loc 1 356 45
 778 002a 7B68     		ldr	r3, [r7, #4]
 779 002c DB68     		ldr	r3, [r3, #12]
 780              		.loc 1 356 75
 781 002e 5B68     		ldr	r3, [r3, #4]
 782              		.loc 1 356 96
 783 0030 1B02     		lsls	r3, r3, #8
 355:./.driver/STM32F10x_StdPeriph_Driver/src/stm32f10x_fsmc.c ****                       (FSMC_PCCARDInitStruct->FSMC_CommonSpaceTimingStruct->FSMC_WaitSetupTime << 8
 784              		.loc 1 355 101
 785 0032 1A43     		orrs	r2, r2, r3
ARM GAS  C:\Users\SAMEER~1.ALM\AppData\Local\Temp\ccWED5M3.s 			page 22


 357:./.driver/STM32F10x_StdPeriph_Driver/src/stm32f10x_fsmc.c ****                       (FSMC_PCCARDInitStruct->FSMC_CommonSpaceTimingStruct->FSMC_HoldSetupTime << 1
 786              		.loc 1 357 45
 787 0034 7B68     		ldr	r3, [r7, #4]
 788 0036 DB68     		ldr	r3, [r3, #12]
 789              		.loc 1 357 75
 790 0038 9B68     		ldr	r3, [r3, #8]
 791              		.loc 1 357 96
 792 003a 1B04     		lsls	r3, r3, #16
 356:./.driver/STM32F10x_StdPeriph_Driver/src/stm32f10x_fsmc.c ****                       (FSMC_PCCARDInitStruct->FSMC_CommonSpaceTimingStruct->FSMC_WaitSetupTime << 8
 793              		.loc 1 356 102
 794 003c 1A43     		orrs	r2, r2, r3
 358:./.driver/STM32F10x_StdPeriph_Driver/src/stm32f10x_fsmc.c ****                       (FSMC_PCCARDInitStruct->FSMC_CommonSpaceTimingStruct->FSMC_HiZSetupTime << 24
 795              		.loc 1 358 45
 796 003e 7B68     		ldr	r3, [r7, #4]
 797 0040 DB68     		ldr	r3, [r3, #12]
 798              		.loc 1 358 75
 799 0042 DB68     		ldr	r3, [r3, #12]
 800              		.loc 1 358 95
 801 0044 1B06     		lsls	r3, r3, #24
 355:./.driver/STM32F10x_StdPeriph_Driver/src/stm32f10x_fsmc.c ****                       (FSMC_PCCARDInitStruct->FSMC_CommonSpaceTimingStruct->FSMC_WaitSetupTime << 8
 802              		.loc 1 355 13
 803 0046 1849     		ldr	r1, .L29
 357:./.driver/STM32F10x_StdPeriph_Driver/src/stm32f10x_fsmc.c ****                       (FSMC_PCCARDInitStruct->FSMC_CommonSpaceTimingStruct->FSMC_HoldSetupTime << 1
 804              		.loc 1 357 102
 805 0048 1343     		orrs	r3, r3, r2
 355:./.driver/STM32F10x_StdPeriph_Driver/src/stm32f10x_fsmc.c ****                       (FSMC_PCCARDInitStruct->FSMC_CommonSpaceTimingStruct->FSMC_WaitSetupTime << 8
 806              		.loc 1 355 21
 807 004a 8B60     		str	r3, [r1, #8]
 359:./.driver/STM32F10x_StdPeriph_Driver/src/stm32f10x_fsmc.c ****             
 360:./.driver/STM32F10x_StdPeriph_Driver/src/stm32f10x_fsmc.c ****   /* Set PATT4 register value according to FSMC_AttributeSpaceTimingStructure parameters */
 361:./.driver/STM32F10x_StdPeriph_Driver/src/stm32f10x_fsmc.c ****   FSMC_Bank4->PATT4 = (uint32_t)FSMC_PCCARDInitStruct->FSMC_AttributeSpaceTimingStruct->FSMC_SetupT
 808              		.loc 1 361 54
 809 004c 7B68     		ldr	r3, [r7, #4]
 810 004e 1B69     		ldr	r3, [r3, #16]
 811              		.loc 1 361 87
 812 0050 1A68     		ldr	r2, [r3]
 362:./.driver/STM32F10x_StdPeriph_Driver/src/stm32f10x_fsmc.c ****                       (FSMC_PCCARDInitStruct->FSMC_AttributeSpaceTimingStruct->FSMC_WaitSetupTime <
 813              		.loc 1 362 45
 814 0052 7B68     		ldr	r3, [r7, #4]
 815 0054 1B69     		ldr	r3, [r3, #16]
 816              		.loc 1 362 78
 817 0056 5B68     		ldr	r3, [r3, #4]
 818              		.loc 1 362 99
 819 0058 1B02     		lsls	r3, r3, #8
 361:./.driver/STM32F10x_StdPeriph_Driver/src/stm32f10x_fsmc.c ****                       (FSMC_PCCARDInitStruct->FSMC_AttributeSpaceTimingStruct->FSMC_WaitSetupTime <
 820              		.loc 1 361 104
 821 005a 1A43     		orrs	r2, r2, r3
 363:./.driver/STM32F10x_StdPeriph_Driver/src/stm32f10x_fsmc.c ****                       (FSMC_PCCARDInitStruct->FSMC_AttributeSpaceTimingStruct->FSMC_HoldSetupTime <
 822              		.loc 1 363 45
 823 005c 7B68     		ldr	r3, [r7, #4]
 824 005e 1B69     		ldr	r3, [r3, #16]
 825              		.loc 1 363 78
 826 0060 9B68     		ldr	r3, [r3, #8]
 827              		.loc 1 363 99
 828 0062 1B04     		lsls	r3, r3, #16
 362:./.driver/STM32F10x_StdPeriph_Driver/src/stm32f10x_fsmc.c ****                       (FSMC_PCCARDInitStruct->FSMC_AttributeSpaceTimingStruct->FSMC_WaitSetupTime <
 829              		.loc 1 362 105
ARM GAS  C:\Users\SAMEER~1.ALM\AppData\Local\Temp\ccWED5M3.s 			page 23


 830 0064 1A43     		orrs	r2, r2, r3
 364:./.driver/STM32F10x_StdPeriph_Driver/src/stm32f10x_fsmc.c ****                       (FSMC_PCCARDInitStruct->FSMC_AttributeSpaceTimingStruct->FSMC_HiZSetupTime <<
 831              		.loc 1 364 45
 832 0066 7B68     		ldr	r3, [r7, #4]
 833 0068 1B69     		ldr	r3, [r3, #16]
 834              		.loc 1 364 78
 835 006a DB68     		ldr	r3, [r3, #12]
 836              		.loc 1 364 98
 837 006c 1B06     		lsls	r3, r3, #24
 361:./.driver/STM32F10x_StdPeriph_Driver/src/stm32f10x_fsmc.c ****                       (FSMC_PCCARDInitStruct->FSMC_AttributeSpaceTimingStruct->FSMC_WaitSetupTime <
 838              		.loc 1 361 13
 839 006e 0E49     		ldr	r1, .L29
 363:./.driver/STM32F10x_StdPeriph_Driver/src/stm32f10x_fsmc.c ****                       (FSMC_PCCARDInitStruct->FSMC_AttributeSpaceTimingStruct->FSMC_HoldSetupTime <
 840              		.loc 1 363 105
 841 0070 1343     		orrs	r3, r3, r2
 361:./.driver/STM32F10x_StdPeriph_Driver/src/stm32f10x_fsmc.c ****                       (FSMC_PCCARDInitStruct->FSMC_AttributeSpaceTimingStruct->FSMC_WaitSetupTime <
 842              		.loc 1 361 21
 843 0072 CB60     		str	r3, [r1, #12]
 365:./.driver/STM32F10x_StdPeriph_Driver/src/stm32f10x_fsmc.c ****             
 366:./.driver/STM32F10x_StdPeriph_Driver/src/stm32f10x_fsmc.c ****   /* Set PIO4 register value according to FSMC_IOSpaceTimingStructure parameters */
 367:./.driver/STM32F10x_StdPeriph_Driver/src/stm32f10x_fsmc.c ****   FSMC_Bank4->PIO4 = (uint32_t)FSMC_PCCARDInitStruct->FSMC_IOSpaceTimingStruct->FSMC_SetupTime |
 844              		.loc 1 367 53
 845 0074 7B68     		ldr	r3, [r7, #4]
 846 0076 5B69     		ldr	r3, [r3, #20]
 847              		.loc 1 367 79
 848 0078 1A68     		ldr	r2, [r3]
 368:./.driver/STM32F10x_StdPeriph_Driver/src/stm32f10x_fsmc.c ****                      (FSMC_PCCARDInitStruct->FSMC_IOSpaceTimingStruct->FSMC_WaitSetupTime << 8) |
 849              		.loc 1 368 44
 850 007a 7B68     		ldr	r3, [r7, #4]
 851 007c 5B69     		ldr	r3, [r3, #20]
 852              		.loc 1 368 70
 853 007e 5B68     		ldr	r3, [r3, #4]
 854              		.loc 1 368 91
 855 0080 1B02     		lsls	r3, r3, #8
 367:./.driver/STM32F10x_StdPeriph_Driver/src/stm32f10x_fsmc.c ****                      (FSMC_PCCARDInitStruct->FSMC_IOSpaceTimingStruct->FSMC_WaitSetupTime << 8) |
 856              		.loc 1 367 96
 857 0082 1A43     		orrs	r2, r2, r3
 369:./.driver/STM32F10x_StdPeriph_Driver/src/stm32f10x_fsmc.c ****                      (FSMC_PCCARDInitStruct->FSMC_IOSpaceTimingStruct->FSMC_HoldSetupTime << 16)|
 858              		.loc 1 369 44
 859 0084 7B68     		ldr	r3, [r7, #4]
 860 0086 5B69     		ldr	r3, [r3, #20]
 861              		.loc 1 369 70
 862 0088 9B68     		ldr	r3, [r3, #8]
 863              		.loc 1 369 91
 864 008a 1B04     		lsls	r3, r3, #16
 368:./.driver/STM32F10x_StdPeriph_Driver/src/stm32f10x_fsmc.c ****                      (FSMC_PCCARDInitStruct->FSMC_IOSpaceTimingStruct->FSMC_WaitSetupTime << 8) |
 865              		.loc 1 368 97
 866 008c 1A43     		orrs	r2, r2, r3
 370:./.driver/STM32F10x_StdPeriph_Driver/src/stm32f10x_fsmc.c ****                      (FSMC_PCCARDInitStruct->FSMC_IOSpaceTimingStruct->FSMC_HiZSetupTime << 24);   
 867              		.loc 1 370 44
 868 008e 7B68     		ldr	r3, [r7, #4]
 869 0090 5B69     		ldr	r3, [r3, #20]
 870              		.loc 1 370 70
 871 0092 DB68     		ldr	r3, [r3, #12]
 872              		.loc 1 370 90
 873 0094 1B06     		lsls	r3, r3, #24
 367:./.driver/STM32F10x_StdPeriph_Driver/src/stm32f10x_fsmc.c ****                      (FSMC_PCCARDInitStruct->FSMC_IOSpaceTimingStruct->FSMC_WaitSetupTime << 8) |
ARM GAS  C:\Users\SAMEER~1.ALM\AppData\Local\Temp\ccWED5M3.s 			page 24


 874              		.loc 1 367 13
 875 0096 0449     		ldr	r1, .L29
 369:./.driver/STM32F10x_StdPeriph_Driver/src/stm32f10x_fsmc.c ****                      (FSMC_PCCARDInitStruct->FSMC_IOSpaceTimingStruct->FSMC_HoldSetupTime << 16)|
 876              		.loc 1 369 97
 877 0098 1343     		orrs	r3, r3, r2
 367:./.driver/STM32F10x_StdPeriph_Driver/src/stm32f10x_fsmc.c ****                      (FSMC_PCCARDInitStruct->FSMC_IOSpaceTimingStruct->FSMC_WaitSetupTime << 8) |
 878              		.loc 1 367 20
 879 009a 0B61     		str	r3, [r1, #16]
 371:./.driver/STM32F10x_StdPeriph_Driver/src/stm32f10x_fsmc.c **** }
 880              		.loc 1 371 1
 881 009c 00BF     		nop
 882 009e 0C37     		adds	r7, r7, #12
 883              	.LCFI31:
 884              		.cfi_def_cfa_offset 4
 885 00a0 BD46     		mov	sp, r7
 886              	.LCFI32:
 887              		.cfi_def_cfa_register 13
 888              		@ sp needed
 889 00a2 80BC     		pop	{r7}
 890              	.LCFI33:
 891              		.cfi_restore 7
 892              		.cfi_def_cfa_offset 0
 893 00a4 7047     		bx	lr
 894              	.L30:
 895 00a6 00BF     		.align	2
 896              	.L29:
 897 00a8 A00000A0 		.word	-1610612576
 898              		.cfi_endproc
 899              	.LFE34:
 901              		.section	.text.FSMC_NORSRAMStructInit,"ax",%progbits
 902              		.align	1
 903              		.global	FSMC_NORSRAMStructInit
 904              		.syntax unified
 905              		.thumb
 906              		.thumb_func
 908              	FSMC_NORSRAMStructInit:
 909              	.LFB35:
 372:./.driver/STM32F10x_StdPeriph_Driver/src/stm32f10x_fsmc.c **** 
 373:./.driver/STM32F10x_StdPeriph_Driver/src/stm32f10x_fsmc.c **** /**
 374:./.driver/STM32F10x_StdPeriph_Driver/src/stm32f10x_fsmc.c ****   * @brief  Fills each FSMC_NORSRAMInitStruct member with its default value.
 375:./.driver/STM32F10x_StdPeriph_Driver/src/stm32f10x_fsmc.c ****   * @param  FSMC_NORSRAMInitStruct: pointer to a FSMC_NORSRAMInitTypeDef 
 376:./.driver/STM32F10x_StdPeriph_Driver/src/stm32f10x_fsmc.c ****   *         structure which will be initialized.
 377:./.driver/STM32F10x_StdPeriph_Driver/src/stm32f10x_fsmc.c ****   * @retval None
 378:./.driver/STM32F10x_StdPeriph_Driver/src/stm32f10x_fsmc.c ****   */
 379:./.driver/STM32F10x_StdPeriph_Driver/src/stm32f10x_fsmc.c **** void FSMC_NORSRAMStructInit(FSMC_NORSRAMInitTypeDef* FSMC_NORSRAMInitStruct)
 380:./.driver/STM32F10x_StdPeriph_Driver/src/stm32f10x_fsmc.c **** {  
 910              		.loc 1 380 1
 911              		.cfi_startproc
 912              		@ args = 0, pretend = 0, frame = 8
 913              		@ frame_needed = 1, uses_anonymous_args = 0
 914              		@ link register save eliminated.
 915 0000 80B4     		push	{r7}
 916              	.LCFI34:
 917              		.cfi_def_cfa_offset 4
 918              		.cfi_offset 7, -4
 919 0002 83B0     		sub	sp, sp, #12
 920              	.LCFI35:
ARM GAS  C:\Users\SAMEER~1.ALM\AppData\Local\Temp\ccWED5M3.s 			page 25


 921              		.cfi_def_cfa_offset 16
 922 0004 00AF     		add	r7, sp, #0
 923              	.LCFI36:
 924              		.cfi_def_cfa_register 7
 925 0006 7860     		str	r0, [r7, #4]
 381:./.driver/STM32F10x_StdPeriph_Driver/src/stm32f10x_fsmc.c ****   /* Reset NOR/SRAM Init structure parameters values */
 382:./.driver/STM32F10x_StdPeriph_Driver/src/stm32f10x_fsmc.c ****   FSMC_NORSRAMInitStruct->FSMC_Bank = FSMC_Bank1_NORSRAM1;
 926              		.loc 1 382 37
 927 0008 7B68     		ldr	r3, [r7, #4]
 928 000a 0022     		movs	r2, #0
 929 000c 1A60     		str	r2, [r3]
 383:./.driver/STM32F10x_StdPeriph_Driver/src/stm32f10x_fsmc.c ****   FSMC_NORSRAMInitStruct->FSMC_DataAddressMux = FSMC_DataAddressMux_Enable;
 930              		.loc 1 383 47
 931 000e 7B68     		ldr	r3, [r7, #4]
 932 0010 0222     		movs	r2, #2
 933 0012 5A60     		str	r2, [r3, #4]
 384:./.driver/STM32F10x_StdPeriph_Driver/src/stm32f10x_fsmc.c ****   FSMC_NORSRAMInitStruct->FSMC_MemoryType = FSMC_MemoryType_SRAM;
 934              		.loc 1 384 43
 935 0014 7B68     		ldr	r3, [r7, #4]
 936 0016 0022     		movs	r2, #0
 937 0018 9A60     		str	r2, [r3, #8]
 385:./.driver/STM32F10x_StdPeriph_Driver/src/stm32f10x_fsmc.c ****   FSMC_NORSRAMInitStruct->FSMC_MemoryDataWidth = FSMC_MemoryDataWidth_8b;
 938              		.loc 1 385 48
 939 001a 7B68     		ldr	r3, [r7, #4]
 940 001c 0022     		movs	r2, #0
 941 001e DA60     		str	r2, [r3, #12]
 386:./.driver/STM32F10x_StdPeriph_Driver/src/stm32f10x_fsmc.c ****   FSMC_NORSRAMInitStruct->FSMC_BurstAccessMode = FSMC_BurstAccessMode_Disable;
 942              		.loc 1 386 48
 943 0020 7B68     		ldr	r3, [r7, #4]
 944 0022 0022     		movs	r2, #0
 945 0024 1A61     		str	r2, [r3, #16]
 387:./.driver/STM32F10x_StdPeriph_Driver/src/stm32f10x_fsmc.c ****   FSMC_NORSRAMInitStruct->FSMC_AsynchronousWait = FSMC_AsynchronousWait_Disable;
 946              		.loc 1 387 49
 947 0026 7B68     		ldr	r3, [r7, #4]
 948 0028 0022     		movs	r2, #0
 949 002a 5A61     		str	r2, [r3, #20]
 388:./.driver/STM32F10x_StdPeriph_Driver/src/stm32f10x_fsmc.c ****   FSMC_NORSRAMInitStruct->FSMC_WaitSignalPolarity = FSMC_WaitSignalPolarity_Low;
 950              		.loc 1 388 51
 951 002c 7B68     		ldr	r3, [r7, #4]
 952 002e 0022     		movs	r2, #0
 953 0030 9A61     		str	r2, [r3, #24]
 389:./.driver/STM32F10x_StdPeriph_Driver/src/stm32f10x_fsmc.c ****   FSMC_NORSRAMInitStruct->FSMC_WrapMode = FSMC_WrapMode_Disable;
 954              		.loc 1 389 41
 955 0032 7B68     		ldr	r3, [r7, #4]
 956 0034 0022     		movs	r2, #0
 957 0036 DA61     		str	r2, [r3, #28]
 390:./.driver/STM32F10x_StdPeriph_Driver/src/stm32f10x_fsmc.c ****   FSMC_NORSRAMInitStruct->FSMC_WaitSignalActive = FSMC_WaitSignalActive_BeforeWaitState;
 958              		.loc 1 390 49
 959 0038 7B68     		ldr	r3, [r7, #4]
 960 003a 0022     		movs	r2, #0
 961 003c 1A62     		str	r2, [r3, #32]
 391:./.driver/STM32F10x_StdPeriph_Driver/src/stm32f10x_fsmc.c ****   FSMC_NORSRAMInitStruct->FSMC_WriteOperation = FSMC_WriteOperation_Enable;
 962              		.loc 1 391 47
 963 003e 7B68     		ldr	r3, [r7, #4]
 964 0040 4FF48052 		mov	r2, #4096
 965 0044 5A62     		str	r2, [r3, #36]
 392:./.driver/STM32F10x_StdPeriph_Driver/src/stm32f10x_fsmc.c ****   FSMC_NORSRAMInitStruct->FSMC_WaitSignal = FSMC_WaitSignal_Enable;
ARM GAS  C:\Users\SAMEER~1.ALM\AppData\Local\Temp\ccWED5M3.s 			page 26


 966              		.loc 1 392 43
 967 0046 7B68     		ldr	r3, [r7, #4]
 968 0048 4FF40052 		mov	r2, #8192
 969 004c 9A62     		str	r2, [r3, #40]
 393:./.driver/STM32F10x_StdPeriph_Driver/src/stm32f10x_fsmc.c ****   FSMC_NORSRAMInitStruct->FSMC_ExtendedMode = FSMC_ExtendedMode_Disable;
 970              		.loc 1 393 45
 971 004e 7B68     		ldr	r3, [r7, #4]
 972 0050 0022     		movs	r2, #0
 973 0052 DA62     		str	r2, [r3, #44]
 394:./.driver/STM32F10x_StdPeriph_Driver/src/stm32f10x_fsmc.c ****   FSMC_NORSRAMInitStruct->FSMC_WriteBurst = FSMC_WriteBurst_Disable;
 974              		.loc 1 394 43
 975 0054 7B68     		ldr	r3, [r7, #4]
 976 0056 0022     		movs	r2, #0
 977 0058 1A63     		str	r2, [r3, #48]
 395:./.driver/STM32F10x_StdPeriph_Driver/src/stm32f10x_fsmc.c ****   FSMC_NORSRAMInitStruct->FSMC_ReadWriteTimingStruct->FSMC_AddressSetupTime = 0xF;
 978              		.loc 1 395 25
 979 005a 7B68     		ldr	r3, [r7, #4]
 980 005c 5B6B     		ldr	r3, [r3, #52]
 981              		.loc 1 395 77
 982 005e 0F22     		movs	r2, #15
 983 0060 1A60     		str	r2, [r3]
 396:./.driver/STM32F10x_StdPeriph_Driver/src/stm32f10x_fsmc.c ****   FSMC_NORSRAMInitStruct->FSMC_ReadWriteTimingStruct->FSMC_AddressHoldTime = 0xF;
 984              		.loc 1 396 25
 985 0062 7B68     		ldr	r3, [r7, #4]
 986 0064 5B6B     		ldr	r3, [r3, #52]
 987              		.loc 1 396 76
 988 0066 0F22     		movs	r2, #15
 989 0068 5A60     		str	r2, [r3, #4]
 397:./.driver/STM32F10x_StdPeriph_Driver/src/stm32f10x_fsmc.c ****   FSMC_NORSRAMInitStruct->FSMC_ReadWriteTimingStruct->FSMC_DataSetupTime = 0xFF;
 990              		.loc 1 397 25
 991 006a 7B68     		ldr	r3, [r7, #4]
 992 006c 5B6B     		ldr	r3, [r3, #52]
 993              		.loc 1 397 74
 994 006e FF22     		movs	r2, #255
 995 0070 9A60     		str	r2, [r3, #8]
 398:./.driver/STM32F10x_StdPeriph_Driver/src/stm32f10x_fsmc.c ****   FSMC_NORSRAMInitStruct->FSMC_ReadWriteTimingStruct->FSMC_BusTurnAroundDuration = 0xF;
 996              		.loc 1 398 25
 997 0072 7B68     		ldr	r3, [r7, #4]
 998 0074 5B6B     		ldr	r3, [r3, #52]
 999              		.loc 1 398 82
 1000 0076 0F22     		movs	r2, #15
 1001 0078 DA60     		str	r2, [r3, #12]
 399:./.driver/STM32F10x_StdPeriph_Driver/src/stm32f10x_fsmc.c ****   FSMC_NORSRAMInitStruct->FSMC_ReadWriteTimingStruct->FSMC_CLKDivision = 0xF;
 1002              		.loc 1 399 25
 1003 007a 7B68     		ldr	r3, [r7, #4]
 1004 007c 5B6B     		ldr	r3, [r3, #52]
 1005              		.loc 1 399 72
 1006 007e 0F22     		movs	r2, #15
 1007 0080 1A61     		str	r2, [r3, #16]
 400:./.driver/STM32F10x_StdPeriph_Driver/src/stm32f10x_fsmc.c ****   FSMC_NORSRAMInitStruct->FSMC_ReadWriteTimingStruct->FSMC_DataLatency = 0xF;
 1008              		.loc 1 400 25
 1009 0082 7B68     		ldr	r3, [r7, #4]
 1010 0084 5B6B     		ldr	r3, [r3, #52]
 1011              		.loc 1 400 72
 1012 0086 0F22     		movs	r2, #15
 1013 0088 5A61     		str	r2, [r3, #20]
 401:./.driver/STM32F10x_StdPeriph_Driver/src/stm32f10x_fsmc.c ****   FSMC_NORSRAMInitStruct->FSMC_ReadWriteTimingStruct->FSMC_AccessMode = FSMC_AccessMode_A; 
ARM GAS  C:\Users\SAMEER~1.ALM\AppData\Local\Temp\ccWED5M3.s 			page 27


 1014              		.loc 1 401 25
 1015 008a 7B68     		ldr	r3, [r7, #4]
 1016 008c 5B6B     		ldr	r3, [r3, #52]
 1017              		.loc 1 401 71
 1018 008e 0022     		movs	r2, #0
 1019 0090 9A61     		str	r2, [r3, #24]
 402:./.driver/STM32F10x_StdPeriph_Driver/src/stm32f10x_fsmc.c ****   FSMC_NORSRAMInitStruct->FSMC_WriteTimingStruct->FSMC_AddressSetupTime = 0xF;
 1020              		.loc 1 402 25
 1021 0092 7B68     		ldr	r3, [r7, #4]
 1022 0094 9B6B     		ldr	r3, [r3, #56]
 1023              		.loc 1 402 73
 1024 0096 0F22     		movs	r2, #15
 1025 0098 1A60     		str	r2, [r3]
 403:./.driver/STM32F10x_StdPeriph_Driver/src/stm32f10x_fsmc.c ****   FSMC_NORSRAMInitStruct->FSMC_WriteTimingStruct->FSMC_AddressHoldTime = 0xF;
 1026              		.loc 1 403 25
 1027 009a 7B68     		ldr	r3, [r7, #4]
 1028 009c 9B6B     		ldr	r3, [r3, #56]
 1029              		.loc 1 403 72
 1030 009e 0F22     		movs	r2, #15
 1031 00a0 5A60     		str	r2, [r3, #4]
 404:./.driver/STM32F10x_StdPeriph_Driver/src/stm32f10x_fsmc.c ****   FSMC_NORSRAMInitStruct->FSMC_WriteTimingStruct->FSMC_DataSetupTime = 0xFF;
 1032              		.loc 1 404 25
 1033 00a2 7B68     		ldr	r3, [r7, #4]
 1034 00a4 9B6B     		ldr	r3, [r3, #56]
 1035              		.loc 1 404 70
 1036 00a6 FF22     		movs	r2, #255
 1037 00a8 9A60     		str	r2, [r3, #8]
 405:./.driver/STM32F10x_StdPeriph_Driver/src/stm32f10x_fsmc.c ****   FSMC_NORSRAMInitStruct->FSMC_WriteTimingStruct->FSMC_BusTurnAroundDuration = 0xF;
 1038              		.loc 1 405 25
 1039 00aa 7B68     		ldr	r3, [r7, #4]
 1040 00ac 9B6B     		ldr	r3, [r3, #56]
 1041              		.loc 1 405 78
 1042 00ae 0F22     		movs	r2, #15
 1043 00b0 DA60     		str	r2, [r3, #12]
 406:./.driver/STM32F10x_StdPeriph_Driver/src/stm32f10x_fsmc.c ****   FSMC_NORSRAMInitStruct->FSMC_WriteTimingStruct->FSMC_CLKDivision = 0xF;
 1044              		.loc 1 406 25
 1045 00b2 7B68     		ldr	r3, [r7, #4]
 1046 00b4 9B6B     		ldr	r3, [r3, #56]
 1047              		.loc 1 406 68
 1048 00b6 0F22     		movs	r2, #15
 1049 00b8 1A61     		str	r2, [r3, #16]
 407:./.driver/STM32F10x_StdPeriph_Driver/src/stm32f10x_fsmc.c ****   FSMC_NORSRAMInitStruct->FSMC_WriteTimingStruct->FSMC_DataLatency = 0xF;
 1050              		.loc 1 407 25
 1051 00ba 7B68     		ldr	r3, [r7, #4]
 1052 00bc 9B6B     		ldr	r3, [r3, #56]
 1053              		.loc 1 407 68
 1054 00be 0F22     		movs	r2, #15
 1055 00c0 5A61     		str	r2, [r3, #20]
 408:./.driver/STM32F10x_StdPeriph_Driver/src/stm32f10x_fsmc.c ****   FSMC_NORSRAMInitStruct->FSMC_WriteTimingStruct->FSMC_AccessMode = FSMC_AccessMode_A;
 1056              		.loc 1 408 25
 1057 00c2 7B68     		ldr	r3, [r7, #4]
 1058 00c4 9B6B     		ldr	r3, [r3, #56]
 1059              		.loc 1 408 67
 1060 00c6 0022     		movs	r2, #0
 1061 00c8 9A61     		str	r2, [r3, #24]
 409:./.driver/STM32F10x_StdPeriph_Driver/src/stm32f10x_fsmc.c **** }
 1062              		.loc 1 409 1
ARM GAS  C:\Users\SAMEER~1.ALM\AppData\Local\Temp\ccWED5M3.s 			page 28


 1063 00ca 00BF     		nop
 1064 00cc 0C37     		adds	r7, r7, #12
 1065              	.LCFI37:
 1066              		.cfi_def_cfa_offset 4
 1067 00ce BD46     		mov	sp, r7
 1068              	.LCFI38:
 1069              		.cfi_def_cfa_register 13
 1070              		@ sp needed
 1071 00d0 80BC     		pop	{r7}
 1072              	.LCFI39:
 1073              		.cfi_restore 7
 1074              		.cfi_def_cfa_offset 0
 1075 00d2 7047     		bx	lr
 1076              		.cfi_endproc
 1077              	.LFE35:
 1079              		.section	.text.FSMC_NANDStructInit,"ax",%progbits
 1080              		.align	1
 1081              		.global	FSMC_NANDStructInit
 1082              		.syntax unified
 1083              		.thumb
 1084              		.thumb_func
 1086              	FSMC_NANDStructInit:
 1087              	.LFB36:
 410:./.driver/STM32F10x_StdPeriph_Driver/src/stm32f10x_fsmc.c **** 
 411:./.driver/STM32F10x_StdPeriph_Driver/src/stm32f10x_fsmc.c **** /**
 412:./.driver/STM32F10x_StdPeriph_Driver/src/stm32f10x_fsmc.c ****   * @brief  Fills each FSMC_NANDInitStruct member with its default value.
 413:./.driver/STM32F10x_StdPeriph_Driver/src/stm32f10x_fsmc.c ****   * @param  FSMC_NANDInitStruct: pointer to a FSMC_NANDInitTypeDef 
 414:./.driver/STM32F10x_StdPeriph_Driver/src/stm32f10x_fsmc.c ****   *         structure which will be initialized.
 415:./.driver/STM32F10x_StdPeriph_Driver/src/stm32f10x_fsmc.c ****   * @retval None
 416:./.driver/STM32F10x_StdPeriph_Driver/src/stm32f10x_fsmc.c ****   */
 417:./.driver/STM32F10x_StdPeriph_Driver/src/stm32f10x_fsmc.c **** void FSMC_NANDStructInit(FSMC_NANDInitTypeDef* FSMC_NANDInitStruct)
 418:./.driver/STM32F10x_StdPeriph_Driver/src/stm32f10x_fsmc.c **** { 
 1088              		.loc 1 418 1
 1089              		.cfi_startproc
 1090              		@ args = 0, pretend = 0, frame = 8
 1091              		@ frame_needed = 1, uses_anonymous_args = 0
 1092              		@ link register save eliminated.
 1093 0000 80B4     		push	{r7}
 1094              	.LCFI40:
 1095              		.cfi_def_cfa_offset 4
 1096              		.cfi_offset 7, -4
 1097 0002 83B0     		sub	sp, sp, #12
 1098              	.LCFI41:
 1099              		.cfi_def_cfa_offset 16
 1100 0004 00AF     		add	r7, sp, #0
 1101              	.LCFI42:
 1102              		.cfi_def_cfa_register 7
 1103 0006 7860     		str	r0, [r7, #4]
 419:./.driver/STM32F10x_StdPeriph_Driver/src/stm32f10x_fsmc.c ****   /* Reset NAND Init structure parameters values */
 420:./.driver/STM32F10x_StdPeriph_Driver/src/stm32f10x_fsmc.c ****   FSMC_NANDInitStruct->FSMC_Bank = FSMC_Bank2_NAND;
 1104              		.loc 1 420 34
 1105 0008 7B68     		ldr	r3, [r7, #4]
 1106 000a 1022     		movs	r2, #16
 1107 000c 1A60     		str	r2, [r3]
 421:./.driver/STM32F10x_StdPeriph_Driver/src/stm32f10x_fsmc.c ****   FSMC_NANDInitStruct->FSMC_Waitfeature = FSMC_Waitfeature_Disable;
 1108              		.loc 1 421 41
 1109 000e 7B68     		ldr	r3, [r7, #4]
ARM GAS  C:\Users\SAMEER~1.ALM\AppData\Local\Temp\ccWED5M3.s 			page 29


 1110 0010 0022     		movs	r2, #0
 1111 0012 5A60     		str	r2, [r3, #4]
 422:./.driver/STM32F10x_StdPeriph_Driver/src/stm32f10x_fsmc.c ****   FSMC_NANDInitStruct->FSMC_MemoryDataWidth = FSMC_MemoryDataWidth_8b;
 1112              		.loc 1 422 45
 1113 0014 7B68     		ldr	r3, [r7, #4]
 1114 0016 0022     		movs	r2, #0
 1115 0018 9A60     		str	r2, [r3, #8]
 423:./.driver/STM32F10x_StdPeriph_Driver/src/stm32f10x_fsmc.c ****   FSMC_NANDInitStruct->FSMC_ECC = FSMC_ECC_Disable;
 1116              		.loc 1 423 33
 1117 001a 7B68     		ldr	r3, [r7, #4]
 1118 001c 0022     		movs	r2, #0
 1119 001e DA60     		str	r2, [r3, #12]
 424:./.driver/STM32F10x_StdPeriph_Driver/src/stm32f10x_fsmc.c ****   FSMC_NANDInitStruct->FSMC_ECCPageSize = FSMC_ECCPageSize_256Bytes;
 1120              		.loc 1 424 41
 1121 0020 7B68     		ldr	r3, [r7, #4]
 1122 0022 0022     		movs	r2, #0
 1123 0024 1A61     		str	r2, [r3, #16]
 425:./.driver/STM32F10x_StdPeriph_Driver/src/stm32f10x_fsmc.c ****   FSMC_NANDInitStruct->FSMC_TCLRSetupTime = 0x0;
 1124              		.loc 1 425 43
 1125 0026 7B68     		ldr	r3, [r7, #4]
 1126 0028 0022     		movs	r2, #0
 1127 002a 5A61     		str	r2, [r3, #20]
 426:./.driver/STM32F10x_StdPeriph_Driver/src/stm32f10x_fsmc.c ****   FSMC_NANDInitStruct->FSMC_TARSetupTime = 0x0;
 1128              		.loc 1 426 42
 1129 002c 7B68     		ldr	r3, [r7, #4]
 1130 002e 0022     		movs	r2, #0
 1131 0030 9A61     		str	r2, [r3, #24]
 427:./.driver/STM32F10x_StdPeriph_Driver/src/stm32f10x_fsmc.c ****   FSMC_NANDInitStruct->FSMC_CommonSpaceTimingStruct->FSMC_SetupTime = 0xFC;
 1132              		.loc 1 427 22
 1133 0032 7B68     		ldr	r3, [r7, #4]
 1134 0034 DB69     		ldr	r3, [r3, #28]
 1135              		.loc 1 427 69
 1136 0036 FC22     		movs	r2, #252
 1137 0038 1A60     		str	r2, [r3]
 428:./.driver/STM32F10x_StdPeriph_Driver/src/stm32f10x_fsmc.c ****   FSMC_NANDInitStruct->FSMC_CommonSpaceTimingStruct->FSMC_WaitSetupTime = 0xFC;
 1138              		.loc 1 428 22
 1139 003a 7B68     		ldr	r3, [r7, #4]
 1140 003c DB69     		ldr	r3, [r3, #28]
 1141              		.loc 1 428 73
 1142 003e FC22     		movs	r2, #252
 1143 0040 5A60     		str	r2, [r3, #4]
 429:./.driver/STM32F10x_StdPeriph_Driver/src/stm32f10x_fsmc.c ****   FSMC_NANDInitStruct->FSMC_CommonSpaceTimingStruct->FSMC_HoldSetupTime = 0xFC;
 1144              		.loc 1 429 22
 1145 0042 7B68     		ldr	r3, [r7, #4]
 1146 0044 DB69     		ldr	r3, [r3, #28]
 1147              		.loc 1 429 73
 1148 0046 FC22     		movs	r2, #252
 1149 0048 9A60     		str	r2, [r3, #8]
 430:./.driver/STM32F10x_StdPeriph_Driver/src/stm32f10x_fsmc.c ****   FSMC_NANDInitStruct->FSMC_CommonSpaceTimingStruct->FSMC_HiZSetupTime = 0xFC;
 1150              		.loc 1 430 22
 1151 004a 7B68     		ldr	r3, [r7, #4]
 1152 004c DB69     		ldr	r3, [r3, #28]
 1153              		.loc 1 430 72
 1154 004e FC22     		movs	r2, #252
 1155 0050 DA60     		str	r2, [r3, #12]
 431:./.driver/STM32F10x_StdPeriph_Driver/src/stm32f10x_fsmc.c ****   FSMC_NANDInitStruct->FSMC_AttributeSpaceTimingStruct->FSMC_SetupTime = 0xFC;
 1156              		.loc 1 431 22
ARM GAS  C:\Users\SAMEER~1.ALM\AppData\Local\Temp\ccWED5M3.s 			page 30


 1157 0052 7B68     		ldr	r3, [r7, #4]
 1158 0054 1B6A     		ldr	r3, [r3, #32]
 1159              		.loc 1 431 72
 1160 0056 FC22     		movs	r2, #252
 1161 0058 1A60     		str	r2, [r3]
 432:./.driver/STM32F10x_StdPeriph_Driver/src/stm32f10x_fsmc.c ****   FSMC_NANDInitStruct->FSMC_AttributeSpaceTimingStruct->FSMC_WaitSetupTime = 0xFC;
 1162              		.loc 1 432 22
 1163 005a 7B68     		ldr	r3, [r7, #4]
 1164 005c 1B6A     		ldr	r3, [r3, #32]
 1165              		.loc 1 432 76
 1166 005e FC22     		movs	r2, #252
 1167 0060 5A60     		str	r2, [r3, #4]
 433:./.driver/STM32F10x_StdPeriph_Driver/src/stm32f10x_fsmc.c ****   FSMC_NANDInitStruct->FSMC_AttributeSpaceTimingStruct->FSMC_HoldSetupTime = 0xFC;
 1168              		.loc 1 433 22
 1169 0062 7B68     		ldr	r3, [r7, #4]
 1170 0064 1B6A     		ldr	r3, [r3, #32]
 1171              		.loc 1 433 76
 1172 0066 FC22     		movs	r2, #252
 1173 0068 9A60     		str	r2, [r3, #8]
 434:./.driver/STM32F10x_StdPeriph_Driver/src/stm32f10x_fsmc.c ****   FSMC_NANDInitStruct->FSMC_AttributeSpaceTimingStruct->FSMC_HiZSetupTime = 0xFC;	  
 1174              		.loc 1 434 22
 1175 006a 7B68     		ldr	r3, [r7, #4]
 1176 006c 1B6A     		ldr	r3, [r3, #32]
 1177              		.loc 1 434 75
 1178 006e FC22     		movs	r2, #252
 1179 0070 DA60     		str	r2, [r3, #12]
 435:./.driver/STM32F10x_StdPeriph_Driver/src/stm32f10x_fsmc.c **** }
 1180              		.loc 1 435 1
 1181 0072 00BF     		nop
 1182 0074 0C37     		adds	r7, r7, #12
 1183              	.LCFI43:
 1184              		.cfi_def_cfa_offset 4
 1185 0076 BD46     		mov	sp, r7
 1186              	.LCFI44:
 1187              		.cfi_def_cfa_register 13
 1188              		@ sp needed
 1189 0078 80BC     		pop	{r7}
 1190              	.LCFI45:
 1191              		.cfi_restore 7
 1192              		.cfi_def_cfa_offset 0
 1193 007a 7047     		bx	lr
 1194              		.cfi_endproc
 1195              	.LFE36:
 1197              		.section	.text.FSMC_PCCARDStructInit,"ax",%progbits
 1198              		.align	1
 1199              		.global	FSMC_PCCARDStructInit
 1200              		.syntax unified
 1201              		.thumb
 1202              		.thumb_func
 1204              	FSMC_PCCARDStructInit:
 1205              	.LFB37:
 436:./.driver/STM32F10x_StdPeriph_Driver/src/stm32f10x_fsmc.c **** 
 437:./.driver/STM32F10x_StdPeriph_Driver/src/stm32f10x_fsmc.c **** /**
 438:./.driver/STM32F10x_StdPeriph_Driver/src/stm32f10x_fsmc.c ****   * @brief  Fills each FSMC_PCCARDInitStruct member with its default value.
 439:./.driver/STM32F10x_StdPeriph_Driver/src/stm32f10x_fsmc.c ****   * @param  FSMC_PCCARDInitStruct: pointer to a FSMC_PCCARDInitTypeDef 
 440:./.driver/STM32F10x_StdPeriph_Driver/src/stm32f10x_fsmc.c ****   *         structure which will be initialized.
 441:./.driver/STM32F10x_StdPeriph_Driver/src/stm32f10x_fsmc.c ****   * @retval None
ARM GAS  C:\Users\SAMEER~1.ALM\AppData\Local\Temp\ccWED5M3.s 			page 31


 442:./.driver/STM32F10x_StdPeriph_Driver/src/stm32f10x_fsmc.c ****   */
 443:./.driver/STM32F10x_StdPeriph_Driver/src/stm32f10x_fsmc.c **** void FSMC_PCCARDStructInit(FSMC_PCCARDInitTypeDef* FSMC_PCCARDInitStruct)
 444:./.driver/STM32F10x_StdPeriph_Driver/src/stm32f10x_fsmc.c **** {
 1206              		.loc 1 444 1
 1207              		.cfi_startproc
 1208              		@ args = 0, pretend = 0, frame = 8
 1209              		@ frame_needed = 1, uses_anonymous_args = 0
 1210              		@ link register save eliminated.
 1211 0000 80B4     		push	{r7}
 1212              	.LCFI46:
 1213              		.cfi_def_cfa_offset 4
 1214              		.cfi_offset 7, -4
 1215 0002 83B0     		sub	sp, sp, #12
 1216              	.LCFI47:
 1217              		.cfi_def_cfa_offset 16
 1218 0004 00AF     		add	r7, sp, #0
 1219              	.LCFI48:
 1220              		.cfi_def_cfa_register 7
 1221 0006 7860     		str	r0, [r7, #4]
 445:./.driver/STM32F10x_StdPeriph_Driver/src/stm32f10x_fsmc.c ****   /* Reset PCCARD Init structure parameters values */
 446:./.driver/STM32F10x_StdPeriph_Driver/src/stm32f10x_fsmc.c ****   FSMC_PCCARDInitStruct->FSMC_Waitfeature = FSMC_Waitfeature_Disable;
 1222              		.loc 1 446 43
 1223 0008 7B68     		ldr	r3, [r7, #4]
 1224 000a 0022     		movs	r2, #0
 1225 000c 1A60     		str	r2, [r3]
 447:./.driver/STM32F10x_StdPeriph_Driver/src/stm32f10x_fsmc.c ****   FSMC_PCCARDInitStruct->FSMC_TCLRSetupTime = 0x0;
 1226              		.loc 1 447 45
 1227 000e 7B68     		ldr	r3, [r7, #4]
 1228 0010 0022     		movs	r2, #0
 1229 0012 5A60     		str	r2, [r3, #4]
 448:./.driver/STM32F10x_StdPeriph_Driver/src/stm32f10x_fsmc.c ****   FSMC_PCCARDInitStruct->FSMC_TARSetupTime = 0x0;
 1230              		.loc 1 448 44
 1231 0014 7B68     		ldr	r3, [r7, #4]
 1232 0016 0022     		movs	r2, #0
 1233 0018 9A60     		str	r2, [r3, #8]
 449:./.driver/STM32F10x_StdPeriph_Driver/src/stm32f10x_fsmc.c ****   FSMC_PCCARDInitStruct->FSMC_CommonSpaceTimingStruct->FSMC_SetupTime = 0xFC;
 1234              		.loc 1 449 24
 1235 001a 7B68     		ldr	r3, [r7, #4]
 1236 001c DB68     		ldr	r3, [r3, #12]
 1237              		.loc 1 449 71
 1238 001e FC22     		movs	r2, #252
 1239 0020 1A60     		str	r2, [r3]
 450:./.driver/STM32F10x_StdPeriph_Driver/src/stm32f10x_fsmc.c ****   FSMC_PCCARDInitStruct->FSMC_CommonSpaceTimingStruct->FSMC_WaitSetupTime = 0xFC;
 1240              		.loc 1 450 24
 1241 0022 7B68     		ldr	r3, [r7, #4]
 1242 0024 DB68     		ldr	r3, [r3, #12]
 1243              		.loc 1 450 75
 1244 0026 FC22     		movs	r2, #252
 1245 0028 5A60     		str	r2, [r3, #4]
 451:./.driver/STM32F10x_StdPeriph_Driver/src/stm32f10x_fsmc.c ****   FSMC_PCCARDInitStruct->FSMC_CommonSpaceTimingStruct->FSMC_HoldSetupTime = 0xFC;
 1246              		.loc 1 451 24
 1247 002a 7B68     		ldr	r3, [r7, #4]
 1248 002c DB68     		ldr	r3, [r3, #12]
 1249              		.loc 1 451 75
 1250 002e FC22     		movs	r2, #252
 1251 0030 9A60     		str	r2, [r3, #8]
 452:./.driver/STM32F10x_StdPeriph_Driver/src/stm32f10x_fsmc.c ****   FSMC_PCCARDInitStruct->FSMC_CommonSpaceTimingStruct->FSMC_HiZSetupTime = 0xFC;
ARM GAS  C:\Users\SAMEER~1.ALM\AppData\Local\Temp\ccWED5M3.s 			page 32


 1252              		.loc 1 452 24
 1253 0032 7B68     		ldr	r3, [r7, #4]
 1254 0034 DB68     		ldr	r3, [r3, #12]
 1255              		.loc 1 452 74
 1256 0036 FC22     		movs	r2, #252
 1257 0038 DA60     		str	r2, [r3, #12]
 453:./.driver/STM32F10x_StdPeriph_Driver/src/stm32f10x_fsmc.c ****   FSMC_PCCARDInitStruct->FSMC_AttributeSpaceTimingStruct->FSMC_SetupTime = 0xFC;
 1258              		.loc 1 453 24
 1259 003a 7B68     		ldr	r3, [r7, #4]
 1260 003c 1B69     		ldr	r3, [r3, #16]
 1261              		.loc 1 453 74
 1262 003e FC22     		movs	r2, #252
 1263 0040 1A60     		str	r2, [r3]
 454:./.driver/STM32F10x_StdPeriph_Driver/src/stm32f10x_fsmc.c ****   FSMC_PCCARDInitStruct->FSMC_AttributeSpaceTimingStruct->FSMC_WaitSetupTime = 0xFC;
 1264              		.loc 1 454 24
 1265 0042 7B68     		ldr	r3, [r7, #4]
 1266 0044 1B69     		ldr	r3, [r3, #16]
 1267              		.loc 1 454 78
 1268 0046 FC22     		movs	r2, #252
 1269 0048 5A60     		str	r2, [r3, #4]
 455:./.driver/STM32F10x_StdPeriph_Driver/src/stm32f10x_fsmc.c ****   FSMC_PCCARDInitStruct->FSMC_AttributeSpaceTimingStruct->FSMC_HoldSetupTime = 0xFC;
 1270              		.loc 1 455 24
 1271 004a 7B68     		ldr	r3, [r7, #4]
 1272 004c 1B69     		ldr	r3, [r3, #16]
 1273              		.loc 1 455 78
 1274 004e FC22     		movs	r2, #252
 1275 0050 9A60     		str	r2, [r3, #8]
 456:./.driver/STM32F10x_StdPeriph_Driver/src/stm32f10x_fsmc.c ****   FSMC_PCCARDInitStruct->FSMC_AttributeSpaceTimingStruct->FSMC_HiZSetupTime = 0xFC;	
 1276              		.loc 1 456 24
 1277 0052 7B68     		ldr	r3, [r7, #4]
 1278 0054 1B69     		ldr	r3, [r3, #16]
 1279              		.loc 1 456 77
 1280 0056 FC22     		movs	r2, #252
 1281 0058 DA60     		str	r2, [r3, #12]
 457:./.driver/STM32F10x_StdPeriph_Driver/src/stm32f10x_fsmc.c ****   FSMC_PCCARDInitStruct->FSMC_IOSpaceTimingStruct->FSMC_SetupTime = 0xFC;
 1282              		.loc 1 457 24
 1283 005a 7B68     		ldr	r3, [r7, #4]
 1284 005c 5B69     		ldr	r3, [r3, #20]
 1285              		.loc 1 457 67
 1286 005e FC22     		movs	r2, #252
 1287 0060 1A60     		str	r2, [r3]
 458:./.driver/STM32F10x_StdPeriph_Driver/src/stm32f10x_fsmc.c ****   FSMC_PCCARDInitStruct->FSMC_IOSpaceTimingStruct->FSMC_WaitSetupTime = 0xFC;
 1288              		.loc 1 458 24
 1289 0062 7B68     		ldr	r3, [r7, #4]
 1290 0064 5B69     		ldr	r3, [r3, #20]
 1291              		.loc 1 458 71
 1292 0066 FC22     		movs	r2, #252
 1293 0068 5A60     		str	r2, [r3, #4]
 459:./.driver/STM32F10x_StdPeriph_Driver/src/stm32f10x_fsmc.c ****   FSMC_PCCARDInitStruct->FSMC_IOSpaceTimingStruct->FSMC_HoldSetupTime = 0xFC;
 1294              		.loc 1 459 24
 1295 006a 7B68     		ldr	r3, [r7, #4]
 1296 006c 5B69     		ldr	r3, [r3, #20]
 1297              		.loc 1 459 71
 1298 006e FC22     		movs	r2, #252
 1299 0070 9A60     		str	r2, [r3, #8]
 460:./.driver/STM32F10x_StdPeriph_Driver/src/stm32f10x_fsmc.c ****   FSMC_PCCARDInitStruct->FSMC_IOSpaceTimingStruct->FSMC_HiZSetupTime = 0xFC;
 1300              		.loc 1 460 24
ARM GAS  C:\Users\SAMEER~1.ALM\AppData\Local\Temp\ccWED5M3.s 			page 33


 1301 0072 7B68     		ldr	r3, [r7, #4]
 1302 0074 5B69     		ldr	r3, [r3, #20]
 1303              		.loc 1 460 70
 1304 0076 FC22     		movs	r2, #252
 1305 0078 DA60     		str	r2, [r3, #12]
 461:./.driver/STM32F10x_StdPeriph_Driver/src/stm32f10x_fsmc.c **** }
 1306              		.loc 1 461 1
 1307 007a 00BF     		nop
 1308 007c 0C37     		adds	r7, r7, #12
 1309              	.LCFI49:
 1310              		.cfi_def_cfa_offset 4
 1311 007e BD46     		mov	sp, r7
 1312              	.LCFI50:
 1313              		.cfi_def_cfa_register 13
 1314              		@ sp needed
 1315 0080 80BC     		pop	{r7}
 1316              	.LCFI51:
 1317              		.cfi_restore 7
 1318              		.cfi_def_cfa_offset 0
 1319 0082 7047     		bx	lr
 1320              		.cfi_endproc
 1321              	.LFE37:
 1323              		.section	.text.FSMC_NORSRAMCmd,"ax",%progbits
 1324              		.align	1
 1325              		.global	FSMC_NORSRAMCmd
 1326              		.syntax unified
 1327              		.thumb
 1328              		.thumb_func
 1330              	FSMC_NORSRAMCmd:
 1331              	.LFB38:
 462:./.driver/STM32F10x_StdPeriph_Driver/src/stm32f10x_fsmc.c **** 
 463:./.driver/STM32F10x_StdPeriph_Driver/src/stm32f10x_fsmc.c **** /**
 464:./.driver/STM32F10x_StdPeriph_Driver/src/stm32f10x_fsmc.c ****   * @brief  Enables or disables the specified NOR/SRAM Memory Bank.
 465:./.driver/STM32F10x_StdPeriph_Driver/src/stm32f10x_fsmc.c ****   * @param  FSMC_Bank: specifies the FSMC Bank to be used
 466:./.driver/STM32F10x_StdPeriph_Driver/src/stm32f10x_fsmc.c ****   *   This parameter can be one of the following values:
 467:./.driver/STM32F10x_StdPeriph_Driver/src/stm32f10x_fsmc.c ****   *     @arg FSMC_Bank1_NORSRAM1: FSMC Bank1 NOR/SRAM1  
 468:./.driver/STM32F10x_StdPeriph_Driver/src/stm32f10x_fsmc.c ****   *     @arg FSMC_Bank1_NORSRAM2: FSMC Bank1 NOR/SRAM2 
 469:./.driver/STM32F10x_StdPeriph_Driver/src/stm32f10x_fsmc.c ****   *     @arg FSMC_Bank1_NORSRAM3: FSMC Bank1 NOR/SRAM3 
 470:./.driver/STM32F10x_StdPeriph_Driver/src/stm32f10x_fsmc.c ****   *     @arg FSMC_Bank1_NORSRAM4: FSMC Bank1 NOR/SRAM4 
 471:./.driver/STM32F10x_StdPeriph_Driver/src/stm32f10x_fsmc.c ****   * @param  NewState: new state of the FSMC_Bank. This parameter can be: ENABLE or DISABLE.
 472:./.driver/STM32F10x_StdPeriph_Driver/src/stm32f10x_fsmc.c ****   * @retval None
 473:./.driver/STM32F10x_StdPeriph_Driver/src/stm32f10x_fsmc.c ****   */
 474:./.driver/STM32F10x_StdPeriph_Driver/src/stm32f10x_fsmc.c **** void FSMC_NORSRAMCmd(uint32_t FSMC_Bank, FunctionalState NewState)
 475:./.driver/STM32F10x_StdPeriph_Driver/src/stm32f10x_fsmc.c **** {
 1332              		.loc 1 475 1
 1333              		.cfi_startproc
 1334              		@ args = 0, pretend = 0, frame = 8
 1335              		@ frame_needed = 1, uses_anonymous_args = 0
 1336              		@ link register save eliminated.
 1337 0000 80B4     		push	{r7}
 1338              	.LCFI52:
 1339              		.cfi_def_cfa_offset 4
 1340              		.cfi_offset 7, -4
 1341 0002 83B0     		sub	sp, sp, #12
 1342              	.LCFI53:
 1343              		.cfi_def_cfa_offset 16
 1344 0004 00AF     		add	r7, sp, #0
ARM GAS  C:\Users\SAMEER~1.ALM\AppData\Local\Temp\ccWED5M3.s 			page 34


 1345              	.LCFI54:
 1346              		.cfi_def_cfa_register 7
 1347 0006 7860     		str	r0, [r7, #4]
 1348 0008 0B46     		mov	r3, r1
 1349 000a FB70     		strb	r3, [r7, #3]
 476:./.driver/STM32F10x_StdPeriph_Driver/src/stm32f10x_fsmc.c ****   assert_param(IS_FSMC_NORSRAM_BANK(FSMC_Bank));
 477:./.driver/STM32F10x_StdPeriph_Driver/src/stm32f10x_fsmc.c ****   assert_param(IS_FUNCTIONAL_STATE(NewState));
 478:./.driver/STM32F10x_StdPeriph_Driver/src/stm32f10x_fsmc.c ****   
 479:./.driver/STM32F10x_StdPeriph_Driver/src/stm32f10x_fsmc.c ****   if (NewState != DISABLE)
 1350              		.loc 1 479 6
 1351 000c FB78     		ldrb	r3, [r7, #3]	@ zero_extendqisi2
 1352 000e 002B     		cmp	r3, #0
 1353 0010 0CD0     		beq	.L35
 480:./.driver/STM32F10x_StdPeriph_Driver/src/stm32f10x_fsmc.c ****   {
 481:./.driver/STM32F10x_StdPeriph_Driver/src/stm32f10x_fsmc.c ****     /* Enable the selected NOR/SRAM Bank by setting the PBKEN bit in the BCRx register */
 482:./.driver/STM32F10x_StdPeriph_Driver/src/stm32f10x_fsmc.c ****     FSMC_Bank1->BTCR[FSMC_Bank] |= BCR_MBKEN_Set;
 1354              		.loc 1 482 33
 1355 0012 4FF02042 		mov	r2, #-1610612736
 1356 0016 7B68     		ldr	r3, [r7, #4]
 1357 0018 52F82330 		ldr	r3, [r2, r3, lsl #2]
 1358 001c 4FF02041 		mov	r1, #-1610612736
 1359 0020 43F00102 		orr	r2, r3, #1
 1360 0024 7B68     		ldr	r3, [r7, #4]
 1361 0026 41F82320 		str	r2, [r1, r3, lsl #2]
 483:./.driver/STM32F10x_StdPeriph_Driver/src/stm32f10x_fsmc.c ****   }
 484:./.driver/STM32F10x_StdPeriph_Driver/src/stm32f10x_fsmc.c ****   else
 485:./.driver/STM32F10x_StdPeriph_Driver/src/stm32f10x_fsmc.c ****   {
 486:./.driver/STM32F10x_StdPeriph_Driver/src/stm32f10x_fsmc.c ****     /* Disable the selected NOR/SRAM Bank by clearing the PBKEN bit in the BCRx register */
 487:./.driver/STM32F10x_StdPeriph_Driver/src/stm32f10x_fsmc.c ****     FSMC_Bank1->BTCR[FSMC_Bank] &= BCR_MBKEN_Reset;
 488:./.driver/STM32F10x_StdPeriph_Driver/src/stm32f10x_fsmc.c ****   }
 489:./.driver/STM32F10x_StdPeriph_Driver/src/stm32f10x_fsmc.c **** }
 1362              		.loc 1 489 1
 1363 002a 0BE0     		b	.L37
 1364              	.L35:
 487:./.driver/STM32F10x_StdPeriph_Driver/src/stm32f10x_fsmc.c ****   }
 1365              		.loc 1 487 33
 1366 002c 4FF02042 		mov	r2, #-1610612736
 1367 0030 7B68     		ldr	r3, [r7, #4]
 1368 0032 52F82320 		ldr	r2, [r2, r3, lsl #2]
 1369 0036 4FF02041 		mov	r1, #-1610612736
 1370 003a 054B     		ldr	r3, .L38
 1371 003c 1340     		ands	r3, r3, r2
 1372 003e 7A68     		ldr	r2, [r7, #4]
 1373 0040 41F82230 		str	r3, [r1, r2, lsl #2]
 1374              	.L37:
 1375              		.loc 1 489 1
 1376 0044 00BF     		nop
 1377 0046 0C37     		adds	r7, r7, #12
 1378              	.LCFI55:
 1379              		.cfi_def_cfa_offset 4
 1380 0048 BD46     		mov	sp, r7
 1381              	.LCFI56:
 1382              		.cfi_def_cfa_register 13
 1383              		@ sp needed
 1384 004a 80BC     		pop	{r7}
 1385              	.LCFI57:
 1386              		.cfi_restore 7
ARM GAS  C:\Users\SAMEER~1.ALM\AppData\Local\Temp\ccWED5M3.s 			page 35


 1387              		.cfi_def_cfa_offset 0
 1388 004c 7047     		bx	lr
 1389              	.L39:
 1390 004e 00BF     		.align	2
 1391              	.L38:
 1392 0050 FEFF0F00 		.word	1048574
 1393              		.cfi_endproc
 1394              	.LFE38:
 1396              		.section	.text.FSMC_NANDCmd,"ax",%progbits
 1397              		.align	1
 1398              		.global	FSMC_NANDCmd
 1399              		.syntax unified
 1400              		.thumb
 1401              		.thumb_func
 1403              	FSMC_NANDCmd:
 1404              	.LFB39:
 490:./.driver/STM32F10x_StdPeriph_Driver/src/stm32f10x_fsmc.c **** 
 491:./.driver/STM32F10x_StdPeriph_Driver/src/stm32f10x_fsmc.c **** /**
 492:./.driver/STM32F10x_StdPeriph_Driver/src/stm32f10x_fsmc.c ****   * @brief  Enables or disables the specified NAND Memory Bank.
 493:./.driver/STM32F10x_StdPeriph_Driver/src/stm32f10x_fsmc.c ****   * @param  FSMC_Bank: specifies the FSMC Bank to be used
 494:./.driver/STM32F10x_StdPeriph_Driver/src/stm32f10x_fsmc.c ****   *   This parameter can be one of the following values:
 495:./.driver/STM32F10x_StdPeriph_Driver/src/stm32f10x_fsmc.c ****   *     @arg FSMC_Bank2_NAND: FSMC Bank2 NAND 
 496:./.driver/STM32F10x_StdPeriph_Driver/src/stm32f10x_fsmc.c ****   *     @arg FSMC_Bank3_NAND: FSMC Bank3 NAND
 497:./.driver/STM32F10x_StdPeriph_Driver/src/stm32f10x_fsmc.c ****   * @param  NewState: new state of the FSMC_Bank. This parameter can be: ENABLE or DISABLE.
 498:./.driver/STM32F10x_StdPeriph_Driver/src/stm32f10x_fsmc.c ****   * @retval None
 499:./.driver/STM32F10x_StdPeriph_Driver/src/stm32f10x_fsmc.c ****   */
 500:./.driver/STM32F10x_StdPeriph_Driver/src/stm32f10x_fsmc.c **** void FSMC_NANDCmd(uint32_t FSMC_Bank, FunctionalState NewState)
 501:./.driver/STM32F10x_StdPeriph_Driver/src/stm32f10x_fsmc.c **** {
 1405              		.loc 1 501 1
 1406              		.cfi_startproc
 1407              		@ args = 0, pretend = 0, frame = 8
 1408              		@ frame_needed = 1, uses_anonymous_args = 0
 1409              		@ link register save eliminated.
 1410 0000 80B4     		push	{r7}
 1411              	.LCFI58:
 1412              		.cfi_def_cfa_offset 4
 1413              		.cfi_offset 7, -4
 1414 0002 83B0     		sub	sp, sp, #12
 1415              	.LCFI59:
 1416              		.cfi_def_cfa_offset 16
 1417 0004 00AF     		add	r7, sp, #0
 1418              	.LCFI60:
 1419              		.cfi_def_cfa_register 7
 1420 0006 7860     		str	r0, [r7, #4]
 1421 0008 0B46     		mov	r3, r1
 1422 000a FB70     		strb	r3, [r7, #3]
 502:./.driver/STM32F10x_StdPeriph_Driver/src/stm32f10x_fsmc.c ****   assert_param(IS_FSMC_NAND_BANK(FSMC_Bank));
 503:./.driver/STM32F10x_StdPeriph_Driver/src/stm32f10x_fsmc.c ****   assert_param(IS_FUNCTIONAL_STATE(NewState));
 504:./.driver/STM32F10x_StdPeriph_Driver/src/stm32f10x_fsmc.c ****   
 505:./.driver/STM32F10x_StdPeriph_Driver/src/stm32f10x_fsmc.c ****   if (NewState != DISABLE)
 1423              		.loc 1 505 6
 1424 000c FB78     		ldrb	r3, [r7, #3]	@ zero_extendqisi2
 1425 000e 002B     		cmp	r3, #0
 1426 0010 10D0     		beq	.L41
 506:./.driver/STM32F10x_StdPeriph_Driver/src/stm32f10x_fsmc.c ****   {
 507:./.driver/STM32F10x_StdPeriph_Driver/src/stm32f10x_fsmc.c ****     /* Enable the selected NAND Bank by setting the PBKEN bit in the PCRx register */
 508:./.driver/STM32F10x_StdPeriph_Driver/src/stm32f10x_fsmc.c ****     if(FSMC_Bank == FSMC_Bank2_NAND)
ARM GAS  C:\Users\SAMEER~1.ALM\AppData\Local\Temp\ccWED5M3.s 			page 36


 1427              		.loc 1 508 7
 1428 0012 7B68     		ldr	r3, [r7, #4]
 1429 0014 102B     		cmp	r3, #16
 1430 0016 06D1     		bne	.L42
 509:./.driver/STM32F10x_StdPeriph_Driver/src/stm32f10x_fsmc.c ****     {
 510:./.driver/STM32F10x_StdPeriph_Driver/src/stm32f10x_fsmc.c ****       FSMC_Bank2->PCR2 |= PCR_PBKEN_Set;
 1431              		.loc 1 510 24
 1432 0018 114B     		ldr	r3, .L46
 1433 001a 1B68     		ldr	r3, [r3]
 1434 001c 104A     		ldr	r2, .L46
 1435 001e 43F00403 		orr	r3, r3, #4
 1436 0022 1360     		str	r3, [r2]
 511:./.driver/STM32F10x_StdPeriph_Driver/src/stm32f10x_fsmc.c ****     }
 512:./.driver/STM32F10x_StdPeriph_Driver/src/stm32f10x_fsmc.c ****     else
 513:./.driver/STM32F10x_StdPeriph_Driver/src/stm32f10x_fsmc.c ****     {
 514:./.driver/STM32F10x_StdPeriph_Driver/src/stm32f10x_fsmc.c ****       FSMC_Bank3->PCR3 |= PCR_PBKEN_Set;
 515:./.driver/STM32F10x_StdPeriph_Driver/src/stm32f10x_fsmc.c ****     }
 516:./.driver/STM32F10x_StdPeriph_Driver/src/stm32f10x_fsmc.c ****   }
 517:./.driver/STM32F10x_StdPeriph_Driver/src/stm32f10x_fsmc.c ****   else
 518:./.driver/STM32F10x_StdPeriph_Driver/src/stm32f10x_fsmc.c ****   {
 519:./.driver/STM32F10x_StdPeriph_Driver/src/stm32f10x_fsmc.c ****     /* Disable the selected NAND Bank by clearing the PBKEN bit in the PCRx register */
 520:./.driver/STM32F10x_StdPeriph_Driver/src/stm32f10x_fsmc.c ****     if(FSMC_Bank == FSMC_Bank2_NAND)
 521:./.driver/STM32F10x_StdPeriph_Driver/src/stm32f10x_fsmc.c ****     {
 522:./.driver/STM32F10x_StdPeriph_Driver/src/stm32f10x_fsmc.c ****       FSMC_Bank2->PCR2 &= PCR_PBKEN_Reset;
 523:./.driver/STM32F10x_StdPeriph_Driver/src/stm32f10x_fsmc.c ****     }
 524:./.driver/STM32F10x_StdPeriph_Driver/src/stm32f10x_fsmc.c ****     else
 525:./.driver/STM32F10x_StdPeriph_Driver/src/stm32f10x_fsmc.c ****     {
 526:./.driver/STM32F10x_StdPeriph_Driver/src/stm32f10x_fsmc.c ****       FSMC_Bank3->PCR3 &= PCR_PBKEN_Reset;
 527:./.driver/STM32F10x_StdPeriph_Driver/src/stm32f10x_fsmc.c ****     }
 528:./.driver/STM32F10x_StdPeriph_Driver/src/stm32f10x_fsmc.c ****   }
 529:./.driver/STM32F10x_StdPeriph_Driver/src/stm32f10x_fsmc.c **** }
 1437              		.loc 1 529 1
 1438 0024 16E0     		b	.L45
 1439              	.L42:
 514:./.driver/STM32F10x_StdPeriph_Driver/src/stm32f10x_fsmc.c ****     }
 1440              		.loc 1 514 24
 1441 0026 0F4B     		ldr	r3, .L46+4
 1442 0028 1B68     		ldr	r3, [r3]
 1443 002a 0E4A     		ldr	r2, .L46+4
 1444 002c 43F00403 		orr	r3, r3, #4
 1445 0030 1360     		str	r3, [r2]
 1446              		.loc 1 529 1
 1447 0032 0FE0     		b	.L45
 1448              	.L41:
 520:./.driver/STM32F10x_StdPeriph_Driver/src/stm32f10x_fsmc.c ****     {
 1449              		.loc 1 520 7
 1450 0034 7B68     		ldr	r3, [r7, #4]
 1451 0036 102B     		cmp	r3, #16
 1452 0038 06D1     		bne	.L44
 522:./.driver/STM32F10x_StdPeriph_Driver/src/stm32f10x_fsmc.c ****     }
 1453              		.loc 1 522 24
 1454 003a 094B     		ldr	r3, .L46
 1455 003c 1A68     		ldr	r2, [r3]
 1456 003e 0849     		ldr	r1, .L46
 1457 0040 094B     		ldr	r3, .L46+8
 1458 0042 1340     		ands	r3, r3, r2
 1459 0044 0B60     		str	r3, [r1]
ARM GAS  C:\Users\SAMEER~1.ALM\AppData\Local\Temp\ccWED5M3.s 			page 37


 1460              		.loc 1 529 1
 1461 0046 05E0     		b	.L45
 1462              	.L44:
 526:./.driver/STM32F10x_StdPeriph_Driver/src/stm32f10x_fsmc.c ****     }
 1463              		.loc 1 526 24
 1464 0048 064B     		ldr	r3, .L46+4
 1465 004a 1A68     		ldr	r2, [r3]
 1466 004c 0549     		ldr	r1, .L46+4
 1467 004e 064B     		ldr	r3, .L46+8
 1468 0050 1340     		ands	r3, r3, r2
 1469 0052 0B60     		str	r3, [r1]
 1470              	.L45:
 1471              		.loc 1 529 1
 1472 0054 00BF     		nop
 1473 0056 0C37     		adds	r7, r7, #12
 1474              	.LCFI61:
 1475              		.cfi_def_cfa_offset 4
 1476 0058 BD46     		mov	sp, r7
 1477              	.LCFI62:
 1478              		.cfi_def_cfa_register 13
 1479              		@ sp needed
 1480 005a 80BC     		pop	{r7}
 1481              	.LCFI63:
 1482              		.cfi_restore 7
 1483              		.cfi_def_cfa_offset 0
 1484 005c 7047     		bx	lr
 1485              	.L47:
 1486 005e 00BF     		.align	2
 1487              	.L46:
 1488 0060 600000A0 		.word	-1610612640
 1489 0064 800000A0 		.word	-1610612608
 1490 0068 FBFF0F00 		.word	1048571
 1491              		.cfi_endproc
 1492              	.LFE39:
 1494              		.section	.text.FSMC_PCCARDCmd,"ax",%progbits
 1495              		.align	1
 1496              		.global	FSMC_PCCARDCmd
 1497              		.syntax unified
 1498              		.thumb
 1499              		.thumb_func
 1501              	FSMC_PCCARDCmd:
 1502              	.LFB40:
 530:./.driver/STM32F10x_StdPeriph_Driver/src/stm32f10x_fsmc.c **** 
 531:./.driver/STM32F10x_StdPeriph_Driver/src/stm32f10x_fsmc.c **** /**
 532:./.driver/STM32F10x_StdPeriph_Driver/src/stm32f10x_fsmc.c ****   * @brief  Enables or disables the PCCARD Memory Bank.
 533:./.driver/STM32F10x_StdPeriph_Driver/src/stm32f10x_fsmc.c ****   * @param  NewState: new state of the PCCARD Memory Bank.  
 534:./.driver/STM32F10x_StdPeriph_Driver/src/stm32f10x_fsmc.c ****   *   This parameter can be: ENABLE or DISABLE.
 535:./.driver/STM32F10x_StdPeriph_Driver/src/stm32f10x_fsmc.c ****   * @retval None
 536:./.driver/STM32F10x_StdPeriph_Driver/src/stm32f10x_fsmc.c ****   */
 537:./.driver/STM32F10x_StdPeriph_Driver/src/stm32f10x_fsmc.c **** void FSMC_PCCARDCmd(FunctionalState NewState)
 538:./.driver/STM32F10x_StdPeriph_Driver/src/stm32f10x_fsmc.c **** {
 1503              		.loc 1 538 1
 1504              		.cfi_startproc
 1505              		@ args = 0, pretend = 0, frame = 8
 1506              		@ frame_needed = 1, uses_anonymous_args = 0
 1507              		@ link register save eliminated.
 1508 0000 80B4     		push	{r7}
ARM GAS  C:\Users\SAMEER~1.ALM\AppData\Local\Temp\ccWED5M3.s 			page 38


 1509              	.LCFI64:
 1510              		.cfi_def_cfa_offset 4
 1511              		.cfi_offset 7, -4
 1512 0002 83B0     		sub	sp, sp, #12
 1513              	.LCFI65:
 1514              		.cfi_def_cfa_offset 16
 1515 0004 00AF     		add	r7, sp, #0
 1516              	.LCFI66:
 1517              		.cfi_def_cfa_register 7
 1518 0006 0346     		mov	r3, r0
 1519 0008 FB71     		strb	r3, [r7, #7]
 539:./.driver/STM32F10x_StdPeriph_Driver/src/stm32f10x_fsmc.c ****   assert_param(IS_FUNCTIONAL_STATE(NewState));
 540:./.driver/STM32F10x_StdPeriph_Driver/src/stm32f10x_fsmc.c ****   
 541:./.driver/STM32F10x_StdPeriph_Driver/src/stm32f10x_fsmc.c ****   if (NewState != DISABLE)
 1520              		.loc 1 541 6
 1521 000a FB79     		ldrb	r3, [r7, #7]	@ zero_extendqisi2
 1522 000c 002B     		cmp	r3, #0
 1523 000e 06D0     		beq	.L49
 542:./.driver/STM32F10x_StdPeriph_Driver/src/stm32f10x_fsmc.c ****   {
 543:./.driver/STM32F10x_StdPeriph_Driver/src/stm32f10x_fsmc.c ****     /* Enable the PCCARD Bank by setting the PBKEN bit in the PCR4 register */
 544:./.driver/STM32F10x_StdPeriph_Driver/src/stm32f10x_fsmc.c ****     FSMC_Bank4->PCR4 |= PCR_PBKEN_Set;
 1524              		.loc 1 544 22
 1525 0010 084B     		ldr	r3, .L52
 1526 0012 1B68     		ldr	r3, [r3]
 1527 0014 074A     		ldr	r2, .L52
 1528 0016 43F00403 		orr	r3, r3, #4
 1529 001a 1360     		str	r3, [r2]
 545:./.driver/STM32F10x_StdPeriph_Driver/src/stm32f10x_fsmc.c ****   }
 546:./.driver/STM32F10x_StdPeriph_Driver/src/stm32f10x_fsmc.c ****   else
 547:./.driver/STM32F10x_StdPeriph_Driver/src/stm32f10x_fsmc.c ****   {
 548:./.driver/STM32F10x_StdPeriph_Driver/src/stm32f10x_fsmc.c ****     /* Disable the PCCARD Bank by clearing the PBKEN bit in the PCR4 register */
 549:./.driver/STM32F10x_StdPeriph_Driver/src/stm32f10x_fsmc.c ****     FSMC_Bank4->PCR4 &= PCR_PBKEN_Reset;
 550:./.driver/STM32F10x_StdPeriph_Driver/src/stm32f10x_fsmc.c ****   }
 551:./.driver/STM32F10x_StdPeriph_Driver/src/stm32f10x_fsmc.c **** }
 1530              		.loc 1 551 1
 1531 001c 05E0     		b	.L51
 1532              	.L49:
 549:./.driver/STM32F10x_StdPeriph_Driver/src/stm32f10x_fsmc.c ****   }
 1533              		.loc 1 549 22
 1534 001e 054B     		ldr	r3, .L52
 1535 0020 1A68     		ldr	r2, [r3]
 1536 0022 0449     		ldr	r1, .L52
 1537 0024 044B     		ldr	r3, .L52+4
 1538 0026 1340     		ands	r3, r3, r2
 1539 0028 0B60     		str	r3, [r1]
 1540              	.L51:
 1541              		.loc 1 551 1
 1542 002a 00BF     		nop
 1543 002c 0C37     		adds	r7, r7, #12
 1544              	.LCFI67:
 1545              		.cfi_def_cfa_offset 4
 1546 002e BD46     		mov	sp, r7
 1547              	.LCFI68:
 1548              		.cfi_def_cfa_register 13
 1549              		@ sp needed
 1550 0030 80BC     		pop	{r7}
 1551              	.LCFI69:
ARM GAS  C:\Users\SAMEER~1.ALM\AppData\Local\Temp\ccWED5M3.s 			page 39


 1552              		.cfi_restore 7
 1553              		.cfi_def_cfa_offset 0
 1554 0032 7047     		bx	lr
 1555              	.L53:
 1556              		.align	2
 1557              	.L52:
 1558 0034 A00000A0 		.word	-1610612576
 1559 0038 FBFF0F00 		.word	1048571
 1560              		.cfi_endproc
 1561              	.LFE40:
 1563              		.section	.text.FSMC_NANDECCCmd,"ax",%progbits
 1564              		.align	1
 1565              		.global	FSMC_NANDECCCmd
 1566              		.syntax unified
 1567              		.thumb
 1568              		.thumb_func
 1570              	FSMC_NANDECCCmd:
 1571              	.LFB41:
 552:./.driver/STM32F10x_StdPeriph_Driver/src/stm32f10x_fsmc.c **** 
 553:./.driver/STM32F10x_StdPeriph_Driver/src/stm32f10x_fsmc.c **** /**
 554:./.driver/STM32F10x_StdPeriph_Driver/src/stm32f10x_fsmc.c ****   * @brief  Enables or disables the FSMC NAND ECC feature.
 555:./.driver/STM32F10x_StdPeriph_Driver/src/stm32f10x_fsmc.c ****   * @param  FSMC_Bank: specifies the FSMC Bank to be used
 556:./.driver/STM32F10x_StdPeriph_Driver/src/stm32f10x_fsmc.c ****   *   This parameter can be one of the following values:
 557:./.driver/STM32F10x_StdPeriph_Driver/src/stm32f10x_fsmc.c ****   *     @arg FSMC_Bank2_NAND: FSMC Bank2 NAND 
 558:./.driver/STM32F10x_StdPeriph_Driver/src/stm32f10x_fsmc.c ****   *     @arg FSMC_Bank3_NAND: FSMC Bank3 NAND
 559:./.driver/STM32F10x_StdPeriph_Driver/src/stm32f10x_fsmc.c ****   * @param  NewState: new state of the FSMC NAND ECC feature.  
 560:./.driver/STM32F10x_StdPeriph_Driver/src/stm32f10x_fsmc.c ****   *   This parameter can be: ENABLE or DISABLE.
 561:./.driver/STM32F10x_StdPeriph_Driver/src/stm32f10x_fsmc.c ****   * @retval None
 562:./.driver/STM32F10x_StdPeriph_Driver/src/stm32f10x_fsmc.c ****   */
 563:./.driver/STM32F10x_StdPeriph_Driver/src/stm32f10x_fsmc.c **** void FSMC_NANDECCCmd(uint32_t FSMC_Bank, FunctionalState NewState)
 564:./.driver/STM32F10x_StdPeriph_Driver/src/stm32f10x_fsmc.c **** {
 1572              		.loc 1 564 1
 1573              		.cfi_startproc
 1574              		@ args = 0, pretend = 0, frame = 8
 1575              		@ frame_needed = 1, uses_anonymous_args = 0
 1576              		@ link register save eliminated.
 1577 0000 80B4     		push	{r7}
 1578              	.LCFI70:
 1579              		.cfi_def_cfa_offset 4
 1580              		.cfi_offset 7, -4
 1581 0002 83B0     		sub	sp, sp, #12
 1582              	.LCFI71:
 1583              		.cfi_def_cfa_offset 16
 1584 0004 00AF     		add	r7, sp, #0
 1585              	.LCFI72:
 1586              		.cfi_def_cfa_register 7
 1587 0006 7860     		str	r0, [r7, #4]
 1588 0008 0B46     		mov	r3, r1
 1589 000a FB70     		strb	r3, [r7, #3]
 565:./.driver/STM32F10x_StdPeriph_Driver/src/stm32f10x_fsmc.c ****   assert_param(IS_FSMC_NAND_BANK(FSMC_Bank));
 566:./.driver/STM32F10x_StdPeriph_Driver/src/stm32f10x_fsmc.c ****   assert_param(IS_FUNCTIONAL_STATE(NewState));
 567:./.driver/STM32F10x_StdPeriph_Driver/src/stm32f10x_fsmc.c ****   
 568:./.driver/STM32F10x_StdPeriph_Driver/src/stm32f10x_fsmc.c ****   if (NewState != DISABLE)
 1590              		.loc 1 568 6
 1591 000c FB78     		ldrb	r3, [r7, #3]	@ zero_extendqisi2
 1592 000e 002B     		cmp	r3, #0
 1593 0010 10D0     		beq	.L55
ARM GAS  C:\Users\SAMEER~1.ALM\AppData\Local\Temp\ccWED5M3.s 			page 40


 569:./.driver/STM32F10x_StdPeriph_Driver/src/stm32f10x_fsmc.c ****   {
 570:./.driver/STM32F10x_StdPeriph_Driver/src/stm32f10x_fsmc.c ****     /* Enable the selected NAND Bank ECC function by setting the ECCEN bit in the PCRx register */
 571:./.driver/STM32F10x_StdPeriph_Driver/src/stm32f10x_fsmc.c ****     if(FSMC_Bank == FSMC_Bank2_NAND)
 1594              		.loc 1 571 7
 1595 0012 7B68     		ldr	r3, [r7, #4]
 1596 0014 102B     		cmp	r3, #16
 1597 0016 06D1     		bne	.L56
 572:./.driver/STM32F10x_StdPeriph_Driver/src/stm32f10x_fsmc.c ****     {
 573:./.driver/STM32F10x_StdPeriph_Driver/src/stm32f10x_fsmc.c ****       FSMC_Bank2->PCR2 |= PCR_ECCEN_Set;
 1598              		.loc 1 573 24
 1599 0018 114B     		ldr	r3, .L60
 1600 001a 1B68     		ldr	r3, [r3]
 1601 001c 104A     		ldr	r2, .L60
 1602 001e 43F04003 		orr	r3, r3, #64
 1603 0022 1360     		str	r3, [r2]
 574:./.driver/STM32F10x_StdPeriph_Driver/src/stm32f10x_fsmc.c ****     }
 575:./.driver/STM32F10x_StdPeriph_Driver/src/stm32f10x_fsmc.c ****     else
 576:./.driver/STM32F10x_StdPeriph_Driver/src/stm32f10x_fsmc.c ****     {
 577:./.driver/STM32F10x_StdPeriph_Driver/src/stm32f10x_fsmc.c ****       FSMC_Bank3->PCR3 |= PCR_ECCEN_Set;
 578:./.driver/STM32F10x_StdPeriph_Driver/src/stm32f10x_fsmc.c ****     }
 579:./.driver/STM32F10x_StdPeriph_Driver/src/stm32f10x_fsmc.c ****   }
 580:./.driver/STM32F10x_StdPeriph_Driver/src/stm32f10x_fsmc.c ****   else
 581:./.driver/STM32F10x_StdPeriph_Driver/src/stm32f10x_fsmc.c ****   {
 582:./.driver/STM32F10x_StdPeriph_Driver/src/stm32f10x_fsmc.c ****     /* Disable the selected NAND Bank ECC function by clearing the ECCEN bit in the PCRx register *
 583:./.driver/STM32F10x_StdPeriph_Driver/src/stm32f10x_fsmc.c ****     if(FSMC_Bank == FSMC_Bank2_NAND)
 584:./.driver/STM32F10x_StdPeriph_Driver/src/stm32f10x_fsmc.c ****     {
 585:./.driver/STM32F10x_StdPeriph_Driver/src/stm32f10x_fsmc.c ****       FSMC_Bank2->PCR2 &= PCR_ECCEN_Reset;
 586:./.driver/STM32F10x_StdPeriph_Driver/src/stm32f10x_fsmc.c ****     }
 587:./.driver/STM32F10x_StdPeriph_Driver/src/stm32f10x_fsmc.c ****     else
 588:./.driver/STM32F10x_StdPeriph_Driver/src/stm32f10x_fsmc.c ****     {
 589:./.driver/STM32F10x_StdPeriph_Driver/src/stm32f10x_fsmc.c ****       FSMC_Bank3->PCR3 &= PCR_ECCEN_Reset;
 590:./.driver/STM32F10x_StdPeriph_Driver/src/stm32f10x_fsmc.c ****     }
 591:./.driver/STM32F10x_StdPeriph_Driver/src/stm32f10x_fsmc.c ****   }
 592:./.driver/STM32F10x_StdPeriph_Driver/src/stm32f10x_fsmc.c **** }
 1604              		.loc 1 592 1
 1605 0024 16E0     		b	.L59
 1606              	.L56:
 577:./.driver/STM32F10x_StdPeriph_Driver/src/stm32f10x_fsmc.c ****     }
 1607              		.loc 1 577 24
 1608 0026 0F4B     		ldr	r3, .L60+4
 1609 0028 1B68     		ldr	r3, [r3]
 1610 002a 0E4A     		ldr	r2, .L60+4
 1611 002c 43F04003 		orr	r3, r3, #64
 1612 0030 1360     		str	r3, [r2]
 1613              		.loc 1 592 1
 1614 0032 0FE0     		b	.L59
 1615              	.L55:
 583:./.driver/STM32F10x_StdPeriph_Driver/src/stm32f10x_fsmc.c ****     {
 1616              		.loc 1 583 7
 1617 0034 7B68     		ldr	r3, [r7, #4]
 1618 0036 102B     		cmp	r3, #16
 1619 0038 06D1     		bne	.L58
 585:./.driver/STM32F10x_StdPeriph_Driver/src/stm32f10x_fsmc.c ****     }
 1620              		.loc 1 585 24
 1621 003a 094B     		ldr	r3, .L60
 1622 003c 1A68     		ldr	r2, [r3]
 1623 003e 0849     		ldr	r1, .L60
ARM GAS  C:\Users\SAMEER~1.ALM\AppData\Local\Temp\ccWED5M3.s 			page 41


 1624 0040 094B     		ldr	r3, .L60+8
 1625 0042 1340     		ands	r3, r3, r2
 1626 0044 0B60     		str	r3, [r1]
 1627              		.loc 1 592 1
 1628 0046 05E0     		b	.L59
 1629              	.L58:
 589:./.driver/STM32F10x_StdPeriph_Driver/src/stm32f10x_fsmc.c ****     }
 1630              		.loc 1 589 24
 1631 0048 064B     		ldr	r3, .L60+4
 1632 004a 1A68     		ldr	r2, [r3]
 1633 004c 0549     		ldr	r1, .L60+4
 1634 004e 064B     		ldr	r3, .L60+8
 1635 0050 1340     		ands	r3, r3, r2
 1636 0052 0B60     		str	r3, [r1]
 1637              	.L59:
 1638              		.loc 1 592 1
 1639 0054 00BF     		nop
 1640 0056 0C37     		adds	r7, r7, #12
 1641              	.LCFI73:
 1642              		.cfi_def_cfa_offset 4
 1643 0058 BD46     		mov	sp, r7
 1644              	.LCFI74:
 1645              		.cfi_def_cfa_register 13
 1646              		@ sp needed
 1647 005a 80BC     		pop	{r7}
 1648              	.LCFI75:
 1649              		.cfi_restore 7
 1650              		.cfi_def_cfa_offset 0
 1651 005c 7047     		bx	lr
 1652              	.L61:
 1653 005e 00BF     		.align	2
 1654              	.L60:
 1655 0060 600000A0 		.word	-1610612640
 1656 0064 800000A0 		.word	-1610612608
 1657 0068 BFFF0F00 		.word	1048511
 1658              		.cfi_endproc
 1659              	.LFE41:
 1661              		.section	.text.FSMC_GetECC,"ax",%progbits
 1662              		.align	1
 1663              		.global	FSMC_GetECC
 1664              		.syntax unified
 1665              		.thumb
 1666              		.thumb_func
 1668              	FSMC_GetECC:
 1669              	.LFB42:
 593:./.driver/STM32F10x_StdPeriph_Driver/src/stm32f10x_fsmc.c **** 
 594:./.driver/STM32F10x_StdPeriph_Driver/src/stm32f10x_fsmc.c **** /**
 595:./.driver/STM32F10x_StdPeriph_Driver/src/stm32f10x_fsmc.c ****   * @brief  Returns the error correction code register value.
 596:./.driver/STM32F10x_StdPeriph_Driver/src/stm32f10x_fsmc.c ****   * @param  FSMC_Bank: specifies the FSMC Bank to be used
 597:./.driver/STM32F10x_StdPeriph_Driver/src/stm32f10x_fsmc.c ****   *   This parameter can be one of the following values:
 598:./.driver/STM32F10x_StdPeriph_Driver/src/stm32f10x_fsmc.c ****   *     @arg FSMC_Bank2_NAND: FSMC Bank2 NAND 
 599:./.driver/STM32F10x_StdPeriph_Driver/src/stm32f10x_fsmc.c ****   *     @arg FSMC_Bank3_NAND: FSMC Bank3 NAND
 600:./.driver/STM32F10x_StdPeriph_Driver/src/stm32f10x_fsmc.c ****   * @retval The Error Correction Code (ECC) value.
 601:./.driver/STM32F10x_StdPeriph_Driver/src/stm32f10x_fsmc.c ****   */
 602:./.driver/STM32F10x_StdPeriph_Driver/src/stm32f10x_fsmc.c **** uint32_t FSMC_GetECC(uint32_t FSMC_Bank)
 603:./.driver/STM32F10x_StdPeriph_Driver/src/stm32f10x_fsmc.c **** {
 1670              		.loc 1 603 1
ARM GAS  C:\Users\SAMEER~1.ALM\AppData\Local\Temp\ccWED5M3.s 			page 42


 1671              		.cfi_startproc
 1672              		@ args = 0, pretend = 0, frame = 16
 1673              		@ frame_needed = 1, uses_anonymous_args = 0
 1674              		@ link register save eliminated.
 1675 0000 80B4     		push	{r7}
 1676              	.LCFI76:
 1677              		.cfi_def_cfa_offset 4
 1678              		.cfi_offset 7, -4
 1679 0002 85B0     		sub	sp, sp, #20
 1680              	.LCFI77:
 1681              		.cfi_def_cfa_offset 24
 1682 0004 00AF     		add	r7, sp, #0
 1683              	.LCFI78:
 1684              		.cfi_def_cfa_register 7
 1685 0006 7860     		str	r0, [r7, #4]
 604:./.driver/STM32F10x_StdPeriph_Driver/src/stm32f10x_fsmc.c ****   uint32_t eccval = 0x00000000;
 1686              		.loc 1 604 12
 1687 0008 0023     		movs	r3, #0
 1688 000a FB60     		str	r3, [r7, #12]
 605:./.driver/STM32F10x_StdPeriph_Driver/src/stm32f10x_fsmc.c ****   
 606:./.driver/STM32F10x_StdPeriph_Driver/src/stm32f10x_fsmc.c ****   if(FSMC_Bank == FSMC_Bank2_NAND)
 1689              		.loc 1 606 5
 1690 000c 7B68     		ldr	r3, [r7, #4]
 1691 000e 102B     		cmp	r3, #16
 1692 0010 03D1     		bne	.L63
 607:./.driver/STM32F10x_StdPeriph_Driver/src/stm32f10x_fsmc.c ****   {
 608:./.driver/STM32F10x_StdPeriph_Driver/src/stm32f10x_fsmc.c ****     /* Get the ECCR2 register value */
 609:./.driver/STM32F10x_StdPeriph_Driver/src/stm32f10x_fsmc.c ****     eccval = FSMC_Bank2->ECCR2;
 1693              		.loc 1 609 24
 1694 0012 064B     		ldr	r3, .L66
 1695              		.loc 1 609 12
 1696 0014 5B69     		ldr	r3, [r3, #20]
 1697 0016 FB60     		str	r3, [r7, #12]
 1698 0018 02E0     		b	.L64
 1699              	.L63:
 610:./.driver/STM32F10x_StdPeriph_Driver/src/stm32f10x_fsmc.c ****   }
 611:./.driver/STM32F10x_StdPeriph_Driver/src/stm32f10x_fsmc.c ****   else
 612:./.driver/STM32F10x_StdPeriph_Driver/src/stm32f10x_fsmc.c ****   {
 613:./.driver/STM32F10x_StdPeriph_Driver/src/stm32f10x_fsmc.c ****     /* Get the ECCR3 register value */
 614:./.driver/STM32F10x_StdPeriph_Driver/src/stm32f10x_fsmc.c ****     eccval = FSMC_Bank3->ECCR3;
 1700              		.loc 1 614 24
 1701 001a 054B     		ldr	r3, .L66+4
 1702              		.loc 1 614 12
 1703 001c 5B69     		ldr	r3, [r3, #20]
 1704 001e FB60     		str	r3, [r7, #12]
 1705              	.L64:
 615:./.driver/STM32F10x_StdPeriph_Driver/src/stm32f10x_fsmc.c ****   }
 616:./.driver/STM32F10x_StdPeriph_Driver/src/stm32f10x_fsmc.c ****   /* Return the error correction code value */
 617:./.driver/STM32F10x_StdPeriph_Driver/src/stm32f10x_fsmc.c ****   return(eccval);
 1706              		.loc 1 617 9
 1707 0020 FB68     		ldr	r3, [r7, #12]
 618:./.driver/STM32F10x_StdPeriph_Driver/src/stm32f10x_fsmc.c **** }
 1708              		.loc 1 618 1
 1709 0022 1846     		mov	r0, r3
 1710 0024 1437     		adds	r7, r7, #20
 1711              	.LCFI79:
 1712              		.cfi_def_cfa_offset 4
ARM GAS  C:\Users\SAMEER~1.ALM\AppData\Local\Temp\ccWED5M3.s 			page 43


 1713 0026 BD46     		mov	sp, r7
 1714              	.LCFI80:
 1715              		.cfi_def_cfa_register 13
 1716              		@ sp needed
 1717 0028 80BC     		pop	{r7}
 1718              	.LCFI81:
 1719              		.cfi_restore 7
 1720              		.cfi_def_cfa_offset 0
 1721 002a 7047     		bx	lr
 1722              	.L67:
 1723              		.align	2
 1724              	.L66:
 1725 002c 600000A0 		.word	-1610612640
 1726 0030 800000A0 		.word	-1610612608
 1727              		.cfi_endproc
 1728              	.LFE42:
 1730              		.section	.text.FSMC_ITConfig,"ax",%progbits
 1731              		.align	1
 1732              		.global	FSMC_ITConfig
 1733              		.syntax unified
 1734              		.thumb
 1735              		.thumb_func
 1737              	FSMC_ITConfig:
 1738              	.LFB43:
 619:./.driver/STM32F10x_StdPeriph_Driver/src/stm32f10x_fsmc.c **** 
 620:./.driver/STM32F10x_StdPeriph_Driver/src/stm32f10x_fsmc.c **** /**
 621:./.driver/STM32F10x_StdPeriph_Driver/src/stm32f10x_fsmc.c ****   * @brief  Enables or disables the specified FSMC interrupts.
 622:./.driver/STM32F10x_StdPeriph_Driver/src/stm32f10x_fsmc.c ****   * @param  FSMC_Bank: specifies the FSMC Bank to be used
 623:./.driver/STM32F10x_StdPeriph_Driver/src/stm32f10x_fsmc.c ****   *   This parameter can be one of the following values:
 624:./.driver/STM32F10x_StdPeriph_Driver/src/stm32f10x_fsmc.c ****   *     @arg FSMC_Bank2_NAND: FSMC Bank2 NAND 
 625:./.driver/STM32F10x_StdPeriph_Driver/src/stm32f10x_fsmc.c ****   *     @arg FSMC_Bank3_NAND: FSMC Bank3 NAND
 626:./.driver/STM32F10x_StdPeriph_Driver/src/stm32f10x_fsmc.c ****   *     @arg FSMC_Bank4_PCCARD: FSMC Bank4 PCCARD
 627:./.driver/STM32F10x_StdPeriph_Driver/src/stm32f10x_fsmc.c ****   * @param  FSMC_IT: specifies the FSMC interrupt sources to be enabled or disabled.
 628:./.driver/STM32F10x_StdPeriph_Driver/src/stm32f10x_fsmc.c ****   *   This parameter can be any combination of the following values:
 629:./.driver/STM32F10x_StdPeriph_Driver/src/stm32f10x_fsmc.c ****   *     @arg FSMC_IT_RisingEdge: Rising edge detection interrupt. 
 630:./.driver/STM32F10x_StdPeriph_Driver/src/stm32f10x_fsmc.c ****   *     @arg FSMC_IT_Level: Level edge detection interrupt.
 631:./.driver/STM32F10x_StdPeriph_Driver/src/stm32f10x_fsmc.c ****   *     @arg FSMC_IT_FallingEdge: Falling edge detection interrupt.
 632:./.driver/STM32F10x_StdPeriph_Driver/src/stm32f10x_fsmc.c ****   * @param  NewState: new state of the specified FSMC interrupts.
 633:./.driver/STM32F10x_StdPeriph_Driver/src/stm32f10x_fsmc.c ****   *   This parameter can be: ENABLE or DISABLE.
 634:./.driver/STM32F10x_StdPeriph_Driver/src/stm32f10x_fsmc.c ****   * @retval None
 635:./.driver/STM32F10x_StdPeriph_Driver/src/stm32f10x_fsmc.c ****   */
 636:./.driver/STM32F10x_StdPeriph_Driver/src/stm32f10x_fsmc.c **** void FSMC_ITConfig(uint32_t FSMC_Bank, uint32_t FSMC_IT, FunctionalState NewState)
 637:./.driver/STM32F10x_StdPeriph_Driver/src/stm32f10x_fsmc.c **** {
 1739              		.loc 1 637 1
 1740              		.cfi_startproc
 1741              		@ args = 0, pretend = 0, frame = 16
 1742              		@ frame_needed = 1, uses_anonymous_args = 0
 1743              		@ link register save eliminated.
 1744 0000 80B4     		push	{r7}
 1745              	.LCFI82:
 1746              		.cfi_def_cfa_offset 4
 1747              		.cfi_offset 7, -4
 1748 0002 85B0     		sub	sp, sp, #20
 1749              	.LCFI83:
 1750              		.cfi_def_cfa_offset 24
 1751 0004 00AF     		add	r7, sp, #0
 1752              	.LCFI84:
ARM GAS  C:\Users\SAMEER~1.ALM\AppData\Local\Temp\ccWED5M3.s 			page 44


 1753              		.cfi_def_cfa_register 7
 1754 0006 F860     		str	r0, [r7, #12]
 1755 0008 B960     		str	r1, [r7, #8]
 1756 000a 1346     		mov	r3, r2
 1757 000c FB71     		strb	r3, [r7, #7]
 638:./.driver/STM32F10x_StdPeriph_Driver/src/stm32f10x_fsmc.c ****   assert_param(IS_FSMC_IT_BANK(FSMC_Bank));
 639:./.driver/STM32F10x_StdPeriph_Driver/src/stm32f10x_fsmc.c ****   assert_param(IS_FSMC_IT(FSMC_IT));	
 640:./.driver/STM32F10x_StdPeriph_Driver/src/stm32f10x_fsmc.c ****   assert_param(IS_FUNCTIONAL_STATE(NewState));
 641:./.driver/STM32F10x_StdPeriph_Driver/src/stm32f10x_fsmc.c ****   
 642:./.driver/STM32F10x_StdPeriph_Driver/src/stm32f10x_fsmc.c ****   if (NewState != DISABLE)
 1758              		.loc 1 642 6
 1759 000e FB79     		ldrb	r3, [r7, #7]	@ zero_extendqisi2
 1760 0010 002B     		cmp	r3, #0
 1761 0012 1BD0     		beq	.L69
 643:./.driver/STM32F10x_StdPeriph_Driver/src/stm32f10x_fsmc.c ****   {
 644:./.driver/STM32F10x_StdPeriph_Driver/src/stm32f10x_fsmc.c ****     /* Enable the selected FSMC_Bank2 interrupts */
 645:./.driver/STM32F10x_StdPeriph_Driver/src/stm32f10x_fsmc.c ****     if(FSMC_Bank == FSMC_Bank2_NAND)
 1762              		.loc 1 645 7
 1763 0014 FB68     		ldr	r3, [r7, #12]
 1764 0016 102B     		cmp	r3, #16
 1765 0018 06D1     		bne	.L70
 646:./.driver/STM32F10x_StdPeriph_Driver/src/stm32f10x_fsmc.c ****     {
 647:./.driver/STM32F10x_StdPeriph_Driver/src/stm32f10x_fsmc.c ****       FSMC_Bank2->SR2 |= FSMC_IT;
 1766              		.loc 1 647 23
 1767 001a 1E4B     		ldr	r3, .L76
 1768 001c 5A68     		ldr	r2, [r3, #4]
 1769 001e 1D49     		ldr	r1, .L76
 1770 0020 BB68     		ldr	r3, [r7, #8]
 1771 0022 1343     		orrs	r3, r3, r2
 1772 0024 4B60     		str	r3, [r1, #4]
 648:./.driver/STM32F10x_StdPeriph_Driver/src/stm32f10x_fsmc.c ****     }
 649:./.driver/STM32F10x_StdPeriph_Driver/src/stm32f10x_fsmc.c ****     /* Enable the selected FSMC_Bank3 interrupts */
 650:./.driver/STM32F10x_StdPeriph_Driver/src/stm32f10x_fsmc.c ****     else if (FSMC_Bank == FSMC_Bank3_NAND)
 651:./.driver/STM32F10x_StdPeriph_Driver/src/stm32f10x_fsmc.c ****     {
 652:./.driver/STM32F10x_StdPeriph_Driver/src/stm32f10x_fsmc.c ****       FSMC_Bank3->SR3 |= FSMC_IT;
 653:./.driver/STM32F10x_StdPeriph_Driver/src/stm32f10x_fsmc.c ****     }
 654:./.driver/STM32F10x_StdPeriph_Driver/src/stm32f10x_fsmc.c ****     /* Enable the selected FSMC_Bank4 interrupts */
 655:./.driver/STM32F10x_StdPeriph_Driver/src/stm32f10x_fsmc.c ****     else
 656:./.driver/STM32F10x_StdPeriph_Driver/src/stm32f10x_fsmc.c ****     {
 657:./.driver/STM32F10x_StdPeriph_Driver/src/stm32f10x_fsmc.c ****       FSMC_Bank4->SR4 |= FSMC_IT;    
 658:./.driver/STM32F10x_StdPeriph_Driver/src/stm32f10x_fsmc.c ****     }
 659:./.driver/STM32F10x_StdPeriph_Driver/src/stm32f10x_fsmc.c ****   }
 660:./.driver/STM32F10x_StdPeriph_Driver/src/stm32f10x_fsmc.c ****   else
 661:./.driver/STM32F10x_StdPeriph_Driver/src/stm32f10x_fsmc.c ****   {
 662:./.driver/STM32F10x_StdPeriph_Driver/src/stm32f10x_fsmc.c ****     /* Disable the selected FSMC_Bank2 interrupts */
 663:./.driver/STM32F10x_StdPeriph_Driver/src/stm32f10x_fsmc.c ****     if(FSMC_Bank == FSMC_Bank2_NAND)
 664:./.driver/STM32F10x_StdPeriph_Driver/src/stm32f10x_fsmc.c ****     {
 665:./.driver/STM32F10x_StdPeriph_Driver/src/stm32f10x_fsmc.c ****       
 666:./.driver/STM32F10x_StdPeriph_Driver/src/stm32f10x_fsmc.c ****       FSMC_Bank2->SR2 &= (uint32_t)~FSMC_IT;
 667:./.driver/STM32F10x_StdPeriph_Driver/src/stm32f10x_fsmc.c ****     }
 668:./.driver/STM32F10x_StdPeriph_Driver/src/stm32f10x_fsmc.c ****     /* Disable the selected FSMC_Bank3 interrupts */
 669:./.driver/STM32F10x_StdPeriph_Driver/src/stm32f10x_fsmc.c ****     else if (FSMC_Bank == FSMC_Bank3_NAND)
 670:./.driver/STM32F10x_StdPeriph_Driver/src/stm32f10x_fsmc.c ****     {
 671:./.driver/STM32F10x_StdPeriph_Driver/src/stm32f10x_fsmc.c ****       FSMC_Bank3->SR3 &= (uint32_t)~FSMC_IT;
 672:./.driver/STM32F10x_StdPeriph_Driver/src/stm32f10x_fsmc.c ****     }
 673:./.driver/STM32F10x_StdPeriph_Driver/src/stm32f10x_fsmc.c ****     /* Disable the selected FSMC_Bank4 interrupts */
 674:./.driver/STM32F10x_StdPeriph_Driver/src/stm32f10x_fsmc.c ****     else
ARM GAS  C:\Users\SAMEER~1.ALM\AppData\Local\Temp\ccWED5M3.s 			page 45


 675:./.driver/STM32F10x_StdPeriph_Driver/src/stm32f10x_fsmc.c ****     {
 676:./.driver/STM32F10x_StdPeriph_Driver/src/stm32f10x_fsmc.c ****       FSMC_Bank4->SR4 &= (uint32_t)~FSMC_IT;    
 677:./.driver/STM32F10x_StdPeriph_Driver/src/stm32f10x_fsmc.c ****     }
 678:./.driver/STM32F10x_StdPeriph_Driver/src/stm32f10x_fsmc.c ****   }
 679:./.driver/STM32F10x_StdPeriph_Driver/src/stm32f10x_fsmc.c **** }
 1773              		.loc 1 679 1
 1774 0026 2FE0     		b	.L75
 1775              	.L70:
 650:./.driver/STM32F10x_StdPeriph_Driver/src/stm32f10x_fsmc.c ****     {
 1776              		.loc 1 650 13
 1777 0028 FB68     		ldr	r3, [r7, #12]
 1778 002a B3F5807F 		cmp	r3, #256
 1779 002e 06D1     		bne	.L72
 652:./.driver/STM32F10x_StdPeriph_Driver/src/stm32f10x_fsmc.c ****     }
 1780              		.loc 1 652 23
 1781 0030 194B     		ldr	r3, .L76+4
 1782 0032 5A68     		ldr	r2, [r3, #4]
 1783 0034 1849     		ldr	r1, .L76+4
 1784 0036 BB68     		ldr	r3, [r7, #8]
 1785 0038 1343     		orrs	r3, r3, r2
 1786 003a 4B60     		str	r3, [r1, #4]
 1787              		.loc 1 679 1
 1788 003c 24E0     		b	.L75
 1789              	.L72:
 657:./.driver/STM32F10x_StdPeriph_Driver/src/stm32f10x_fsmc.c ****     }
 1790              		.loc 1 657 23
 1791 003e 174B     		ldr	r3, .L76+8
 1792 0040 5A68     		ldr	r2, [r3, #4]
 1793 0042 1649     		ldr	r1, .L76+8
 1794 0044 BB68     		ldr	r3, [r7, #8]
 1795 0046 1343     		orrs	r3, r3, r2
 1796 0048 4B60     		str	r3, [r1, #4]
 1797              		.loc 1 679 1
 1798 004a 1DE0     		b	.L75
 1799              	.L69:
 663:./.driver/STM32F10x_StdPeriph_Driver/src/stm32f10x_fsmc.c ****     {
 1800              		.loc 1 663 7
 1801 004c FB68     		ldr	r3, [r7, #12]
 1802 004e 102B     		cmp	r3, #16
 1803 0050 07D1     		bne	.L73
 666:./.driver/STM32F10x_StdPeriph_Driver/src/stm32f10x_fsmc.c ****     }
 1804              		.loc 1 666 23
 1805 0052 104B     		ldr	r3, .L76
 1806 0054 5A68     		ldr	r2, [r3, #4]
 666:./.driver/STM32F10x_StdPeriph_Driver/src/stm32f10x_fsmc.c ****     }
 1807              		.loc 1 666 36
 1808 0056 BB68     		ldr	r3, [r7, #8]
 1809 0058 DB43     		mvns	r3, r3
 666:./.driver/STM32F10x_StdPeriph_Driver/src/stm32f10x_fsmc.c ****     }
 1810              		.loc 1 666 23
 1811 005a 0E49     		ldr	r1, .L76
 1812 005c 1340     		ands	r3, r3, r2
 1813 005e 4B60     		str	r3, [r1, #4]
 1814              		.loc 1 679 1
 1815 0060 12E0     		b	.L75
 1816              	.L73:
 669:./.driver/STM32F10x_StdPeriph_Driver/src/stm32f10x_fsmc.c ****     {
ARM GAS  C:\Users\SAMEER~1.ALM\AppData\Local\Temp\ccWED5M3.s 			page 46


 1817              		.loc 1 669 13
 1818 0062 FB68     		ldr	r3, [r7, #12]
 1819 0064 B3F5807F 		cmp	r3, #256
 1820 0068 07D1     		bne	.L74
 671:./.driver/STM32F10x_StdPeriph_Driver/src/stm32f10x_fsmc.c ****     }
 1821              		.loc 1 671 23
 1822 006a 0B4B     		ldr	r3, .L76+4
 1823 006c 5A68     		ldr	r2, [r3, #4]
 671:./.driver/STM32F10x_StdPeriph_Driver/src/stm32f10x_fsmc.c ****     }
 1824              		.loc 1 671 36
 1825 006e BB68     		ldr	r3, [r7, #8]
 1826 0070 DB43     		mvns	r3, r3
 671:./.driver/STM32F10x_StdPeriph_Driver/src/stm32f10x_fsmc.c ****     }
 1827              		.loc 1 671 23
 1828 0072 0949     		ldr	r1, .L76+4
 1829 0074 1340     		ands	r3, r3, r2
 1830 0076 4B60     		str	r3, [r1, #4]
 1831              		.loc 1 679 1
 1832 0078 06E0     		b	.L75
 1833              	.L74:
 676:./.driver/STM32F10x_StdPeriph_Driver/src/stm32f10x_fsmc.c ****     }
 1834              		.loc 1 676 23
 1835 007a 084B     		ldr	r3, .L76+8
 1836 007c 5A68     		ldr	r2, [r3, #4]
 676:./.driver/STM32F10x_StdPeriph_Driver/src/stm32f10x_fsmc.c ****     }
 1837              		.loc 1 676 36
 1838 007e BB68     		ldr	r3, [r7, #8]
 1839 0080 DB43     		mvns	r3, r3
 676:./.driver/STM32F10x_StdPeriph_Driver/src/stm32f10x_fsmc.c ****     }
 1840              		.loc 1 676 23
 1841 0082 0649     		ldr	r1, .L76+8
 1842 0084 1340     		ands	r3, r3, r2
 1843 0086 4B60     		str	r3, [r1, #4]
 1844              	.L75:
 1845              		.loc 1 679 1
 1846 0088 00BF     		nop
 1847 008a 1437     		adds	r7, r7, #20
 1848              	.LCFI85:
 1849              		.cfi_def_cfa_offset 4
 1850 008c BD46     		mov	sp, r7
 1851              	.LCFI86:
 1852              		.cfi_def_cfa_register 13
 1853              		@ sp needed
 1854 008e 80BC     		pop	{r7}
 1855              	.LCFI87:
 1856              		.cfi_restore 7
 1857              		.cfi_def_cfa_offset 0
 1858 0090 7047     		bx	lr
 1859              	.L77:
 1860 0092 00BF     		.align	2
 1861              	.L76:
 1862 0094 600000A0 		.word	-1610612640
 1863 0098 800000A0 		.word	-1610612608
 1864 009c A00000A0 		.word	-1610612576
 1865              		.cfi_endproc
 1866              	.LFE43:
 1868              		.section	.text.FSMC_GetFlagStatus,"ax",%progbits
ARM GAS  C:\Users\SAMEER~1.ALM\AppData\Local\Temp\ccWED5M3.s 			page 47


 1869              		.align	1
 1870              		.global	FSMC_GetFlagStatus
 1871              		.syntax unified
 1872              		.thumb
 1873              		.thumb_func
 1875              	FSMC_GetFlagStatus:
 1876              	.LFB44:
 680:./.driver/STM32F10x_StdPeriph_Driver/src/stm32f10x_fsmc.c **** 
 681:./.driver/STM32F10x_StdPeriph_Driver/src/stm32f10x_fsmc.c **** /**
 682:./.driver/STM32F10x_StdPeriph_Driver/src/stm32f10x_fsmc.c ****   * @brief  Checks whether the specified FSMC flag is set or not.
 683:./.driver/STM32F10x_StdPeriph_Driver/src/stm32f10x_fsmc.c ****   * @param  FSMC_Bank: specifies the FSMC Bank to be used
 684:./.driver/STM32F10x_StdPeriph_Driver/src/stm32f10x_fsmc.c ****   *   This parameter can be one of the following values:
 685:./.driver/STM32F10x_StdPeriph_Driver/src/stm32f10x_fsmc.c ****   *     @arg FSMC_Bank2_NAND: FSMC Bank2 NAND 
 686:./.driver/STM32F10x_StdPeriph_Driver/src/stm32f10x_fsmc.c ****   *     @arg FSMC_Bank3_NAND: FSMC Bank3 NAND
 687:./.driver/STM32F10x_StdPeriph_Driver/src/stm32f10x_fsmc.c ****   *     @arg FSMC_Bank4_PCCARD: FSMC Bank4 PCCARD
 688:./.driver/STM32F10x_StdPeriph_Driver/src/stm32f10x_fsmc.c ****   * @param  FSMC_FLAG: specifies the flag to check.
 689:./.driver/STM32F10x_StdPeriph_Driver/src/stm32f10x_fsmc.c ****   *   This parameter can be one of the following values:
 690:./.driver/STM32F10x_StdPeriph_Driver/src/stm32f10x_fsmc.c ****   *     @arg FSMC_FLAG_RisingEdge: Rising egde detection Flag.
 691:./.driver/STM32F10x_StdPeriph_Driver/src/stm32f10x_fsmc.c ****   *     @arg FSMC_FLAG_Level: Level detection Flag.
 692:./.driver/STM32F10x_StdPeriph_Driver/src/stm32f10x_fsmc.c ****   *     @arg FSMC_FLAG_FallingEdge: Falling egde detection Flag.
 693:./.driver/STM32F10x_StdPeriph_Driver/src/stm32f10x_fsmc.c ****   *     @arg FSMC_FLAG_FEMPT: Fifo empty Flag. 
 694:./.driver/STM32F10x_StdPeriph_Driver/src/stm32f10x_fsmc.c ****   * @retval The new state of FSMC_FLAG (SET or RESET).
 695:./.driver/STM32F10x_StdPeriph_Driver/src/stm32f10x_fsmc.c ****   */
 696:./.driver/STM32F10x_StdPeriph_Driver/src/stm32f10x_fsmc.c **** FlagStatus FSMC_GetFlagStatus(uint32_t FSMC_Bank, uint32_t FSMC_FLAG)
 697:./.driver/STM32F10x_StdPeriph_Driver/src/stm32f10x_fsmc.c **** {
 1877              		.loc 1 697 1
 1878              		.cfi_startproc
 1879              		@ args = 0, pretend = 0, frame = 16
 1880              		@ frame_needed = 1, uses_anonymous_args = 0
 1881              		@ link register save eliminated.
 1882 0000 80B4     		push	{r7}
 1883              	.LCFI88:
 1884              		.cfi_def_cfa_offset 4
 1885              		.cfi_offset 7, -4
 1886 0002 85B0     		sub	sp, sp, #20
 1887              	.LCFI89:
 1888              		.cfi_def_cfa_offset 24
 1889 0004 00AF     		add	r7, sp, #0
 1890              	.LCFI90:
 1891              		.cfi_def_cfa_register 7
 1892 0006 7860     		str	r0, [r7, #4]
 1893 0008 3960     		str	r1, [r7]
 698:./.driver/STM32F10x_StdPeriph_Driver/src/stm32f10x_fsmc.c ****   FlagStatus bitstatus = RESET;
 1894              		.loc 1 698 14
 1895 000a 0023     		movs	r3, #0
 1896 000c FB73     		strb	r3, [r7, #15]
 699:./.driver/STM32F10x_StdPeriph_Driver/src/stm32f10x_fsmc.c ****   uint32_t tmpsr = 0x00000000;
 1897              		.loc 1 699 12
 1898 000e 0023     		movs	r3, #0
 1899 0010 BB60     		str	r3, [r7, #8]
 700:./.driver/STM32F10x_StdPeriph_Driver/src/stm32f10x_fsmc.c ****   
 701:./.driver/STM32F10x_StdPeriph_Driver/src/stm32f10x_fsmc.c ****   /* Check the parameters */
 702:./.driver/STM32F10x_StdPeriph_Driver/src/stm32f10x_fsmc.c ****   assert_param(IS_FSMC_GETFLAG_BANK(FSMC_Bank));
 703:./.driver/STM32F10x_StdPeriph_Driver/src/stm32f10x_fsmc.c ****   assert_param(IS_FSMC_GET_FLAG(FSMC_FLAG));
 704:./.driver/STM32F10x_StdPeriph_Driver/src/stm32f10x_fsmc.c ****   
 705:./.driver/STM32F10x_StdPeriph_Driver/src/stm32f10x_fsmc.c ****   if(FSMC_Bank == FSMC_Bank2_NAND)
 1900              		.loc 1 705 5
ARM GAS  C:\Users\SAMEER~1.ALM\AppData\Local\Temp\ccWED5M3.s 			page 48


 1901 0012 7B68     		ldr	r3, [r7, #4]
 1902 0014 102B     		cmp	r3, #16
 1903 0016 03D1     		bne	.L79
 706:./.driver/STM32F10x_StdPeriph_Driver/src/stm32f10x_fsmc.c ****   {
 707:./.driver/STM32F10x_StdPeriph_Driver/src/stm32f10x_fsmc.c ****     tmpsr = FSMC_Bank2->SR2;
 1904              		.loc 1 707 23
 1905 0018 0F4B     		ldr	r3, .L85
 1906              		.loc 1 707 11
 1907 001a 5B68     		ldr	r3, [r3, #4]
 1908 001c BB60     		str	r3, [r7, #8]
 1909 001e 0AE0     		b	.L80
 1910              	.L79:
 708:./.driver/STM32F10x_StdPeriph_Driver/src/stm32f10x_fsmc.c ****   }  
 709:./.driver/STM32F10x_StdPeriph_Driver/src/stm32f10x_fsmc.c ****   else if(FSMC_Bank == FSMC_Bank3_NAND)
 1911              		.loc 1 709 10
 1912 0020 7B68     		ldr	r3, [r7, #4]
 1913 0022 B3F5807F 		cmp	r3, #256
 1914 0026 03D1     		bne	.L81
 710:./.driver/STM32F10x_StdPeriph_Driver/src/stm32f10x_fsmc.c ****   {
 711:./.driver/STM32F10x_StdPeriph_Driver/src/stm32f10x_fsmc.c ****     tmpsr = FSMC_Bank3->SR3;
 1915              		.loc 1 711 23
 1916 0028 0C4B     		ldr	r3, .L85+4
 1917              		.loc 1 711 11
 1918 002a 5B68     		ldr	r3, [r3, #4]
 1919 002c BB60     		str	r3, [r7, #8]
 1920 002e 02E0     		b	.L80
 1921              	.L81:
 712:./.driver/STM32F10x_StdPeriph_Driver/src/stm32f10x_fsmc.c ****   }
 713:./.driver/STM32F10x_StdPeriph_Driver/src/stm32f10x_fsmc.c ****   /* FSMC_Bank4_PCCARD*/
 714:./.driver/STM32F10x_StdPeriph_Driver/src/stm32f10x_fsmc.c ****   else
 715:./.driver/STM32F10x_StdPeriph_Driver/src/stm32f10x_fsmc.c ****   {
 716:./.driver/STM32F10x_StdPeriph_Driver/src/stm32f10x_fsmc.c ****     tmpsr = FSMC_Bank4->SR4;
 1922              		.loc 1 716 23
 1923 0030 0B4B     		ldr	r3, .L85+8
 1924              		.loc 1 716 11
 1925 0032 5B68     		ldr	r3, [r3, #4]
 1926 0034 BB60     		str	r3, [r7, #8]
 1927              	.L80:
 717:./.driver/STM32F10x_StdPeriph_Driver/src/stm32f10x_fsmc.c ****   } 
 718:./.driver/STM32F10x_StdPeriph_Driver/src/stm32f10x_fsmc.c ****   
 719:./.driver/STM32F10x_StdPeriph_Driver/src/stm32f10x_fsmc.c ****   /* Get the flag status */
 720:./.driver/STM32F10x_StdPeriph_Driver/src/stm32f10x_fsmc.c ****   if ((tmpsr & FSMC_FLAG) != (uint16_t)RESET )
 1928              		.loc 1 720 14
 1929 0036 BA68     		ldr	r2, [r7, #8]
 1930 0038 3B68     		ldr	r3, [r7]
 1931 003a 1340     		ands	r3, r3, r2
 1932              		.loc 1 720 6
 1933 003c 002B     		cmp	r3, #0
 1934 003e 02D0     		beq	.L82
 721:./.driver/STM32F10x_StdPeriph_Driver/src/stm32f10x_fsmc.c ****   {
 722:./.driver/STM32F10x_StdPeriph_Driver/src/stm32f10x_fsmc.c ****     bitstatus = SET;
 1935              		.loc 1 722 15
 1936 0040 0123     		movs	r3, #1
 1937 0042 FB73     		strb	r3, [r7, #15]
 1938 0044 01E0     		b	.L83
 1939              	.L82:
 723:./.driver/STM32F10x_StdPeriph_Driver/src/stm32f10x_fsmc.c ****   }
ARM GAS  C:\Users\SAMEER~1.ALM\AppData\Local\Temp\ccWED5M3.s 			page 49


 724:./.driver/STM32F10x_StdPeriph_Driver/src/stm32f10x_fsmc.c ****   else
 725:./.driver/STM32F10x_StdPeriph_Driver/src/stm32f10x_fsmc.c ****   {
 726:./.driver/STM32F10x_StdPeriph_Driver/src/stm32f10x_fsmc.c ****     bitstatus = RESET;
 1940              		.loc 1 726 15
 1941 0046 0023     		movs	r3, #0
 1942 0048 FB73     		strb	r3, [r7, #15]
 1943              	.L83:
 727:./.driver/STM32F10x_StdPeriph_Driver/src/stm32f10x_fsmc.c ****   }
 728:./.driver/STM32F10x_StdPeriph_Driver/src/stm32f10x_fsmc.c ****   /* Return the flag status */
 729:./.driver/STM32F10x_StdPeriph_Driver/src/stm32f10x_fsmc.c ****   return bitstatus;
 1944              		.loc 1 729 10
 1945 004a FB7B     		ldrb	r3, [r7, #15]	@ zero_extendqisi2
 730:./.driver/STM32F10x_StdPeriph_Driver/src/stm32f10x_fsmc.c **** }
 1946              		.loc 1 730 1
 1947 004c 1846     		mov	r0, r3
 1948 004e 1437     		adds	r7, r7, #20
 1949              	.LCFI91:
 1950              		.cfi_def_cfa_offset 4
 1951 0050 BD46     		mov	sp, r7
 1952              	.LCFI92:
 1953              		.cfi_def_cfa_register 13
 1954              		@ sp needed
 1955 0052 80BC     		pop	{r7}
 1956              	.LCFI93:
 1957              		.cfi_restore 7
 1958              		.cfi_def_cfa_offset 0
 1959 0054 7047     		bx	lr
 1960              	.L86:
 1961 0056 00BF     		.align	2
 1962              	.L85:
 1963 0058 600000A0 		.word	-1610612640
 1964 005c 800000A0 		.word	-1610612608
 1965 0060 A00000A0 		.word	-1610612576
 1966              		.cfi_endproc
 1967              	.LFE44:
 1969              		.section	.text.FSMC_ClearFlag,"ax",%progbits
 1970              		.align	1
 1971              		.global	FSMC_ClearFlag
 1972              		.syntax unified
 1973              		.thumb
 1974              		.thumb_func
 1976              	FSMC_ClearFlag:
 1977              	.LFB45:
 731:./.driver/STM32F10x_StdPeriph_Driver/src/stm32f10x_fsmc.c **** 
 732:./.driver/STM32F10x_StdPeriph_Driver/src/stm32f10x_fsmc.c **** /**
 733:./.driver/STM32F10x_StdPeriph_Driver/src/stm32f10x_fsmc.c ****   * @brief  Clears the FSMC's pending flags.
 734:./.driver/STM32F10x_StdPeriph_Driver/src/stm32f10x_fsmc.c ****   * @param  FSMC_Bank: specifies the FSMC Bank to be used
 735:./.driver/STM32F10x_StdPeriph_Driver/src/stm32f10x_fsmc.c ****   *   This parameter can be one of the following values:
 736:./.driver/STM32F10x_StdPeriph_Driver/src/stm32f10x_fsmc.c ****   *     @arg FSMC_Bank2_NAND: FSMC Bank2 NAND 
 737:./.driver/STM32F10x_StdPeriph_Driver/src/stm32f10x_fsmc.c ****   *     @arg FSMC_Bank3_NAND: FSMC Bank3 NAND
 738:./.driver/STM32F10x_StdPeriph_Driver/src/stm32f10x_fsmc.c ****   *     @arg FSMC_Bank4_PCCARD: FSMC Bank4 PCCARD
 739:./.driver/STM32F10x_StdPeriph_Driver/src/stm32f10x_fsmc.c ****   * @param  FSMC_FLAG: specifies the flag to clear.
 740:./.driver/STM32F10x_StdPeriph_Driver/src/stm32f10x_fsmc.c ****   *   This parameter can be any combination of the following values:
 741:./.driver/STM32F10x_StdPeriph_Driver/src/stm32f10x_fsmc.c ****   *     @arg FSMC_FLAG_RisingEdge: Rising egde detection Flag.
 742:./.driver/STM32F10x_StdPeriph_Driver/src/stm32f10x_fsmc.c ****   *     @arg FSMC_FLAG_Level: Level detection Flag.
 743:./.driver/STM32F10x_StdPeriph_Driver/src/stm32f10x_fsmc.c ****   *     @arg FSMC_FLAG_FallingEdge: Falling egde detection Flag.
 744:./.driver/STM32F10x_StdPeriph_Driver/src/stm32f10x_fsmc.c ****   * @retval None
ARM GAS  C:\Users\SAMEER~1.ALM\AppData\Local\Temp\ccWED5M3.s 			page 50


 745:./.driver/STM32F10x_StdPeriph_Driver/src/stm32f10x_fsmc.c ****   */
 746:./.driver/STM32F10x_StdPeriph_Driver/src/stm32f10x_fsmc.c **** void FSMC_ClearFlag(uint32_t FSMC_Bank, uint32_t FSMC_FLAG)
 747:./.driver/STM32F10x_StdPeriph_Driver/src/stm32f10x_fsmc.c **** {
 1978              		.loc 1 747 1
 1979              		.cfi_startproc
 1980              		@ args = 0, pretend = 0, frame = 8
 1981              		@ frame_needed = 1, uses_anonymous_args = 0
 1982              		@ link register save eliminated.
 1983 0000 80B4     		push	{r7}
 1984              	.LCFI94:
 1985              		.cfi_def_cfa_offset 4
 1986              		.cfi_offset 7, -4
 1987 0002 83B0     		sub	sp, sp, #12
 1988              	.LCFI95:
 1989              		.cfi_def_cfa_offset 16
 1990 0004 00AF     		add	r7, sp, #0
 1991              	.LCFI96:
 1992              		.cfi_def_cfa_register 7
 1993 0006 7860     		str	r0, [r7, #4]
 1994 0008 3960     		str	r1, [r7]
 748:./.driver/STM32F10x_StdPeriph_Driver/src/stm32f10x_fsmc.c ****  /* Check the parameters */
 749:./.driver/STM32F10x_StdPeriph_Driver/src/stm32f10x_fsmc.c ****   assert_param(IS_FSMC_GETFLAG_BANK(FSMC_Bank));
 750:./.driver/STM32F10x_StdPeriph_Driver/src/stm32f10x_fsmc.c ****   assert_param(IS_FSMC_CLEAR_FLAG(FSMC_FLAG)) ;
 751:./.driver/STM32F10x_StdPeriph_Driver/src/stm32f10x_fsmc.c ****     
 752:./.driver/STM32F10x_StdPeriph_Driver/src/stm32f10x_fsmc.c ****   if(FSMC_Bank == FSMC_Bank2_NAND)
 1995              		.loc 1 752 5
 1996 000a 7B68     		ldr	r3, [r7, #4]
 1997 000c 102B     		cmp	r3, #16
 1998 000e 07D1     		bne	.L88
 753:./.driver/STM32F10x_StdPeriph_Driver/src/stm32f10x_fsmc.c ****   {
 754:./.driver/STM32F10x_StdPeriph_Driver/src/stm32f10x_fsmc.c ****     FSMC_Bank2->SR2 &= ~FSMC_FLAG; 
 1999              		.loc 1 754 21
 2000 0010 0F4B     		ldr	r3, .L92
 2001 0012 5A68     		ldr	r2, [r3, #4]
 2002              		.loc 1 754 24
 2003 0014 3B68     		ldr	r3, [r7]
 2004 0016 DB43     		mvns	r3, r3
 2005              		.loc 1 754 21
 2006 0018 0D49     		ldr	r1, .L92
 2007 001a 1340     		ands	r3, r3, r2
 2008 001c 4B60     		str	r3, [r1, #4]
 755:./.driver/STM32F10x_StdPeriph_Driver/src/stm32f10x_fsmc.c ****   }  
 756:./.driver/STM32F10x_StdPeriph_Driver/src/stm32f10x_fsmc.c ****   else if(FSMC_Bank == FSMC_Bank3_NAND)
 757:./.driver/STM32F10x_StdPeriph_Driver/src/stm32f10x_fsmc.c ****   {
 758:./.driver/STM32F10x_StdPeriph_Driver/src/stm32f10x_fsmc.c ****     FSMC_Bank3->SR3 &= ~FSMC_FLAG;
 759:./.driver/STM32F10x_StdPeriph_Driver/src/stm32f10x_fsmc.c ****   }
 760:./.driver/STM32F10x_StdPeriph_Driver/src/stm32f10x_fsmc.c ****   /* FSMC_Bank4_PCCARD*/
 761:./.driver/STM32F10x_StdPeriph_Driver/src/stm32f10x_fsmc.c ****   else
 762:./.driver/STM32F10x_StdPeriph_Driver/src/stm32f10x_fsmc.c ****   {
 763:./.driver/STM32F10x_StdPeriph_Driver/src/stm32f10x_fsmc.c ****     FSMC_Bank4->SR4 &= ~FSMC_FLAG;
 764:./.driver/STM32F10x_StdPeriph_Driver/src/stm32f10x_fsmc.c ****   }
 765:./.driver/STM32F10x_StdPeriph_Driver/src/stm32f10x_fsmc.c **** }
 2009              		.loc 1 765 1
 2010 001e 12E0     		b	.L91
 2011              	.L88:
 756:./.driver/STM32F10x_StdPeriph_Driver/src/stm32f10x_fsmc.c ****   {
 2012              		.loc 1 756 10
ARM GAS  C:\Users\SAMEER~1.ALM\AppData\Local\Temp\ccWED5M3.s 			page 51


 2013 0020 7B68     		ldr	r3, [r7, #4]
 2014 0022 B3F5807F 		cmp	r3, #256
 2015 0026 07D1     		bne	.L90
 758:./.driver/STM32F10x_StdPeriph_Driver/src/stm32f10x_fsmc.c ****   }
 2016              		.loc 1 758 21
 2017 0028 0A4B     		ldr	r3, .L92+4
 2018 002a 5A68     		ldr	r2, [r3, #4]
 758:./.driver/STM32F10x_StdPeriph_Driver/src/stm32f10x_fsmc.c ****   }
 2019              		.loc 1 758 24
 2020 002c 3B68     		ldr	r3, [r7]
 2021 002e DB43     		mvns	r3, r3
 758:./.driver/STM32F10x_StdPeriph_Driver/src/stm32f10x_fsmc.c ****   }
 2022              		.loc 1 758 21
 2023 0030 0849     		ldr	r1, .L92+4
 2024 0032 1340     		ands	r3, r3, r2
 2025 0034 4B60     		str	r3, [r1, #4]
 2026              		.loc 1 765 1
 2027 0036 06E0     		b	.L91
 2028              	.L90:
 763:./.driver/STM32F10x_StdPeriph_Driver/src/stm32f10x_fsmc.c ****   }
 2029              		.loc 1 763 21
 2030 0038 074B     		ldr	r3, .L92+8
 2031 003a 5A68     		ldr	r2, [r3, #4]
 763:./.driver/STM32F10x_StdPeriph_Driver/src/stm32f10x_fsmc.c ****   }
 2032              		.loc 1 763 24
 2033 003c 3B68     		ldr	r3, [r7]
 2034 003e DB43     		mvns	r3, r3
 763:./.driver/STM32F10x_StdPeriph_Driver/src/stm32f10x_fsmc.c ****   }
 2035              		.loc 1 763 21
 2036 0040 0549     		ldr	r1, .L92+8
 2037 0042 1340     		ands	r3, r3, r2
 2038 0044 4B60     		str	r3, [r1, #4]
 2039              	.L91:
 2040              		.loc 1 765 1
 2041 0046 00BF     		nop
 2042 0048 0C37     		adds	r7, r7, #12
 2043              	.LCFI97:
 2044              		.cfi_def_cfa_offset 4
 2045 004a BD46     		mov	sp, r7
 2046              	.LCFI98:
 2047              		.cfi_def_cfa_register 13
 2048              		@ sp needed
 2049 004c 80BC     		pop	{r7}
 2050              	.LCFI99:
 2051              		.cfi_restore 7
 2052              		.cfi_def_cfa_offset 0
 2053 004e 7047     		bx	lr
 2054              	.L93:
 2055              		.align	2
 2056              	.L92:
 2057 0050 600000A0 		.word	-1610612640
 2058 0054 800000A0 		.word	-1610612608
 2059 0058 A00000A0 		.word	-1610612576
 2060              		.cfi_endproc
 2061              	.LFE45:
 2063              		.section	.text.FSMC_GetITStatus,"ax",%progbits
 2064              		.align	1
ARM GAS  C:\Users\SAMEER~1.ALM\AppData\Local\Temp\ccWED5M3.s 			page 52


 2065              		.global	FSMC_GetITStatus
 2066              		.syntax unified
 2067              		.thumb
 2068              		.thumb_func
 2070              	FSMC_GetITStatus:
 2071              	.LFB46:
 766:./.driver/STM32F10x_StdPeriph_Driver/src/stm32f10x_fsmc.c **** 
 767:./.driver/STM32F10x_StdPeriph_Driver/src/stm32f10x_fsmc.c **** /**
 768:./.driver/STM32F10x_StdPeriph_Driver/src/stm32f10x_fsmc.c ****   * @brief  Checks whether the specified FSMC interrupt has occurred or not.
 769:./.driver/STM32F10x_StdPeriph_Driver/src/stm32f10x_fsmc.c ****   * @param  FSMC_Bank: specifies the FSMC Bank to be used
 770:./.driver/STM32F10x_StdPeriph_Driver/src/stm32f10x_fsmc.c ****   *   This parameter can be one of the following values:
 771:./.driver/STM32F10x_StdPeriph_Driver/src/stm32f10x_fsmc.c ****   *     @arg FSMC_Bank2_NAND: FSMC Bank2 NAND 
 772:./.driver/STM32F10x_StdPeriph_Driver/src/stm32f10x_fsmc.c ****   *     @arg FSMC_Bank3_NAND: FSMC Bank3 NAND
 773:./.driver/STM32F10x_StdPeriph_Driver/src/stm32f10x_fsmc.c ****   *     @arg FSMC_Bank4_PCCARD: FSMC Bank4 PCCARD
 774:./.driver/STM32F10x_StdPeriph_Driver/src/stm32f10x_fsmc.c ****   * @param  FSMC_IT: specifies the FSMC interrupt source to check.
 775:./.driver/STM32F10x_StdPeriph_Driver/src/stm32f10x_fsmc.c ****   *   This parameter can be one of the following values:
 776:./.driver/STM32F10x_StdPeriph_Driver/src/stm32f10x_fsmc.c ****   *     @arg FSMC_IT_RisingEdge: Rising edge detection interrupt. 
 777:./.driver/STM32F10x_StdPeriph_Driver/src/stm32f10x_fsmc.c ****   *     @arg FSMC_IT_Level: Level edge detection interrupt.
 778:./.driver/STM32F10x_StdPeriph_Driver/src/stm32f10x_fsmc.c ****   *     @arg FSMC_IT_FallingEdge: Falling edge detection interrupt. 
 779:./.driver/STM32F10x_StdPeriph_Driver/src/stm32f10x_fsmc.c ****   * @retval The new state of FSMC_IT (SET or RESET).
 780:./.driver/STM32F10x_StdPeriph_Driver/src/stm32f10x_fsmc.c ****   */
 781:./.driver/STM32F10x_StdPeriph_Driver/src/stm32f10x_fsmc.c **** ITStatus FSMC_GetITStatus(uint32_t FSMC_Bank, uint32_t FSMC_IT)
 782:./.driver/STM32F10x_StdPeriph_Driver/src/stm32f10x_fsmc.c **** {
 2072              		.loc 1 782 1
 2073              		.cfi_startproc
 2074              		@ args = 0, pretend = 0, frame = 24
 2075              		@ frame_needed = 1, uses_anonymous_args = 0
 2076              		@ link register save eliminated.
 2077 0000 80B4     		push	{r7}
 2078              	.LCFI100:
 2079              		.cfi_def_cfa_offset 4
 2080              		.cfi_offset 7, -4
 2081 0002 87B0     		sub	sp, sp, #28
 2082              	.LCFI101:
 2083              		.cfi_def_cfa_offset 32
 2084 0004 00AF     		add	r7, sp, #0
 2085              	.LCFI102:
 2086              		.cfi_def_cfa_register 7
 2087 0006 7860     		str	r0, [r7, #4]
 2088 0008 3960     		str	r1, [r7]
 783:./.driver/STM32F10x_StdPeriph_Driver/src/stm32f10x_fsmc.c ****   ITStatus bitstatus = RESET;
 2089              		.loc 1 783 12
 2090 000a 0023     		movs	r3, #0
 2091 000c FB75     		strb	r3, [r7, #23]
 784:./.driver/STM32F10x_StdPeriph_Driver/src/stm32f10x_fsmc.c ****   uint32_t tmpsr = 0x0, itstatus = 0x0, itenable = 0x0; 
 2092              		.loc 1 784 12
 2093 000e 0023     		movs	r3, #0
 2094 0010 3B61     		str	r3, [r7, #16]
 2095              		.loc 1 784 25
 2096 0012 0023     		movs	r3, #0
 2097 0014 FB60     		str	r3, [r7, #12]
 2098              		.loc 1 784 41
 2099 0016 0023     		movs	r3, #0
 2100 0018 BB60     		str	r3, [r7, #8]
 785:./.driver/STM32F10x_StdPeriph_Driver/src/stm32f10x_fsmc.c ****   
 786:./.driver/STM32F10x_StdPeriph_Driver/src/stm32f10x_fsmc.c ****   /* Check the parameters */
 787:./.driver/STM32F10x_StdPeriph_Driver/src/stm32f10x_fsmc.c ****   assert_param(IS_FSMC_IT_BANK(FSMC_Bank));
ARM GAS  C:\Users\SAMEER~1.ALM\AppData\Local\Temp\ccWED5M3.s 			page 53


 788:./.driver/STM32F10x_StdPeriph_Driver/src/stm32f10x_fsmc.c ****   assert_param(IS_FSMC_GET_IT(FSMC_IT));
 789:./.driver/STM32F10x_StdPeriph_Driver/src/stm32f10x_fsmc.c ****   
 790:./.driver/STM32F10x_StdPeriph_Driver/src/stm32f10x_fsmc.c ****   if(FSMC_Bank == FSMC_Bank2_NAND)
 2101              		.loc 1 790 5
 2102 001a 7B68     		ldr	r3, [r7, #4]
 2103 001c 102B     		cmp	r3, #16
 2104 001e 03D1     		bne	.L95
 791:./.driver/STM32F10x_StdPeriph_Driver/src/stm32f10x_fsmc.c ****   {
 792:./.driver/STM32F10x_StdPeriph_Driver/src/stm32f10x_fsmc.c ****     tmpsr = FSMC_Bank2->SR2;
 2105              		.loc 1 792 23
 2106 0020 144B     		ldr	r3, .L101
 2107              		.loc 1 792 11
 2108 0022 5B68     		ldr	r3, [r3, #4]
 2109 0024 3B61     		str	r3, [r7, #16]
 2110 0026 0AE0     		b	.L96
 2111              	.L95:
 793:./.driver/STM32F10x_StdPeriph_Driver/src/stm32f10x_fsmc.c ****   }  
 794:./.driver/STM32F10x_StdPeriph_Driver/src/stm32f10x_fsmc.c ****   else if(FSMC_Bank == FSMC_Bank3_NAND)
 2112              		.loc 1 794 10
 2113 0028 7B68     		ldr	r3, [r7, #4]
 2114 002a B3F5807F 		cmp	r3, #256
 2115 002e 03D1     		bne	.L97
 795:./.driver/STM32F10x_StdPeriph_Driver/src/stm32f10x_fsmc.c ****   {
 796:./.driver/STM32F10x_StdPeriph_Driver/src/stm32f10x_fsmc.c ****     tmpsr = FSMC_Bank3->SR3;
 2116              		.loc 1 796 23
 2117 0030 114B     		ldr	r3, .L101+4
 2118              		.loc 1 796 11
 2119 0032 5B68     		ldr	r3, [r3, #4]
 2120 0034 3B61     		str	r3, [r7, #16]
 2121 0036 02E0     		b	.L96
 2122              	.L97:
 797:./.driver/STM32F10x_StdPeriph_Driver/src/stm32f10x_fsmc.c ****   }
 798:./.driver/STM32F10x_StdPeriph_Driver/src/stm32f10x_fsmc.c ****   /* FSMC_Bank4_PCCARD*/
 799:./.driver/STM32F10x_StdPeriph_Driver/src/stm32f10x_fsmc.c ****   else
 800:./.driver/STM32F10x_StdPeriph_Driver/src/stm32f10x_fsmc.c ****   {
 801:./.driver/STM32F10x_StdPeriph_Driver/src/stm32f10x_fsmc.c ****     tmpsr = FSMC_Bank4->SR4;
 2123              		.loc 1 801 23
 2124 0038 104B     		ldr	r3, .L101+8
 2125              		.loc 1 801 11
 2126 003a 5B68     		ldr	r3, [r3, #4]
 2127 003c 3B61     		str	r3, [r7, #16]
 2128              	.L96:
 802:./.driver/STM32F10x_StdPeriph_Driver/src/stm32f10x_fsmc.c ****   } 
 803:./.driver/STM32F10x_StdPeriph_Driver/src/stm32f10x_fsmc.c ****   
 804:./.driver/STM32F10x_StdPeriph_Driver/src/stm32f10x_fsmc.c ****   itstatus = tmpsr & FSMC_IT;
 2129              		.loc 1 804 12
 2130 003e 3A69     		ldr	r2, [r7, #16]
 2131 0040 3B68     		ldr	r3, [r7]
 2132 0042 1340     		ands	r3, r3, r2
 2133 0044 FB60     		str	r3, [r7, #12]
 805:./.driver/STM32F10x_StdPeriph_Driver/src/stm32f10x_fsmc.c ****   
 806:./.driver/STM32F10x_StdPeriph_Driver/src/stm32f10x_fsmc.c ****   itenable = tmpsr & (FSMC_IT >> 3);
 2134              		.loc 1 806 31
 2135 0046 3B68     		ldr	r3, [r7]
 2136 0048 DB08     		lsrs	r3, r3, #3
 2137              		.loc 1 806 12
 2138 004a 3A69     		ldr	r2, [r7, #16]
ARM GAS  C:\Users\SAMEER~1.ALM\AppData\Local\Temp\ccWED5M3.s 			page 54


 2139 004c 1340     		ands	r3, r3, r2
 2140 004e BB60     		str	r3, [r7, #8]
 807:./.driver/STM32F10x_StdPeriph_Driver/src/stm32f10x_fsmc.c ****   if ((itstatus != (uint32_t)RESET)  && (itenable != (uint32_t)RESET))
 2141              		.loc 1 807 6
 2142 0050 FB68     		ldr	r3, [r7, #12]
 2143 0052 002B     		cmp	r3, #0
 2144 0054 05D0     		beq	.L98
 2145              		.loc 1 807 38 discriminator 1
 2146 0056 BB68     		ldr	r3, [r7, #8]
 2147 0058 002B     		cmp	r3, #0
 2148 005a 02D0     		beq	.L98
 808:./.driver/STM32F10x_StdPeriph_Driver/src/stm32f10x_fsmc.c ****   {
 809:./.driver/STM32F10x_StdPeriph_Driver/src/stm32f10x_fsmc.c ****     bitstatus = SET;
 2149              		.loc 1 809 15
 2150 005c 0123     		movs	r3, #1
 2151 005e FB75     		strb	r3, [r7, #23]
 2152 0060 01E0     		b	.L99
 2153              	.L98:
 810:./.driver/STM32F10x_StdPeriph_Driver/src/stm32f10x_fsmc.c ****   }
 811:./.driver/STM32F10x_StdPeriph_Driver/src/stm32f10x_fsmc.c ****   else
 812:./.driver/STM32F10x_StdPeriph_Driver/src/stm32f10x_fsmc.c ****   {
 813:./.driver/STM32F10x_StdPeriph_Driver/src/stm32f10x_fsmc.c ****     bitstatus = RESET;
 2154              		.loc 1 813 15
 2155 0062 0023     		movs	r3, #0
 2156 0064 FB75     		strb	r3, [r7, #23]
 2157              	.L99:
 814:./.driver/STM32F10x_StdPeriph_Driver/src/stm32f10x_fsmc.c ****   }
 815:./.driver/STM32F10x_StdPeriph_Driver/src/stm32f10x_fsmc.c ****   return bitstatus; 
 2158              		.loc 1 815 10
 2159 0066 FB7D     		ldrb	r3, [r7, #23]	@ zero_extendqisi2
 816:./.driver/STM32F10x_StdPeriph_Driver/src/stm32f10x_fsmc.c **** }
 2160              		.loc 1 816 1
 2161 0068 1846     		mov	r0, r3
 2162 006a 1C37     		adds	r7, r7, #28
 2163              	.LCFI103:
 2164              		.cfi_def_cfa_offset 4
 2165 006c BD46     		mov	sp, r7
 2166              	.LCFI104:
 2167              		.cfi_def_cfa_register 13
 2168              		@ sp needed
 2169 006e 80BC     		pop	{r7}
 2170              	.LCFI105:
 2171              		.cfi_restore 7
 2172              		.cfi_def_cfa_offset 0
 2173 0070 7047     		bx	lr
 2174              	.L102:
 2175 0072 00BF     		.align	2
 2176              	.L101:
 2177 0074 600000A0 		.word	-1610612640
 2178 0078 800000A0 		.word	-1610612608
 2179 007c A00000A0 		.word	-1610612576
 2180              		.cfi_endproc
 2181              	.LFE46:
 2183              		.section	.text.FSMC_ClearITPendingBit,"ax",%progbits
 2184              		.align	1
 2185              		.global	FSMC_ClearITPendingBit
 2186              		.syntax unified
ARM GAS  C:\Users\SAMEER~1.ALM\AppData\Local\Temp\ccWED5M3.s 			page 55


 2187              		.thumb
 2188              		.thumb_func
 2190              	FSMC_ClearITPendingBit:
 2191              	.LFB47:
 817:./.driver/STM32F10x_StdPeriph_Driver/src/stm32f10x_fsmc.c **** 
 818:./.driver/STM32F10x_StdPeriph_Driver/src/stm32f10x_fsmc.c **** /**
 819:./.driver/STM32F10x_StdPeriph_Driver/src/stm32f10x_fsmc.c ****   * @brief  Clears the FSMC's interrupt pending bits.
 820:./.driver/STM32F10x_StdPeriph_Driver/src/stm32f10x_fsmc.c ****   * @param  FSMC_Bank: specifies the FSMC Bank to be used
 821:./.driver/STM32F10x_StdPeriph_Driver/src/stm32f10x_fsmc.c ****   *   This parameter can be one of the following values:
 822:./.driver/STM32F10x_StdPeriph_Driver/src/stm32f10x_fsmc.c ****   *     @arg FSMC_Bank2_NAND: FSMC Bank2 NAND 
 823:./.driver/STM32F10x_StdPeriph_Driver/src/stm32f10x_fsmc.c ****   *     @arg FSMC_Bank3_NAND: FSMC Bank3 NAND
 824:./.driver/STM32F10x_StdPeriph_Driver/src/stm32f10x_fsmc.c ****   *     @arg FSMC_Bank4_PCCARD: FSMC Bank4 PCCARD
 825:./.driver/STM32F10x_StdPeriph_Driver/src/stm32f10x_fsmc.c ****   * @param  FSMC_IT: specifies the interrupt pending bit to clear.
 826:./.driver/STM32F10x_StdPeriph_Driver/src/stm32f10x_fsmc.c ****   *   This parameter can be any combination of the following values:
 827:./.driver/STM32F10x_StdPeriph_Driver/src/stm32f10x_fsmc.c ****   *     @arg FSMC_IT_RisingEdge: Rising edge detection interrupt. 
 828:./.driver/STM32F10x_StdPeriph_Driver/src/stm32f10x_fsmc.c ****   *     @arg FSMC_IT_Level: Level edge detection interrupt.
 829:./.driver/STM32F10x_StdPeriph_Driver/src/stm32f10x_fsmc.c ****   *     @arg FSMC_IT_FallingEdge: Falling edge detection interrupt.
 830:./.driver/STM32F10x_StdPeriph_Driver/src/stm32f10x_fsmc.c ****   * @retval None
 831:./.driver/STM32F10x_StdPeriph_Driver/src/stm32f10x_fsmc.c ****   */
 832:./.driver/STM32F10x_StdPeriph_Driver/src/stm32f10x_fsmc.c **** void FSMC_ClearITPendingBit(uint32_t FSMC_Bank, uint32_t FSMC_IT)
 833:./.driver/STM32F10x_StdPeriph_Driver/src/stm32f10x_fsmc.c **** {
 2192              		.loc 1 833 1
 2193              		.cfi_startproc
 2194              		@ args = 0, pretend = 0, frame = 8
 2195              		@ frame_needed = 1, uses_anonymous_args = 0
 2196              		@ link register save eliminated.
 2197 0000 80B4     		push	{r7}
 2198              	.LCFI106:
 2199              		.cfi_def_cfa_offset 4
 2200              		.cfi_offset 7, -4
 2201 0002 83B0     		sub	sp, sp, #12
 2202              	.LCFI107:
 2203              		.cfi_def_cfa_offset 16
 2204 0004 00AF     		add	r7, sp, #0
 2205              	.LCFI108:
 2206              		.cfi_def_cfa_register 7
 2207 0006 7860     		str	r0, [r7, #4]
 2208 0008 3960     		str	r1, [r7]
 834:./.driver/STM32F10x_StdPeriph_Driver/src/stm32f10x_fsmc.c ****   /* Check the parameters */
 835:./.driver/STM32F10x_StdPeriph_Driver/src/stm32f10x_fsmc.c ****   assert_param(IS_FSMC_IT_BANK(FSMC_Bank));
 836:./.driver/STM32F10x_StdPeriph_Driver/src/stm32f10x_fsmc.c ****   assert_param(IS_FSMC_IT(FSMC_IT));
 837:./.driver/STM32F10x_StdPeriph_Driver/src/stm32f10x_fsmc.c ****     
 838:./.driver/STM32F10x_StdPeriph_Driver/src/stm32f10x_fsmc.c ****   if(FSMC_Bank == FSMC_Bank2_NAND)
 2209              		.loc 1 838 5
 2210 000a 7B68     		ldr	r3, [r7, #4]
 2211 000c 102B     		cmp	r3, #16
 2212 000e 08D1     		bne	.L104
 839:./.driver/STM32F10x_StdPeriph_Driver/src/stm32f10x_fsmc.c ****   {
 840:./.driver/STM32F10x_StdPeriph_Driver/src/stm32f10x_fsmc.c ****     FSMC_Bank2->SR2 &= ~(FSMC_IT >> 3); 
 2213              		.loc 1 840 21
 2214 0010 114B     		ldr	r3, .L108
 2215 0012 5A68     		ldr	r2, [r3, #4]
 2216              		.loc 1 840 34
 2217 0014 3B68     		ldr	r3, [r7]
 2218 0016 DB08     		lsrs	r3, r3, #3
 2219              		.loc 1 840 24
 2220 0018 DB43     		mvns	r3, r3
ARM GAS  C:\Users\SAMEER~1.ALM\AppData\Local\Temp\ccWED5M3.s 			page 56


 2221              		.loc 1 840 21
 2222 001a 0F49     		ldr	r1, .L108
 2223 001c 1340     		ands	r3, r3, r2
 2224 001e 4B60     		str	r3, [r1, #4]
 841:./.driver/STM32F10x_StdPeriph_Driver/src/stm32f10x_fsmc.c ****   }  
 842:./.driver/STM32F10x_StdPeriph_Driver/src/stm32f10x_fsmc.c ****   else if(FSMC_Bank == FSMC_Bank3_NAND)
 843:./.driver/STM32F10x_StdPeriph_Driver/src/stm32f10x_fsmc.c ****   {
 844:./.driver/STM32F10x_StdPeriph_Driver/src/stm32f10x_fsmc.c ****     FSMC_Bank3->SR3 &= ~(FSMC_IT >> 3);
 845:./.driver/STM32F10x_StdPeriph_Driver/src/stm32f10x_fsmc.c ****   }
 846:./.driver/STM32F10x_StdPeriph_Driver/src/stm32f10x_fsmc.c ****   /* FSMC_Bank4_PCCARD*/
 847:./.driver/STM32F10x_StdPeriph_Driver/src/stm32f10x_fsmc.c ****   else
 848:./.driver/STM32F10x_StdPeriph_Driver/src/stm32f10x_fsmc.c ****   {
 849:./.driver/STM32F10x_StdPeriph_Driver/src/stm32f10x_fsmc.c ****     FSMC_Bank4->SR4 &= ~(FSMC_IT >> 3);
 850:./.driver/STM32F10x_StdPeriph_Driver/src/stm32f10x_fsmc.c ****   }
 851:./.driver/STM32F10x_StdPeriph_Driver/src/stm32f10x_fsmc.c **** }
 2225              		.loc 1 851 1
 2226 0020 14E0     		b	.L107
 2227              	.L104:
 842:./.driver/STM32F10x_StdPeriph_Driver/src/stm32f10x_fsmc.c ****   {
 2228              		.loc 1 842 10
 2229 0022 7B68     		ldr	r3, [r7, #4]
 2230 0024 B3F5807F 		cmp	r3, #256
 2231 0028 08D1     		bne	.L106
 844:./.driver/STM32F10x_StdPeriph_Driver/src/stm32f10x_fsmc.c ****   }
 2232              		.loc 1 844 21
 2233 002a 0C4B     		ldr	r3, .L108+4
 2234 002c 5A68     		ldr	r2, [r3, #4]
 844:./.driver/STM32F10x_StdPeriph_Driver/src/stm32f10x_fsmc.c ****   }
 2235              		.loc 1 844 34
 2236 002e 3B68     		ldr	r3, [r7]
 2237 0030 DB08     		lsrs	r3, r3, #3
 844:./.driver/STM32F10x_StdPeriph_Driver/src/stm32f10x_fsmc.c ****   }
 2238              		.loc 1 844 24
 2239 0032 DB43     		mvns	r3, r3
 844:./.driver/STM32F10x_StdPeriph_Driver/src/stm32f10x_fsmc.c ****   }
 2240              		.loc 1 844 21
 2241 0034 0949     		ldr	r1, .L108+4
 2242 0036 1340     		ands	r3, r3, r2
 2243 0038 4B60     		str	r3, [r1, #4]
 2244              		.loc 1 851 1
 2245 003a 07E0     		b	.L107
 2246              	.L106:
 849:./.driver/STM32F10x_StdPeriph_Driver/src/stm32f10x_fsmc.c ****   }
 2247              		.loc 1 849 21
 2248 003c 084B     		ldr	r3, .L108+8
 2249 003e 5A68     		ldr	r2, [r3, #4]
 849:./.driver/STM32F10x_StdPeriph_Driver/src/stm32f10x_fsmc.c ****   }
 2250              		.loc 1 849 34
 2251 0040 3B68     		ldr	r3, [r7]
 2252 0042 DB08     		lsrs	r3, r3, #3
 849:./.driver/STM32F10x_StdPeriph_Driver/src/stm32f10x_fsmc.c ****   }
 2253              		.loc 1 849 24
 2254 0044 DB43     		mvns	r3, r3
 849:./.driver/STM32F10x_StdPeriph_Driver/src/stm32f10x_fsmc.c ****   }
 2255              		.loc 1 849 21
 2256 0046 0649     		ldr	r1, .L108+8
 2257 0048 1340     		ands	r3, r3, r2
ARM GAS  C:\Users\SAMEER~1.ALM\AppData\Local\Temp\ccWED5M3.s 			page 57


 2258 004a 4B60     		str	r3, [r1, #4]
 2259              	.L107:
 2260              		.loc 1 851 1
 2261 004c 00BF     		nop
 2262 004e 0C37     		adds	r7, r7, #12
 2263              	.LCFI109:
 2264              		.cfi_def_cfa_offset 4
 2265 0050 BD46     		mov	sp, r7
 2266              	.LCFI110:
 2267              		.cfi_def_cfa_register 13
 2268              		@ sp needed
 2269 0052 80BC     		pop	{r7}
 2270              	.LCFI111:
 2271              		.cfi_restore 7
 2272              		.cfi_def_cfa_offset 0
 2273 0054 7047     		bx	lr
 2274              	.L109:
 2275 0056 00BF     		.align	2
 2276              	.L108:
 2277 0058 600000A0 		.word	-1610612640
 2278 005c 800000A0 		.word	-1610612608
 2279 0060 A00000A0 		.word	-1610612576
 2280              		.cfi_endproc
 2281              	.LFE47:
 2283              		.text
 2284              	.Letext0:
 2285              		.file 2 "c:\\arm-tool\\gcc-arm-none-eabi-10.3-2021.10\\arm-none-eabi\\include\\machine\\_default_t
 2286              		.file 3 "c:\\arm-tool\\gcc-arm-none-eabi-10.3-2021.10\\arm-none-eabi\\include\\sys\\_stdint.h"
 2287              		.file 4 "./.driver/CMSIS/Device/STM32F10x/stm32f10x.h"
 2288              		.file 5 "./.driver/STM32F10x_StdPeriph_Driver/inc/stm32f10x_fsmc.h"
ARM GAS  C:\Users\SAMEER~1.ALM\AppData\Local\Temp\ccWED5M3.s 			page 58

