ARM GAS  C:\Users\SAMEER~1.ALM\AppData\Local\Temp\ccHlwM6h.s 			page 1


   1              		.cpu cortex-m3
   2              		.arch armv7-m
   3              		.fpu softvfp
   4              		.eabi_attribute 20, 1
   5              		.eabi_attribute 21, 1
   6              		.eabi_attribute 23, 3
   7              		.eabi_attribute 24, 1
   8              		.eabi_attribute 25, 1
   9              		.eabi_attribute 26, 1
  10              		.eabi_attribute 30, 6
  11              		.eabi_attribute 34, 1
  12              		.eabi_attribute 18, 4
  13              		.file	"stm32f10x_exti.c"
  14              		.text
  15              	.Ltext0:
  16              		.cfi_sections	.debug_frame
  17              		.section	.text.EXTI_DeInit,"ax",%progbits
  18              		.align	1
  19              		.global	EXTI_DeInit
  20              		.syntax unified
  21              		.thumb
  22              		.thumb_func
  24              	EXTI_DeInit:
  25              	.LFB29:
  26              		.file 1 "./.driver/STM32F10x_StdPeriph_Driver/src/stm32f10x_exti.c"
   1:./.driver/STM32F10x_StdPeriph_Driver/src/stm32f10x_exti.c **** /**
   2:./.driver/STM32F10x_StdPeriph_Driver/src/stm32f10x_exti.c ****   ******************************************************************************
   3:./.driver/STM32F10x_StdPeriph_Driver/src/stm32f10x_exti.c ****   * @file    stm32f10x_exti.c
   4:./.driver/STM32F10x_StdPeriph_Driver/src/stm32f10x_exti.c ****   * @author  MCD Application Team
   5:./.driver/STM32F10x_StdPeriph_Driver/src/stm32f10x_exti.c ****   * @version V3.6.2
   6:./.driver/STM32F10x_StdPeriph_Driver/src/stm32f10x_exti.c ****   * @date    17-September-2021
   7:./.driver/STM32F10x_StdPeriph_Driver/src/stm32f10x_exti.c ****   * @brief   This file provides all the EXTI firmware functions.
   8:./.driver/STM32F10x_StdPeriph_Driver/src/stm32f10x_exti.c ****   ******************************************************************************
   9:./.driver/STM32F10x_StdPeriph_Driver/src/stm32f10x_exti.c ****   * @attention
  10:./.driver/STM32F10x_StdPeriph_Driver/src/stm32f10x_exti.c ****   *
  11:./.driver/STM32F10x_StdPeriph_Driver/src/stm32f10x_exti.c ****   * Copyright (c) 2012 STMicroelectronics.
  12:./.driver/STM32F10x_StdPeriph_Driver/src/stm32f10x_exti.c ****   * All rights reserved.
  13:./.driver/STM32F10x_StdPeriph_Driver/src/stm32f10x_exti.c ****   *
  14:./.driver/STM32F10x_StdPeriph_Driver/src/stm32f10x_exti.c ****   * This software is licensed under terms that can be found in the LICENSE file
  15:./.driver/STM32F10x_StdPeriph_Driver/src/stm32f10x_exti.c ****   * in the root directory of this software component.
  16:./.driver/STM32F10x_StdPeriph_Driver/src/stm32f10x_exti.c ****   * If no LICENSE file comes with this software, it is provided AS-IS.
  17:./.driver/STM32F10x_StdPeriph_Driver/src/stm32f10x_exti.c ****   *
  18:./.driver/STM32F10x_StdPeriph_Driver/src/stm32f10x_exti.c ****   ******************************************************************************
  19:./.driver/STM32F10x_StdPeriph_Driver/src/stm32f10x_exti.c ****   */
  20:./.driver/STM32F10x_StdPeriph_Driver/src/stm32f10x_exti.c **** 
  21:./.driver/STM32F10x_StdPeriph_Driver/src/stm32f10x_exti.c **** /* Includes ------------------------------------------------------------------*/
  22:./.driver/STM32F10x_StdPeriph_Driver/src/stm32f10x_exti.c **** #include "stm32f10x_exti.h"
  23:./.driver/STM32F10x_StdPeriph_Driver/src/stm32f10x_exti.c **** 
  24:./.driver/STM32F10x_StdPeriph_Driver/src/stm32f10x_exti.c **** /** @addtogroup STM32F10x_StdPeriph_Driver
  25:./.driver/STM32F10x_StdPeriph_Driver/src/stm32f10x_exti.c ****   * @{
  26:./.driver/STM32F10x_StdPeriph_Driver/src/stm32f10x_exti.c ****   */
  27:./.driver/STM32F10x_StdPeriph_Driver/src/stm32f10x_exti.c **** 
  28:./.driver/STM32F10x_StdPeriph_Driver/src/stm32f10x_exti.c **** /** @defgroup EXTI 
  29:./.driver/STM32F10x_StdPeriph_Driver/src/stm32f10x_exti.c ****   * @brief EXTI driver modules
  30:./.driver/STM32F10x_StdPeriph_Driver/src/stm32f10x_exti.c ****   * @{
  31:./.driver/STM32F10x_StdPeriph_Driver/src/stm32f10x_exti.c ****   */
  32:./.driver/STM32F10x_StdPeriph_Driver/src/stm32f10x_exti.c **** 
ARM GAS  C:\Users\SAMEER~1.ALM\AppData\Local\Temp\ccHlwM6h.s 			page 2


  33:./.driver/STM32F10x_StdPeriph_Driver/src/stm32f10x_exti.c **** /** @defgroup EXTI_Private_TypesDefinitions
  34:./.driver/STM32F10x_StdPeriph_Driver/src/stm32f10x_exti.c ****   * @{
  35:./.driver/STM32F10x_StdPeriph_Driver/src/stm32f10x_exti.c ****   */
  36:./.driver/STM32F10x_StdPeriph_Driver/src/stm32f10x_exti.c **** 
  37:./.driver/STM32F10x_StdPeriph_Driver/src/stm32f10x_exti.c **** /**
  38:./.driver/STM32F10x_StdPeriph_Driver/src/stm32f10x_exti.c ****   * @}
  39:./.driver/STM32F10x_StdPeriph_Driver/src/stm32f10x_exti.c ****   */
  40:./.driver/STM32F10x_StdPeriph_Driver/src/stm32f10x_exti.c **** 
  41:./.driver/STM32F10x_StdPeriph_Driver/src/stm32f10x_exti.c **** /** @defgroup EXTI_Private_Defines
  42:./.driver/STM32F10x_StdPeriph_Driver/src/stm32f10x_exti.c ****   * @{
  43:./.driver/STM32F10x_StdPeriph_Driver/src/stm32f10x_exti.c ****   */
  44:./.driver/STM32F10x_StdPeriph_Driver/src/stm32f10x_exti.c **** 
  45:./.driver/STM32F10x_StdPeriph_Driver/src/stm32f10x_exti.c **** #define EXTI_LINENONE    ((uint32_t)0x00000)  /* No interrupt selected */
  46:./.driver/STM32F10x_StdPeriph_Driver/src/stm32f10x_exti.c **** 
  47:./.driver/STM32F10x_StdPeriph_Driver/src/stm32f10x_exti.c **** /**
  48:./.driver/STM32F10x_StdPeriph_Driver/src/stm32f10x_exti.c ****   * @}
  49:./.driver/STM32F10x_StdPeriph_Driver/src/stm32f10x_exti.c ****   */
  50:./.driver/STM32F10x_StdPeriph_Driver/src/stm32f10x_exti.c **** 
  51:./.driver/STM32F10x_StdPeriph_Driver/src/stm32f10x_exti.c **** /** @defgroup EXTI_Private_Macros
  52:./.driver/STM32F10x_StdPeriph_Driver/src/stm32f10x_exti.c ****   * @{
  53:./.driver/STM32F10x_StdPeriph_Driver/src/stm32f10x_exti.c ****   */
  54:./.driver/STM32F10x_StdPeriph_Driver/src/stm32f10x_exti.c **** 
  55:./.driver/STM32F10x_StdPeriph_Driver/src/stm32f10x_exti.c **** /**
  56:./.driver/STM32F10x_StdPeriph_Driver/src/stm32f10x_exti.c ****   * @}
  57:./.driver/STM32F10x_StdPeriph_Driver/src/stm32f10x_exti.c ****   */
  58:./.driver/STM32F10x_StdPeriph_Driver/src/stm32f10x_exti.c **** 
  59:./.driver/STM32F10x_StdPeriph_Driver/src/stm32f10x_exti.c **** /** @defgroup EXTI_Private_Variables
  60:./.driver/STM32F10x_StdPeriph_Driver/src/stm32f10x_exti.c ****   * @{
  61:./.driver/STM32F10x_StdPeriph_Driver/src/stm32f10x_exti.c ****   */
  62:./.driver/STM32F10x_StdPeriph_Driver/src/stm32f10x_exti.c **** 
  63:./.driver/STM32F10x_StdPeriph_Driver/src/stm32f10x_exti.c **** /**
  64:./.driver/STM32F10x_StdPeriph_Driver/src/stm32f10x_exti.c ****   * @}
  65:./.driver/STM32F10x_StdPeriph_Driver/src/stm32f10x_exti.c ****   */
  66:./.driver/STM32F10x_StdPeriph_Driver/src/stm32f10x_exti.c **** 
  67:./.driver/STM32F10x_StdPeriph_Driver/src/stm32f10x_exti.c **** /** @defgroup EXTI_Private_FunctionPrototypes
  68:./.driver/STM32F10x_StdPeriph_Driver/src/stm32f10x_exti.c ****   * @{
  69:./.driver/STM32F10x_StdPeriph_Driver/src/stm32f10x_exti.c ****   */
  70:./.driver/STM32F10x_StdPeriph_Driver/src/stm32f10x_exti.c **** 
  71:./.driver/STM32F10x_StdPeriph_Driver/src/stm32f10x_exti.c **** /**
  72:./.driver/STM32F10x_StdPeriph_Driver/src/stm32f10x_exti.c ****   * @}
  73:./.driver/STM32F10x_StdPeriph_Driver/src/stm32f10x_exti.c ****   */
  74:./.driver/STM32F10x_StdPeriph_Driver/src/stm32f10x_exti.c **** 
  75:./.driver/STM32F10x_StdPeriph_Driver/src/stm32f10x_exti.c **** /** @defgroup EXTI_Private_Functions
  76:./.driver/STM32F10x_StdPeriph_Driver/src/stm32f10x_exti.c ****   * @{
  77:./.driver/STM32F10x_StdPeriph_Driver/src/stm32f10x_exti.c ****   */
  78:./.driver/STM32F10x_StdPeriph_Driver/src/stm32f10x_exti.c **** 
  79:./.driver/STM32F10x_StdPeriph_Driver/src/stm32f10x_exti.c **** /**
  80:./.driver/STM32F10x_StdPeriph_Driver/src/stm32f10x_exti.c ****   * @brief  Deinitializes the EXTI peripheral registers to their default reset values.
  81:./.driver/STM32F10x_StdPeriph_Driver/src/stm32f10x_exti.c ****   * @param  None
  82:./.driver/STM32F10x_StdPeriph_Driver/src/stm32f10x_exti.c ****   * @retval None
  83:./.driver/STM32F10x_StdPeriph_Driver/src/stm32f10x_exti.c ****   */
  84:./.driver/STM32F10x_StdPeriph_Driver/src/stm32f10x_exti.c **** void EXTI_DeInit(void)
  85:./.driver/STM32F10x_StdPeriph_Driver/src/stm32f10x_exti.c **** {
  27              		.loc 1 85 1
  28              		.cfi_startproc
  29              		@ args = 0, pretend = 0, frame = 0
  30              		@ frame_needed = 1, uses_anonymous_args = 0
ARM GAS  C:\Users\SAMEER~1.ALM\AppData\Local\Temp\ccHlwM6h.s 			page 3


  31              		@ link register save eliminated.
  32 0000 80B4     		push	{r7}
  33              	.LCFI0:
  34              		.cfi_def_cfa_offset 4
  35              		.cfi_offset 7, -4
  36 0002 00AF     		add	r7, sp, #0
  37              	.LCFI1:
  38              		.cfi_def_cfa_register 7
  86:./.driver/STM32F10x_StdPeriph_Driver/src/stm32f10x_exti.c ****   EXTI->IMR = 0x00000000;
  39              		.loc 1 86 7
  40 0004 094B     		ldr	r3, .L2
  41              		.loc 1 86 13
  42 0006 0022     		movs	r2, #0
  43 0008 1A60     		str	r2, [r3]
  87:./.driver/STM32F10x_StdPeriph_Driver/src/stm32f10x_exti.c ****   EXTI->EMR = 0x00000000;
  44              		.loc 1 87 7
  45 000a 084B     		ldr	r3, .L2
  46              		.loc 1 87 13
  47 000c 0022     		movs	r2, #0
  48 000e 5A60     		str	r2, [r3, #4]
  88:./.driver/STM32F10x_StdPeriph_Driver/src/stm32f10x_exti.c ****   EXTI->RTSR = 0x00000000; 
  49              		.loc 1 88 7
  50 0010 064B     		ldr	r3, .L2
  51              		.loc 1 88 14
  52 0012 0022     		movs	r2, #0
  53 0014 9A60     		str	r2, [r3, #8]
  89:./.driver/STM32F10x_StdPeriph_Driver/src/stm32f10x_exti.c ****   EXTI->FTSR = 0x00000000; 
  54              		.loc 1 89 7
  55 0016 054B     		ldr	r3, .L2
  56              		.loc 1 89 14
  57 0018 0022     		movs	r2, #0
  58 001a DA60     		str	r2, [r3, #12]
  90:./.driver/STM32F10x_StdPeriph_Driver/src/stm32f10x_exti.c ****   EXTI->PR = 0x000FFFFF;
  59              		.loc 1 90 7
  60 001c 034B     		ldr	r3, .L2
  61              		.loc 1 90 12
  62 001e 044A     		ldr	r2, .L2+4
  63 0020 5A61     		str	r2, [r3, #20]
  91:./.driver/STM32F10x_StdPeriph_Driver/src/stm32f10x_exti.c **** }
  64              		.loc 1 91 1
  65 0022 00BF     		nop
  66 0024 BD46     		mov	sp, r7
  67              	.LCFI2:
  68              		.cfi_def_cfa_register 13
  69              		@ sp needed
  70 0026 80BC     		pop	{r7}
  71              	.LCFI3:
  72              		.cfi_restore 7
  73              		.cfi_def_cfa_offset 0
  74 0028 7047     		bx	lr
  75              	.L3:
  76 002a 00BF     		.align	2
  77              	.L2:
  78 002c 00040140 		.word	1073808384
  79 0030 FFFF0F00 		.word	1048575
  80              		.cfi_endproc
  81              	.LFE29:
ARM GAS  C:\Users\SAMEER~1.ALM\AppData\Local\Temp\ccHlwM6h.s 			page 4


  83              		.section	.text.EXTI_Init,"ax",%progbits
  84              		.align	1
  85              		.global	EXTI_Init
  86              		.syntax unified
  87              		.thumb
  88              		.thumb_func
  90              	EXTI_Init:
  91              	.LFB30:
  92:./.driver/STM32F10x_StdPeriph_Driver/src/stm32f10x_exti.c **** 
  93:./.driver/STM32F10x_StdPeriph_Driver/src/stm32f10x_exti.c **** /**
  94:./.driver/STM32F10x_StdPeriph_Driver/src/stm32f10x_exti.c ****   * @brief  Initializes the EXTI peripheral according to the specified
  95:./.driver/STM32F10x_StdPeriph_Driver/src/stm32f10x_exti.c ****   *         parameters in the EXTI_InitStruct.
  96:./.driver/STM32F10x_StdPeriph_Driver/src/stm32f10x_exti.c ****   * @param  EXTI_InitStruct: pointer to a EXTI_InitTypeDef structure
  97:./.driver/STM32F10x_StdPeriph_Driver/src/stm32f10x_exti.c ****   *         that contains the configuration information for the EXTI peripheral.
  98:./.driver/STM32F10x_StdPeriph_Driver/src/stm32f10x_exti.c ****   * @retval None
  99:./.driver/STM32F10x_StdPeriph_Driver/src/stm32f10x_exti.c ****   */
 100:./.driver/STM32F10x_StdPeriph_Driver/src/stm32f10x_exti.c **** void EXTI_Init(EXTI_InitTypeDef* EXTI_InitStruct)
 101:./.driver/STM32F10x_StdPeriph_Driver/src/stm32f10x_exti.c **** {
  92              		.loc 1 101 1
  93              		.cfi_startproc
  94              		@ args = 0, pretend = 0, frame = 16
  95              		@ frame_needed = 1, uses_anonymous_args = 0
  96              		@ link register save eliminated.
  97 0000 80B4     		push	{r7}
  98              	.LCFI4:
  99              		.cfi_def_cfa_offset 4
 100              		.cfi_offset 7, -4
 101 0002 85B0     		sub	sp, sp, #20
 102              	.LCFI5:
 103              		.cfi_def_cfa_offset 24
 104 0004 00AF     		add	r7, sp, #0
 105              	.LCFI6:
 106              		.cfi_def_cfa_register 7
 107 0006 7860     		str	r0, [r7, #4]
 102:./.driver/STM32F10x_StdPeriph_Driver/src/stm32f10x_exti.c ****   uint32_t tmp = 0;
 108              		.loc 1 102 12
 109 0008 0023     		movs	r3, #0
 110 000a FB60     		str	r3, [r7, #12]
 103:./.driver/STM32F10x_StdPeriph_Driver/src/stm32f10x_exti.c **** 
 104:./.driver/STM32F10x_StdPeriph_Driver/src/stm32f10x_exti.c ****   /* Check the parameters */
 105:./.driver/STM32F10x_StdPeriph_Driver/src/stm32f10x_exti.c ****   assert_param(IS_EXTI_MODE(EXTI_InitStruct->EXTI_Mode));
 106:./.driver/STM32F10x_StdPeriph_Driver/src/stm32f10x_exti.c ****   assert_param(IS_EXTI_TRIGGER(EXTI_InitStruct->EXTI_Trigger));
 107:./.driver/STM32F10x_StdPeriph_Driver/src/stm32f10x_exti.c ****   assert_param(IS_EXTI_LINE(EXTI_InitStruct->EXTI_Line));  
 108:./.driver/STM32F10x_StdPeriph_Driver/src/stm32f10x_exti.c ****   assert_param(IS_FUNCTIONAL_STATE(EXTI_InitStruct->EXTI_LineCmd));
 109:./.driver/STM32F10x_StdPeriph_Driver/src/stm32f10x_exti.c **** 
 110:./.driver/STM32F10x_StdPeriph_Driver/src/stm32f10x_exti.c ****   tmp = (uint32_t)EXTI_BASE;
 111              		.loc 1 110 7
 112 000c 344B     		ldr	r3, .L9
 113 000e FB60     		str	r3, [r7, #12]
 111:./.driver/STM32F10x_StdPeriph_Driver/src/stm32f10x_exti.c ****      
 112:./.driver/STM32F10x_StdPeriph_Driver/src/stm32f10x_exti.c ****   if (EXTI_InitStruct->EXTI_LineCmd != DISABLE)
 114              		.loc 1 112 22
 115 0010 7B68     		ldr	r3, [r7, #4]
 116 0012 9B79     		ldrb	r3, [r3, #6]	@ zero_extendqisi2
 117              		.loc 1 112 6
 118 0014 002B     		cmp	r3, #0
 119 0016 4FD0     		beq	.L5
ARM GAS  C:\Users\SAMEER~1.ALM\AppData\Local\Temp\ccHlwM6h.s 			page 5


 113:./.driver/STM32F10x_StdPeriph_Driver/src/stm32f10x_exti.c ****   {
 114:./.driver/STM32F10x_StdPeriph_Driver/src/stm32f10x_exti.c ****     /* Clear EXTI line configuration */
 115:./.driver/STM32F10x_StdPeriph_Driver/src/stm32f10x_exti.c ****     EXTI->IMR &= ~EXTI_InitStruct->EXTI_Line;
 120              		.loc 1 115 15
 121 0018 314B     		ldr	r3, .L9
 122 001a 1A68     		ldr	r2, [r3]
 123              		.loc 1 115 34
 124 001c 7B68     		ldr	r3, [r7, #4]
 125 001e 1B68     		ldr	r3, [r3]
 126              		.loc 1 115 18
 127 0020 DB43     		mvns	r3, r3
 128              		.loc 1 115 15
 129 0022 2F49     		ldr	r1, .L9
 130 0024 1340     		ands	r3, r3, r2
 131 0026 0B60     		str	r3, [r1]
 116:./.driver/STM32F10x_StdPeriph_Driver/src/stm32f10x_exti.c ****     EXTI->EMR &= ~EXTI_InitStruct->EXTI_Line;
 132              		.loc 1 116 15
 133 0028 2D4B     		ldr	r3, .L9
 134 002a 5A68     		ldr	r2, [r3, #4]
 135              		.loc 1 116 34
 136 002c 7B68     		ldr	r3, [r7, #4]
 137 002e 1B68     		ldr	r3, [r3]
 138              		.loc 1 116 18
 139 0030 DB43     		mvns	r3, r3
 140              		.loc 1 116 15
 141 0032 2B49     		ldr	r1, .L9
 142 0034 1340     		ands	r3, r3, r2
 143 0036 4B60     		str	r3, [r1, #4]
 117:./.driver/STM32F10x_StdPeriph_Driver/src/stm32f10x_exti.c ****     
 118:./.driver/STM32F10x_StdPeriph_Driver/src/stm32f10x_exti.c ****     tmp += EXTI_InitStruct->EXTI_Mode;
 144              		.loc 1 118 27
 145 0038 7B68     		ldr	r3, [r7, #4]
 146 003a 1B79     		ldrb	r3, [r3, #4]	@ zero_extendqisi2
 147 003c 1A46     		mov	r2, r3
 148              		.loc 1 118 9
 149 003e FB68     		ldr	r3, [r7, #12]
 150 0040 1344     		add	r3, r3, r2
 151 0042 FB60     		str	r3, [r7, #12]
 119:./.driver/STM32F10x_StdPeriph_Driver/src/stm32f10x_exti.c **** 
 120:./.driver/STM32F10x_StdPeriph_Driver/src/stm32f10x_exti.c ****     *(__IO uint32_t *) tmp |= EXTI_InitStruct->EXTI_Line;
 152              		.loc 1 120 28
 153 0044 FB68     		ldr	r3, [r7, #12]
 154 0046 1968     		ldr	r1, [r3]
 155              		.loc 1 120 46
 156 0048 7B68     		ldr	r3, [r7, #4]
 157 004a 1A68     		ldr	r2, [r3]
 158              		.loc 1 120 28
 159 004c FB68     		ldr	r3, [r7, #12]
 160 004e 0A43     		orrs	r2, r2, r1
 161 0050 1A60     		str	r2, [r3]
 121:./.driver/STM32F10x_StdPeriph_Driver/src/stm32f10x_exti.c **** 
 122:./.driver/STM32F10x_StdPeriph_Driver/src/stm32f10x_exti.c ****     /* Clear Rising Falling edge configuration */
 123:./.driver/STM32F10x_StdPeriph_Driver/src/stm32f10x_exti.c ****     EXTI->RTSR &= ~EXTI_InitStruct->EXTI_Line;
 162              		.loc 1 123 16
 163 0052 234B     		ldr	r3, .L9
 164 0054 9A68     		ldr	r2, [r3, #8]
 165              		.loc 1 123 35
ARM GAS  C:\Users\SAMEER~1.ALM\AppData\Local\Temp\ccHlwM6h.s 			page 6


 166 0056 7B68     		ldr	r3, [r7, #4]
 167 0058 1B68     		ldr	r3, [r3]
 168              		.loc 1 123 19
 169 005a DB43     		mvns	r3, r3
 170              		.loc 1 123 16
 171 005c 2049     		ldr	r1, .L9
 172 005e 1340     		ands	r3, r3, r2
 173 0060 8B60     		str	r3, [r1, #8]
 124:./.driver/STM32F10x_StdPeriph_Driver/src/stm32f10x_exti.c ****     EXTI->FTSR &= ~EXTI_InitStruct->EXTI_Line;
 174              		.loc 1 124 16
 175 0062 1F4B     		ldr	r3, .L9
 176 0064 DA68     		ldr	r2, [r3, #12]
 177              		.loc 1 124 35
 178 0066 7B68     		ldr	r3, [r7, #4]
 179 0068 1B68     		ldr	r3, [r3]
 180              		.loc 1 124 19
 181 006a DB43     		mvns	r3, r3
 182              		.loc 1 124 16
 183 006c 1C49     		ldr	r1, .L9
 184 006e 1340     		ands	r3, r3, r2
 185 0070 CB60     		str	r3, [r1, #12]
 125:./.driver/STM32F10x_StdPeriph_Driver/src/stm32f10x_exti.c ****     
 126:./.driver/STM32F10x_StdPeriph_Driver/src/stm32f10x_exti.c ****     /* Select the trigger for the selected external interrupts */
 127:./.driver/STM32F10x_StdPeriph_Driver/src/stm32f10x_exti.c ****     if (EXTI_InitStruct->EXTI_Trigger == EXTI_Trigger_Rising_Falling)
 186              		.loc 1 127 24
 187 0072 7B68     		ldr	r3, [r7, #4]
 188 0074 5B79     		ldrb	r3, [r3, #5]	@ zero_extendqisi2
 189              		.loc 1 127 8
 190 0076 102B     		cmp	r3, #16
 191 0078 0ED1     		bne	.L6
 128:./.driver/STM32F10x_StdPeriph_Driver/src/stm32f10x_exti.c ****     {
 129:./.driver/STM32F10x_StdPeriph_Driver/src/stm32f10x_exti.c ****       /* Rising Falling edge */
 130:./.driver/STM32F10x_StdPeriph_Driver/src/stm32f10x_exti.c ****       EXTI->RTSR |= EXTI_InitStruct->EXTI_Line;
 192              		.loc 1 130 18
 193 007a 194B     		ldr	r3, .L9
 194 007c 9A68     		ldr	r2, [r3, #8]
 195              		.loc 1 130 36
 196 007e 7B68     		ldr	r3, [r7, #4]
 197 0080 1B68     		ldr	r3, [r3]
 198              		.loc 1 130 18
 199 0082 1749     		ldr	r1, .L9
 200 0084 1343     		orrs	r3, r3, r2
 201 0086 8B60     		str	r3, [r1, #8]
 131:./.driver/STM32F10x_StdPeriph_Driver/src/stm32f10x_exti.c ****       EXTI->FTSR |= EXTI_InitStruct->EXTI_Line;
 202              		.loc 1 131 18
 203 0088 154B     		ldr	r3, .L9
 204 008a DA68     		ldr	r2, [r3, #12]
 205              		.loc 1 131 36
 206 008c 7B68     		ldr	r3, [r7, #4]
 207 008e 1B68     		ldr	r3, [r3]
 208              		.loc 1 131 18
 209 0090 1349     		ldr	r1, .L9
 210 0092 1343     		orrs	r3, r3, r2
 211 0094 CB60     		str	r3, [r1, #12]
 132:./.driver/STM32F10x_StdPeriph_Driver/src/stm32f10x_exti.c ****     }
 133:./.driver/STM32F10x_StdPeriph_Driver/src/stm32f10x_exti.c ****     else
 134:./.driver/STM32F10x_StdPeriph_Driver/src/stm32f10x_exti.c ****     {
ARM GAS  C:\Users\SAMEER~1.ALM\AppData\Local\Temp\ccHlwM6h.s 			page 7


 135:./.driver/STM32F10x_StdPeriph_Driver/src/stm32f10x_exti.c ****       tmp = (uint32_t)EXTI_BASE;
 136:./.driver/STM32F10x_StdPeriph_Driver/src/stm32f10x_exti.c ****       tmp += EXTI_InitStruct->EXTI_Trigger;
 137:./.driver/STM32F10x_StdPeriph_Driver/src/stm32f10x_exti.c **** 
 138:./.driver/STM32F10x_StdPeriph_Driver/src/stm32f10x_exti.c ****       *(__IO uint32_t *) tmp |= EXTI_InitStruct->EXTI_Line;
 139:./.driver/STM32F10x_StdPeriph_Driver/src/stm32f10x_exti.c ****     }
 140:./.driver/STM32F10x_StdPeriph_Driver/src/stm32f10x_exti.c ****   }
 141:./.driver/STM32F10x_StdPeriph_Driver/src/stm32f10x_exti.c ****   else
 142:./.driver/STM32F10x_StdPeriph_Driver/src/stm32f10x_exti.c ****   {
 143:./.driver/STM32F10x_StdPeriph_Driver/src/stm32f10x_exti.c ****     tmp += EXTI_InitStruct->EXTI_Mode;
 144:./.driver/STM32F10x_StdPeriph_Driver/src/stm32f10x_exti.c **** 
 145:./.driver/STM32F10x_StdPeriph_Driver/src/stm32f10x_exti.c ****     /* Disable the selected external lines */
 146:./.driver/STM32F10x_StdPeriph_Driver/src/stm32f10x_exti.c ****     *(__IO uint32_t *) tmp &= ~EXTI_InitStruct->EXTI_Line;
 147:./.driver/STM32F10x_StdPeriph_Driver/src/stm32f10x_exti.c ****   }
 148:./.driver/STM32F10x_StdPeriph_Driver/src/stm32f10x_exti.c **** }
 212              		.loc 1 148 1
 213 0096 1DE0     		b	.L8
 214              	.L6:
 135:./.driver/STM32F10x_StdPeriph_Driver/src/stm32f10x_exti.c ****       tmp += EXTI_InitStruct->EXTI_Trigger;
 215              		.loc 1 135 11
 216 0098 114B     		ldr	r3, .L9
 217 009a FB60     		str	r3, [r7, #12]
 136:./.driver/STM32F10x_StdPeriph_Driver/src/stm32f10x_exti.c **** 
 218              		.loc 1 136 29
 219 009c 7B68     		ldr	r3, [r7, #4]
 220 009e 5B79     		ldrb	r3, [r3, #5]	@ zero_extendqisi2
 221 00a0 1A46     		mov	r2, r3
 136:./.driver/STM32F10x_StdPeriph_Driver/src/stm32f10x_exti.c **** 
 222              		.loc 1 136 11
 223 00a2 FB68     		ldr	r3, [r7, #12]
 224 00a4 1344     		add	r3, r3, r2
 225 00a6 FB60     		str	r3, [r7, #12]
 138:./.driver/STM32F10x_StdPeriph_Driver/src/stm32f10x_exti.c ****     }
 226              		.loc 1 138 30
 227 00a8 FB68     		ldr	r3, [r7, #12]
 228 00aa 1968     		ldr	r1, [r3]
 138:./.driver/STM32F10x_StdPeriph_Driver/src/stm32f10x_exti.c ****     }
 229              		.loc 1 138 48
 230 00ac 7B68     		ldr	r3, [r7, #4]
 231 00ae 1A68     		ldr	r2, [r3]
 138:./.driver/STM32F10x_StdPeriph_Driver/src/stm32f10x_exti.c ****     }
 232              		.loc 1 138 30
 233 00b0 FB68     		ldr	r3, [r7, #12]
 234 00b2 0A43     		orrs	r2, r2, r1
 235 00b4 1A60     		str	r2, [r3]
 236              		.loc 1 148 1
 237 00b6 0DE0     		b	.L8
 238              	.L5:
 143:./.driver/STM32F10x_StdPeriph_Driver/src/stm32f10x_exti.c **** 
 239              		.loc 1 143 27
 240 00b8 7B68     		ldr	r3, [r7, #4]
 241 00ba 1B79     		ldrb	r3, [r3, #4]	@ zero_extendqisi2
 242 00bc 1A46     		mov	r2, r3
 143:./.driver/STM32F10x_StdPeriph_Driver/src/stm32f10x_exti.c **** 
 243              		.loc 1 143 9
 244 00be FB68     		ldr	r3, [r7, #12]
 245 00c0 1344     		add	r3, r3, r2
 246 00c2 FB60     		str	r3, [r7, #12]
ARM GAS  C:\Users\SAMEER~1.ALM\AppData\Local\Temp\ccHlwM6h.s 			page 8


 146:./.driver/STM32F10x_StdPeriph_Driver/src/stm32f10x_exti.c ****   }
 247              		.loc 1 146 28
 248 00c4 FB68     		ldr	r3, [r7, #12]
 249 00c6 1968     		ldr	r1, [r3]
 146:./.driver/STM32F10x_StdPeriph_Driver/src/stm32f10x_exti.c ****   }
 250              		.loc 1 146 47
 251 00c8 7B68     		ldr	r3, [r7, #4]
 252 00ca 1B68     		ldr	r3, [r3]
 146:./.driver/STM32F10x_StdPeriph_Driver/src/stm32f10x_exti.c ****   }
 253              		.loc 1 146 31
 254 00cc DA43     		mvns	r2, r3
 146:./.driver/STM32F10x_StdPeriph_Driver/src/stm32f10x_exti.c ****   }
 255              		.loc 1 146 28
 256 00ce FB68     		ldr	r3, [r7, #12]
 257 00d0 0A40     		ands	r2, r2, r1
 258 00d2 1A60     		str	r2, [r3]
 259              	.L8:
 260              		.loc 1 148 1
 261 00d4 00BF     		nop
 262 00d6 1437     		adds	r7, r7, #20
 263              	.LCFI7:
 264              		.cfi_def_cfa_offset 4
 265 00d8 BD46     		mov	sp, r7
 266              	.LCFI8:
 267              		.cfi_def_cfa_register 13
 268              		@ sp needed
 269 00da 80BC     		pop	{r7}
 270              	.LCFI9:
 271              		.cfi_restore 7
 272              		.cfi_def_cfa_offset 0
 273 00dc 7047     		bx	lr
 274              	.L10:
 275 00de 00BF     		.align	2
 276              	.L9:
 277 00e0 00040140 		.word	1073808384
 278              		.cfi_endproc
 279              	.LFE30:
 281              		.section	.text.EXTI_StructInit,"ax",%progbits
 282              		.align	1
 283              		.global	EXTI_StructInit
 284              		.syntax unified
 285              		.thumb
 286              		.thumb_func
 288              	EXTI_StructInit:
 289              	.LFB31:
 149:./.driver/STM32F10x_StdPeriph_Driver/src/stm32f10x_exti.c **** 
 150:./.driver/STM32F10x_StdPeriph_Driver/src/stm32f10x_exti.c **** /**
 151:./.driver/STM32F10x_StdPeriph_Driver/src/stm32f10x_exti.c ****   * @brief  Fills each EXTI_InitStruct member with its reset value.
 152:./.driver/STM32F10x_StdPeriph_Driver/src/stm32f10x_exti.c ****   * @param  EXTI_InitStruct: pointer to a EXTI_InitTypeDef structure which will
 153:./.driver/STM32F10x_StdPeriph_Driver/src/stm32f10x_exti.c ****   *         be initialized.
 154:./.driver/STM32F10x_StdPeriph_Driver/src/stm32f10x_exti.c ****   * @retval None
 155:./.driver/STM32F10x_StdPeriph_Driver/src/stm32f10x_exti.c ****   */
 156:./.driver/STM32F10x_StdPeriph_Driver/src/stm32f10x_exti.c **** void EXTI_StructInit(EXTI_InitTypeDef* EXTI_InitStruct)
 157:./.driver/STM32F10x_StdPeriph_Driver/src/stm32f10x_exti.c **** {
 290              		.loc 1 157 1
 291              		.cfi_startproc
 292              		@ args = 0, pretend = 0, frame = 8
ARM GAS  C:\Users\SAMEER~1.ALM\AppData\Local\Temp\ccHlwM6h.s 			page 9


 293              		@ frame_needed = 1, uses_anonymous_args = 0
 294              		@ link register save eliminated.
 295 0000 80B4     		push	{r7}
 296              	.LCFI10:
 297              		.cfi_def_cfa_offset 4
 298              		.cfi_offset 7, -4
 299 0002 83B0     		sub	sp, sp, #12
 300              	.LCFI11:
 301              		.cfi_def_cfa_offset 16
 302 0004 00AF     		add	r7, sp, #0
 303              	.LCFI12:
 304              		.cfi_def_cfa_register 7
 305 0006 7860     		str	r0, [r7, #4]
 158:./.driver/STM32F10x_StdPeriph_Driver/src/stm32f10x_exti.c ****   EXTI_InitStruct->EXTI_Line = EXTI_LINENONE;
 306              		.loc 1 158 30
 307 0008 7B68     		ldr	r3, [r7, #4]
 308 000a 0022     		movs	r2, #0
 309 000c 1A60     		str	r2, [r3]
 159:./.driver/STM32F10x_StdPeriph_Driver/src/stm32f10x_exti.c ****   EXTI_InitStruct->EXTI_Mode = EXTI_Mode_Interrupt;
 310              		.loc 1 159 30
 311 000e 7B68     		ldr	r3, [r7, #4]
 312 0010 0022     		movs	r2, #0
 313 0012 1A71     		strb	r2, [r3, #4]
 160:./.driver/STM32F10x_StdPeriph_Driver/src/stm32f10x_exti.c ****   EXTI_InitStruct->EXTI_Trigger = EXTI_Trigger_Falling;
 314              		.loc 1 160 33
 315 0014 7B68     		ldr	r3, [r7, #4]
 316 0016 0C22     		movs	r2, #12
 317 0018 5A71     		strb	r2, [r3, #5]
 161:./.driver/STM32F10x_StdPeriph_Driver/src/stm32f10x_exti.c ****   EXTI_InitStruct->EXTI_LineCmd = DISABLE;
 318              		.loc 1 161 33
 319 001a 7B68     		ldr	r3, [r7, #4]
 320 001c 0022     		movs	r2, #0
 321 001e 9A71     		strb	r2, [r3, #6]
 162:./.driver/STM32F10x_StdPeriph_Driver/src/stm32f10x_exti.c **** }
 322              		.loc 1 162 1
 323 0020 00BF     		nop
 324 0022 0C37     		adds	r7, r7, #12
 325              	.LCFI13:
 326              		.cfi_def_cfa_offset 4
 327 0024 BD46     		mov	sp, r7
 328              	.LCFI14:
 329              		.cfi_def_cfa_register 13
 330              		@ sp needed
 331 0026 80BC     		pop	{r7}
 332              	.LCFI15:
 333              		.cfi_restore 7
 334              		.cfi_def_cfa_offset 0
 335 0028 7047     		bx	lr
 336              		.cfi_endproc
 337              	.LFE31:
 339              		.section	.text.EXTI_GenerateSWInterrupt,"ax",%progbits
 340              		.align	1
 341              		.global	EXTI_GenerateSWInterrupt
 342              		.syntax unified
 343              		.thumb
 344              		.thumb_func
 346              	EXTI_GenerateSWInterrupt:
ARM GAS  C:\Users\SAMEER~1.ALM\AppData\Local\Temp\ccHlwM6h.s 			page 10


 347              	.LFB32:
 163:./.driver/STM32F10x_StdPeriph_Driver/src/stm32f10x_exti.c **** 
 164:./.driver/STM32F10x_StdPeriph_Driver/src/stm32f10x_exti.c **** /**
 165:./.driver/STM32F10x_StdPeriph_Driver/src/stm32f10x_exti.c ****   * @brief  Generates a Software interrupt.
 166:./.driver/STM32F10x_StdPeriph_Driver/src/stm32f10x_exti.c ****   * @param  EXTI_Line: specifies the EXTI lines to be enabled or disabled.
 167:./.driver/STM32F10x_StdPeriph_Driver/src/stm32f10x_exti.c ****   *   This parameter can be any combination of EXTI_Linex where x can be (0..19).
 168:./.driver/STM32F10x_StdPeriph_Driver/src/stm32f10x_exti.c ****   * @retval None
 169:./.driver/STM32F10x_StdPeriph_Driver/src/stm32f10x_exti.c ****   */
 170:./.driver/STM32F10x_StdPeriph_Driver/src/stm32f10x_exti.c **** void EXTI_GenerateSWInterrupt(uint32_t EXTI_Line)
 171:./.driver/STM32F10x_StdPeriph_Driver/src/stm32f10x_exti.c **** {
 348              		.loc 1 171 1
 349              		.cfi_startproc
 350              		@ args = 0, pretend = 0, frame = 8
 351              		@ frame_needed = 1, uses_anonymous_args = 0
 352              		@ link register save eliminated.
 353 0000 80B4     		push	{r7}
 354              	.LCFI16:
 355              		.cfi_def_cfa_offset 4
 356              		.cfi_offset 7, -4
 357 0002 83B0     		sub	sp, sp, #12
 358              	.LCFI17:
 359              		.cfi_def_cfa_offset 16
 360 0004 00AF     		add	r7, sp, #0
 361              	.LCFI18:
 362              		.cfi_def_cfa_register 7
 363 0006 7860     		str	r0, [r7, #4]
 172:./.driver/STM32F10x_StdPeriph_Driver/src/stm32f10x_exti.c ****   /* Check the parameters */
 173:./.driver/STM32F10x_StdPeriph_Driver/src/stm32f10x_exti.c ****   assert_param(IS_EXTI_LINE(EXTI_Line));
 174:./.driver/STM32F10x_StdPeriph_Driver/src/stm32f10x_exti.c ****   
 175:./.driver/STM32F10x_StdPeriph_Driver/src/stm32f10x_exti.c ****   EXTI->SWIER |= EXTI_Line;
 364              		.loc 1 175 15
 365 0008 054B     		ldr	r3, .L13
 366 000a 1A69     		ldr	r2, [r3, #16]
 367 000c 0449     		ldr	r1, .L13
 368 000e 7B68     		ldr	r3, [r7, #4]
 369 0010 1343     		orrs	r3, r3, r2
 370 0012 0B61     		str	r3, [r1, #16]
 176:./.driver/STM32F10x_StdPeriph_Driver/src/stm32f10x_exti.c **** }
 371              		.loc 1 176 1
 372 0014 00BF     		nop
 373 0016 0C37     		adds	r7, r7, #12
 374              	.LCFI19:
 375              		.cfi_def_cfa_offset 4
 376 0018 BD46     		mov	sp, r7
 377              	.LCFI20:
 378              		.cfi_def_cfa_register 13
 379              		@ sp needed
 380 001a 80BC     		pop	{r7}
 381              	.LCFI21:
 382              		.cfi_restore 7
 383              		.cfi_def_cfa_offset 0
 384 001c 7047     		bx	lr
 385              	.L14:
 386 001e 00BF     		.align	2
 387              	.L13:
 388 0020 00040140 		.word	1073808384
 389              		.cfi_endproc
ARM GAS  C:\Users\SAMEER~1.ALM\AppData\Local\Temp\ccHlwM6h.s 			page 11


 390              	.LFE32:
 392              		.section	.text.EXTI_GetFlagStatus,"ax",%progbits
 393              		.align	1
 394              		.global	EXTI_GetFlagStatus
 395              		.syntax unified
 396              		.thumb
 397              		.thumb_func
 399              	EXTI_GetFlagStatus:
 400              	.LFB33:
 177:./.driver/STM32F10x_StdPeriph_Driver/src/stm32f10x_exti.c **** 
 178:./.driver/STM32F10x_StdPeriph_Driver/src/stm32f10x_exti.c **** /**
 179:./.driver/STM32F10x_StdPeriph_Driver/src/stm32f10x_exti.c ****   * @brief  Checks whether the specified EXTI line flag is set or not.
 180:./.driver/STM32F10x_StdPeriph_Driver/src/stm32f10x_exti.c ****   * @param  EXTI_Line: specifies the EXTI line flag to check.
 181:./.driver/STM32F10x_StdPeriph_Driver/src/stm32f10x_exti.c ****   *   This parameter can be:
 182:./.driver/STM32F10x_StdPeriph_Driver/src/stm32f10x_exti.c ****   *     @arg EXTI_Linex: External interrupt line x where x(0..19)
 183:./.driver/STM32F10x_StdPeriph_Driver/src/stm32f10x_exti.c ****   * @retval The new state of EXTI_Line (SET or RESET).
 184:./.driver/STM32F10x_StdPeriph_Driver/src/stm32f10x_exti.c ****   */
 185:./.driver/STM32F10x_StdPeriph_Driver/src/stm32f10x_exti.c **** FlagStatus EXTI_GetFlagStatus(uint32_t EXTI_Line)
 186:./.driver/STM32F10x_StdPeriph_Driver/src/stm32f10x_exti.c **** {
 401              		.loc 1 186 1
 402              		.cfi_startproc
 403              		@ args = 0, pretend = 0, frame = 16
 404              		@ frame_needed = 1, uses_anonymous_args = 0
 405              		@ link register save eliminated.
 406 0000 80B4     		push	{r7}
 407              	.LCFI22:
 408              		.cfi_def_cfa_offset 4
 409              		.cfi_offset 7, -4
 410 0002 85B0     		sub	sp, sp, #20
 411              	.LCFI23:
 412              		.cfi_def_cfa_offset 24
 413 0004 00AF     		add	r7, sp, #0
 414              	.LCFI24:
 415              		.cfi_def_cfa_register 7
 416 0006 7860     		str	r0, [r7, #4]
 187:./.driver/STM32F10x_StdPeriph_Driver/src/stm32f10x_exti.c ****   FlagStatus bitstatus = RESET;
 417              		.loc 1 187 14
 418 0008 0023     		movs	r3, #0
 419 000a FB73     		strb	r3, [r7, #15]
 188:./.driver/STM32F10x_StdPeriph_Driver/src/stm32f10x_exti.c ****   /* Check the parameters */
 189:./.driver/STM32F10x_StdPeriph_Driver/src/stm32f10x_exti.c ****   assert_param(IS_GET_EXTI_LINE(EXTI_Line));
 190:./.driver/STM32F10x_StdPeriph_Driver/src/stm32f10x_exti.c ****   
 191:./.driver/STM32F10x_StdPeriph_Driver/src/stm32f10x_exti.c ****   if ((EXTI->PR & EXTI_Line) != (uint32_t)RESET)
 420              		.loc 1 191 12
 421 000c 084B     		ldr	r3, .L19
 422 000e 5A69     		ldr	r2, [r3, #20]
 423              		.loc 1 191 17
 424 0010 7B68     		ldr	r3, [r7, #4]
 425 0012 1340     		ands	r3, r3, r2
 426              		.loc 1 191 6
 427 0014 002B     		cmp	r3, #0
 428 0016 02D0     		beq	.L16
 192:./.driver/STM32F10x_StdPeriph_Driver/src/stm32f10x_exti.c ****   {
 193:./.driver/STM32F10x_StdPeriph_Driver/src/stm32f10x_exti.c ****     bitstatus = SET;
 429              		.loc 1 193 15
 430 0018 0123     		movs	r3, #1
 431 001a FB73     		strb	r3, [r7, #15]
ARM GAS  C:\Users\SAMEER~1.ALM\AppData\Local\Temp\ccHlwM6h.s 			page 12


 432 001c 01E0     		b	.L17
 433              	.L16:
 194:./.driver/STM32F10x_StdPeriph_Driver/src/stm32f10x_exti.c ****   }
 195:./.driver/STM32F10x_StdPeriph_Driver/src/stm32f10x_exti.c ****   else
 196:./.driver/STM32F10x_StdPeriph_Driver/src/stm32f10x_exti.c ****   {
 197:./.driver/STM32F10x_StdPeriph_Driver/src/stm32f10x_exti.c ****     bitstatus = RESET;
 434              		.loc 1 197 15
 435 001e 0023     		movs	r3, #0
 436 0020 FB73     		strb	r3, [r7, #15]
 437              	.L17:
 198:./.driver/STM32F10x_StdPeriph_Driver/src/stm32f10x_exti.c ****   }
 199:./.driver/STM32F10x_StdPeriph_Driver/src/stm32f10x_exti.c ****   return bitstatus;
 438              		.loc 1 199 10
 439 0022 FB7B     		ldrb	r3, [r7, #15]	@ zero_extendqisi2
 200:./.driver/STM32F10x_StdPeriph_Driver/src/stm32f10x_exti.c **** }
 440              		.loc 1 200 1
 441 0024 1846     		mov	r0, r3
 442 0026 1437     		adds	r7, r7, #20
 443              	.LCFI25:
 444              		.cfi_def_cfa_offset 4
 445 0028 BD46     		mov	sp, r7
 446              	.LCFI26:
 447              		.cfi_def_cfa_register 13
 448              		@ sp needed
 449 002a 80BC     		pop	{r7}
 450              	.LCFI27:
 451              		.cfi_restore 7
 452              		.cfi_def_cfa_offset 0
 453 002c 7047     		bx	lr
 454              	.L20:
 455 002e 00BF     		.align	2
 456              	.L19:
 457 0030 00040140 		.word	1073808384
 458              		.cfi_endproc
 459              	.LFE33:
 461              		.section	.text.EXTI_ClearFlag,"ax",%progbits
 462              		.align	1
 463              		.global	EXTI_ClearFlag
 464              		.syntax unified
 465              		.thumb
 466              		.thumb_func
 468              	EXTI_ClearFlag:
 469              	.LFB34:
 201:./.driver/STM32F10x_StdPeriph_Driver/src/stm32f10x_exti.c **** 
 202:./.driver/STM32F10x_StdPeriph_Driver/src/stm32f10x_exti.c **** /**
 203:./.driver/STM32F10x_StdPeriph_Driver/src/stm32f10x_exti.c ****   * @brief  Clears the EXTI's line pending flags.
 204:./.driver/STM32F10x_StdPeriph_Driver/src/stm32f10x_exti.c ****   * @param  EXTI_Line: specifies the EXTI lines flags to clear.
 205:./.driver/STM32F10x_StdPeriph_Driver/src/stm32f10x_exti.c ****   *   This parameter can be any combination of EXTI_Linex where x can be (0..19).
 206:./.driver/STM32F10x_StdPeriph_Driver/src/stm32f10x_exti.c ****   * @retval None
 207:./.driver/STM32F10x_StdPeriph_Driver/src/stm32f10x_exti.c ****   */
 208:./.driver/STM32F10x_StdPeriph_Driver/src/stm32f10x_exti.c **** void EXTI_ClearFlag(uint32_t EXTI_Line)
 209:./.driver/STM32F10x_StdPeriph_Driver/src/stm32f10x_exti.c **** {
 470              		.loc 1 209 1
 471              		.cfi_startproc
 472              		@ args = 0, pretend = 0, frame = 8
 473              		@ frame_needed = 1, uses_anonymous_args = 0
 474              		@ link register save eliminated.
ARM GAS  C:\Users\SAMEER~1.ALM\AppData\Local\Temp\ccHlwM6h.s 			page 13


 475 0000 80B4     		push	{r7}
 476              	.LCFI28:
 477              		.cfi_def_cfa_offset 4
 478              		.cfi_offset 7, -4
 479 0002 83B0     		sub	sp, sp, #12
 480              	.LCFI29:
 481              		.cfi_def_cfa_offset 16
 482 0004 00AF     		add	r7, sp, #0
 483              	.LCFI30:
 484              		.cfi_def_cfa_register 7
 485 0006 7860     		str	r0, [r7, #4]
 210:./.driver/STM32F10x_StdPeriph_Driver/src/stm32f10x_exti.c ****   /* Check the parameters */
 211:./.driver/STM32F10x_StdPeriph_Driver/src/stm32f10x_exti.c ****   assert_param(IS_EXTI_LINE(EXTI_Line));
 212:./.driver/STM32F10x_StdPeriph_Driver/src/stm32f10x_exti.c ****   
 213:./.driver/STM32F10x_StdPeriph_Driver/src/stm32f10x_exti.c ****   EXTI->PR = EXTI_Line;
 486              		.loc 1 213 7
 487 0008 034A     		ldr	r2, .L22
 488              		.loc 1 213 12
 489 000a 7B68     		ldr	r3, [r7, #4]
 490 000c 5361     		str	r3, [r2, #20]
 214:./.driver/STM32F10x_StdPeriph_Driver/src/stm32f10x_exti.c **** }
 491              		.loc 1 214 1
 492 000e 00BF     		nop
 493 0010 0C37     		adds	r7, r7, #12
 494              	.LCFI31:
 495              		.cfi_def_cfa_offset 4
 496 0012 BD46     		mov	sp, r7
 497              	.LCFI32:
 498              		.cfi_def_cfa_register 13
 499              		@ sp needed
 500 0014 80BC     		pop	{r7}
 501              	.LCFI33:
 502              		.cfi_restore 7
 503              		.cfi_def_cfa_offset 0
 504 0016 7047     		bx	lr
 505              	.L23:
 506              		.align	2
 507              	.L22:
 508 0018 00040140 		.word	1073808384
 509              		.cfi_endproc
 510              	.LFE34:
 512              		.section	.text.EXTI_GetITStatus,"ax",%progbits
 513              		.align	1
 514              		.global	EXTI_GetITStatus
 515              		.syntax unified
 516              		.thumb
 517              		.thumb_func
 519              	EXTI_GetITStatus:
 520              	.LFB35:
 215:./.driver/STM32F10x_StdPeriph_Driver/src/stm32f10x_exti.c **** 
 216:./.driver/STM32F10x_StdPeriph_Driver/src/stm32f10x_exti.c **** /**
 217:./.driver/STM32F10x_StdPeriph_Driver/src/stm32f10x_exti.c ****   * @brief  Checks whether the specified EXTI line is asserted or not.
 218:./.driver/STM32F10x_StdPeriph_Driver/src/stm32f10x_exti.c ****   * @param  EXTI_Line: specifies the EXTI line to check.
 219:./.driver/STM32F10x_StdPeriph_Driver/src/stm32f10x_exti.c ****   *   This parameter can be:
 220:./.driver/STM32F10x_StdPeriph_Driver/src/stm32f10x_exti.c ****   *     @arg EXTI_Linex: External interrupt line x where x(0..19)
 221:./.driver/STM32F10x_StdPeriph_Driver/src/stm32f10x_exti.c ****   * @retval The new state of EXTI_Line (SET or RESET).
 222:./.driver/STM32F10x_StdPeriph_Driver/src/stm32f10x_exti.c ****   */
ARM GAS  C:\Users\SAMEER~1.ALM\AppData\Local\Temp\ccHlwM6h.s 			page 14


 223:./.driver/STM32F10x_StdPeriph_Driver/src/stm32f10x_exti.c **** ITStatus EXTI_GetITStatus(uint32_t EXTI_Line)
 224:./.driver/STM32F10x_StdPeriph_Driver/src/stm32f10x_exti.c **** {
 521              		.loc 1 224 1
 522              		.cfi_startproc
 523              		@ args = 0, pretend = 0, frame = 16
 524              		@ frame_needed = 1, uses_anonymous_args = 0
 525              		@ link register save eliminated.
 526 0000 80B4     		push	{r7}
 527              	.LCFI34:
 528              		.cfi_def_cfa_offset 4
 529              		.cfi_offset 7, -4
 530 0002 85B0     		sub	sp, sp, #20
 531              	.LCFI35:
 532              		.cfi_def_cfa_offset 24
 533 0004 00AF     		add	r7, sp, #0
 534              	.LCFI36:
 535              		.cfi_def_cfa_register 7
 536 0006 7860     		str	r0, [r7, #4]
 225:./.driver/STM32F10x_StdPeriph_Driver/src/stm32f10x_exti.c ****   ITStatus bitstatus = RESET;
 537              		.loc 1 225 12
 538 0008 0023     		movs	r3, #0
 539 000a FB73     		strb	r3, [r7, #15]
 226:./.driver/STM32F10x_StdPeriph_Driver/src/stm32f10x_exti.c ****   uint32_t enablestatus = 0;
 540              		.loc 1 226 12
 541 000c 0023     		movs	r3, #0
 542 000e BB60     		str	r3, [r7, #8]
 227:./.driver/STM32F10x_StdPeriph_Driver/src/stm32f10x_exti.c ****   /* Check the parameters */
 228:./.driver/STM32F10x_StdPeriph_Driver/src/stm32f10x_exti.c ****   assert_param(IS_GET_EXTI_LINE(EXTI_Line));
 229:./.driver/STM32F10x_StdPeriph_Driver/src/stm32f10x_exti.c ****   
 230:./.driver/STM32F10x_StdPeriph_Driver/src/stm32f10x_exti.c ****   enablestatus =  EXTI->IMR & EXTI_Line;
 543              		.loc 1 230 23
 544 0010 0C4B     		ldr	r3, .L28
 545 0012 1B68     		ldr	r3, [r3]
 546              		.loc 1 230 16
 547 0014 7A68     		ldr	r2, [r7, #4]
 548 0016 1340     		ands	r3, r3, r2
 549 0018 BB60     		str	r3, [r7, #8]
 231:./.driver/STM32F10x_StdPeriph_Driver/src/stm32f10x_exti.c ****   if (((EXTI->PR & EXTI_Line) != (uint32_t)RESET) && (enablestatus != (uint32_t)RESET))
 550              		.loc 1 231 13
 551 001a 0A4B     		ldr	r3, .L28
 552 001c 5A69     		ldr	r2, [r3, #20]
 553              		.loc 1 231 18
 554 001e 7B68     		ldr	r3, [r7, #4]
 555 0020 1340     		ands	r3, r3, r2
 556              		.loc 1 231 6
 557 0022 002B     		cmp	r3, #0
 558 0024 05D0     		beq	.L25
 559              		.loc 1 231 51 discriminator 1
 560 0026 BB68     		ldr	r3, [r7, #8]
 561 0028 002B     		cmp	r3, #0
 562 002a 02D0     		beq	.L25
 232:./.driver/STM32F10x_StdPeriph_Driver/src/stm32f10x_exti.c ****   {
 233:./.driver/STM32F10x_StdPeriph_Driver/src/stm32f10x_exti.c ****     bitstatus = SET;
 563              		.loc 1 233 15
 564 002c 0123     		movs	r3, #1
 565 002e FB73     		strb	r3, [r7, #15]
 566 0030 01E0     		b	.L26
ARM GAS  C:\Users\SAMEER~1.ALM\AppData\Local\Temp\ccHlwM6h.s 			page 15


 567              	.L25:
 234:./.driver/STM32F10x_StdPeriph_Driver/src/stm32f10x_exti.c ****   }
 235:./.driver/STM32F10x_StdPeriph_Driver/src/stm32f10x_exti.c ****   else
 236:./.driver/STM32F10x_StdPeriph_Driver/src/stm32f10x_exti.c ****   {
 237:./.driver/STM32F10x_StdPeriph_Driver/src/stm32f10x_exti.c ****     bitstatus = RESET;
 568              		.loc 1 237 15
 569 0032 0023     		movs	r3, #0
 570 0034 FB73     		strb	r3, [r7, #15]
 571              	.L26:
 238:./.driver/STM32F10x_StdPeriph_Driver/src/stm32f10x_exti.c ****   }
 239:./.driver/STM32F10x_StdPeriph_Driver/src/stm32f10x_exti.c ****   return bitstatus;
 572              		.loc 1 239 10
 573 0036 FB7B     		ldrb	r3, [r7, #15]	@ zero_extendqisi2
 240:./.driver/STM32F10x_StdPeriph_Driver/src/stm32f10x_exti.c **** }
 574              		.loc 1 240 1
 575 0038 1846     		mov	r0, r3
 576 003a 1437     		adds	r7, r7, #20
 577              	.LCFI37:
 578              		.cfi_def_cfa_offset 4
 579 003c BD46     		mov	sp, r7
 580              	.LCFI38:
 581              		.cfi_def_cfa_register 13
 582              		@ sp needed
 583 003e 80BC     		pop	{r7}
 584              	.LCFI39:
 585              		.cfi_restore 7
 586              		.cfi_def_cfa_offset 0
 587 0040 7047     		bx	lr
 588              	.L29:
 589 0042 00BF     		.align	2
 590              	.L28:
 591 0044 00040140 		.word	1073808384
 592              		.cfi_endproc
 593              	.LFE35:
 595              		.section	.text.EXTI_ClearITPendingBit,"ax",%progbits
 596              		.align	1
 597              		.global	EXTI_ClearITPendingBit
 598              		.syntax unified
 599              		.thumb
 600              		.thumb_func
 602              	EXTI_ClearITPendingBit:
 603              	.LFB36:
 241:./.driver/STM32F10x_StdPeriph_Driver/src/stm32f10x_exti.c **** 
 242:./.driver/STM32F10x_StdPeriph_Driver/src/stm32f10x_exti.c **** /**
 243:./.driver/STM32F10x_StdPeriph_Driver/src/stm32f10x_exti.c ****   * @brief  Clears the EXTI's line pending bits.
 244:./.driver/STM32F10x_StdPeriph_Driver/src/stm32f10x_exti.c ****   * @param  EXTI_Line: specifies the EXTI lines to clear.
 245:./.driver/STM32F10x_StdPeriph_Driver/src/stm32f10x_exti.c ****   *   This parameter can be any combination of EXTI_Linex where x can be (0..19).
 246:./.driver/STM32F10x_StdPeriph_Driver/src/stm32f10x_exti.c ****   * @retval None
 247:./.driver/STM32F10x_StdPeriph_Driver/src/stm32f10x_exti.c ****   */
 248:./.driver/STM32F10x_StdPeriph_Driver/src/stm32f10x_exti.c **** void EXTI_ClearITPendingBit(uint32_t EXTI_Line)
 249:./.driver/STM32F10x_StdPeriph_Driver/src/stm32f10x_exti.c **** {
 604              		.loc 1 249 1
 605              		.cfi_startproc
 606              		@ args = 0, pretend = 0, frame = 8
 607              		@ frame_needed = 1, uses_anonymous_args = 0
 608              		@ link register save eliminated.
 609 0000 80B4     		push	{r7}
ARM GAS  C:\Users\SAMEER~1.ALM\AppData\Local\Temp\ccHlwM6h.s 			page 16


 610              	.LCFI40:
 611              		.cfi_def_cfa_offset 4
 612              		.cfi_offset 7, -4
 613 0002 83B0     		sub	sp, sp, #12
 614              	.LCFI41:
 615              		.cfi_def_cfa_offset 16
 616 0004 00AF     		add	r7, sp, #0
 617              	.LCFI42:
 618              		.cfi_def_cfa_register 7
 619 0006 7860     		str	r0, [r7, #4]
 250:./.driver/STM32F10x_StdPeriph_Driver/src/stm32f10x_exti.c ****   /* Check the parameters */
 251:./.driver/STM32F10x_StdPeriph_Driver/src/stm32f10x_exti.c ****   assert_param(IS_EXTI_LINE(EXTI_Line));
 252:./.driver/STM32F10x_StdPeriph_Driver/src/stm32f10x_exti.c ****   
 253:./.driver/STM32F10x_StdPeriph_Driver/src/stm32f10x_exti.c ****   EXTI->PR = EXTI_Line;
 620              		.loc 1 253 7
 621 0008 034A     		ldr	r2, .L31
 622              		.loc 1 253 12
 623 000a 7B68     		ldr	r3, [r7, #4]
 624 000c 5361     		str	r3, [r2, #20]
 254:./.driver/STM32F10x_StdPeriph_Driver/src/stm32f10x_exti.c **** }
 625              		.loc 1 254 1
 626 000e 00BF     		nop
 627 0010 0C37     		adds	r7, r7, #12
 628              	.LCFI43:
 629              		.cfi_def_cfa_offset 4
 630 0012 BD46     		mov	sp, r7
 631              	.LCFI44:
 632              		.cfi_def_cfa_register 13
 633              		@ sp needed
 634 0014 80BC     		pop	{r7}
 635              	.LCFI45:
 636              		.cfi_restore 7
 637              		.cfi_def_cfa_offset 0
 638 0016 7047     		bx	lr
 639              	.L32:
 640              		.align	2
 641              	.L31:
 642 0018 00040140 		.word	1073808384
 643              		.cfi_endproc
 644              	.LFE36:
 646              		.text
 647              	.Letext0:
 648              		.file 2 "c:\\arm-tool\\gcc-arm-none-eabi-10.3-2021.10\\arm-none-eabi\\include\\machine\\_default_t
 649              		.file 3 "c:\\arm-tool\\gcc-arm-none-eabi-10.3-2021.10\\arm-none-eabi\\include\\sys\\_stdint.h"
 650              		.file 4 "./.driver/CMSIS/Device/STM32F10x/stm32f10x.h"
 651              		.file 5 "./.driver/STM32F10x_StdPeriph_Driver/inc/stm32f10x_exti.h"
ARM GAS  C:\Users\SAMEER~1.ALM\AppData\Local\Temp\ccHlwM6h.s 			page 17

