ARM GAS  C:\Users\SAMEER~1.ALM\AppData\Local\Temp\ccT7Y8qk.s 			page 1


   1              		.cpu cortex-m3
   2              		.arch armv7-m
   3              		.fpu softvfp
   4              		.eabi_attribute 20, 1
   5              		.eabi_attribute 21, 1
   6              		.eabi_attribute 23, 3
   7              		.eabi_attribute 24, 1
   8              		.eabi_attribute 25, 1
   9              		.eabi_attribute 26, 1
  10              		.eabi_attribute 30, 6
  11              		.eabi_attribute 34, 1
  12              		.eabi_attribute 18, 4
  13              		.file	"stm32f10x_flash.c"
  14              		.text
  15              	.Ltext0:
  16              		.cfi_sections	.debug_frame
  17              		.section	.text.FLASH_SetLatency,"ax",%progbits
  18              		.align	1
  19              		.global	FLASH_SetLatency
  20              		.syntax unified
  21              		.thumb
  22              		.thumb_func
  24              	FLASH_SetLatency:
  25              	.LFB29:
  26              		.file 1 "./.driver/STM32F10x_StdPeriph_Driver/src/stm32f10x_flash.c"
   1:./.driver/STM32F10x_StdPeriph_Driver/src/stm32f10x_flash.c **** /**
   2:./.driver/STM32F10x_StdPeriph_Driver/src/stm32f10x_flash.c ****   ******************************************************************************
   3:./.driver/STM32F10x_StdPeriph_Driver/src/stm32f10x_flash.c ****   * @file    stm32f10x_flash.c
   4:./.driver/STM32F10x_StdPeriph_Driver/src/stm32f10x_flash.c ****   * @author  MCD Application Team
   5:./.driver/STM32F10x_StdPeriph_Driver/src/stm32f10x_flash.c ****   * @version V3.6.2
   6:./.driver/STM32F10x_StdPeriph_Driver/src/stm32f10x_flash.c ****   * @date    17-September-2021
   7:./.driver/STM32F10x_StdPeriph_Driver/src/stm32f10x_flash.c ****   * @brief   This file provides all the FLASH firmware functions.
   8:./.driver/STM32F10x_StdPeriph_Driver/src/stm32f10x_flash.c ****   ******************************************************************************
   9:./.driver/STM32F10x_StdPeriph_Driver/src/stm32f10x_flash.c ****   * @attention
  10:./.driver/STM32F10x_StdPeriph_Driver/src/stm32f10x_flash.c ****   *
  11:./.driver/STM32F10x_StdPeriph_Driver/src/stm32f10x_flash.c ****   * Copyright (c) 2012 STMicroelectronics.
  12:./.driver/STM32F10x_StdPeriph_Driver/src/stm32f10x_flash.c ****   * All rights reserved.
  13:./.driver/STM32F10x_StdPeriph_Driver/src/stm32f10x_flash.c ****   *
  14:./.driver/STM32F10x_StdPeriph_Driver/src/stm32f10x_flash.c ****   * This software is licensed under terms that can be found in the LICENSE file
  15:./.driver/STM32F10x_StdPeriph_Driver/src/stm32f10x_flash.c ****   * in the root directory of this software component.
  16:./.driver/STM32F10x_StdPeriph_Driver/src/stm32f10x_flash.c ****   * If no LICENSE file comes with this software, it is provided AS-IS.
  17:./.driver/STM32F10x_StdPeriph_Driver/src/stm32f10x_flash.c ****   *
  18:./.driver/STM32F10x_StdPeriph_Driver/src/stm32f10x_flash.c ****   ******************************************************************************
  19:./.driver/STM32F10x_StdPeriph_Driver/src/stm32f10x_flash.c ****   */
  20:./.driver/STM32F10x_StdPeriph_Driver/src/stm32f10x_flash.c **** 
  21:./.driver/STM32F10x_StdPeriph_Driver/src/stm32f10x_flash.c **** /* Includes ------------------------------------------------------------------*/
  22:./.driver/STM32F10x_StdPeriph_Driver/src/stm32f10x_flash.c **** #include "stm32f10x_flash.h"
  23:./.driver/STM32F10x_StdPeriph_Driver/src/stm32f10x_flash.c **** 
  24:./.driver/STM32F10x_StdPeriph_Driver/src/stm32f10x_flash.c **** /** @addtogroup STM32F10x_StdPeriph_Driver
  25:./.driver/STM32F10x_StdPeriph_Driver/src/stm32f10x_flash.c ****   * @{
  26:./.driver/STM32F10x_StdPeriph_Driver/src/stm32f10x_flash.c ****   */
  27:./.driver/STM32F10x_StdPeriph_Driver/src/stm32f10x_flash.c **** 
  28:./.driver/STM32F10x_StdPeriph_Driver/src/stm32f10x_flash.c **** /** @defgroup FLASH 
  29:./.driver/STM32F10x_StdPeriph_Driver/src/stm32f10x_flash.c ****   * @brief FLASH driver modules
  30:./.driver/STM32F10x_StdPeriph_Driver/src/stm32f10x_flash.c ****   * @{
  31:./.driver/STM32F10x_StdPeriph_Driver/src/stm32f10x_flash.c ****   */ 
  32:./.driver/STM32F10x_StdPeriph_Driver/src/stm32f10x_flash.c **** 
ARM GAS  C:\Users\SAMEER~1.ALM\AppData\Local\Temp\ccT7Y8qk.s 			page 2


  33:./.driver/STM32F10x_StdPeriph_Driver/src/stm32f10x_flash.c **** /** @defgroup FLASH_Private_TypesDefinitions
  34:./.driver/STM32F10x_StdPeriph_Driver/src/stm32f10x_flash.c ****   * @{
  35:./.driver/STM32F10x_StdPeriph_Driver/src/stm32f10x_flash.c ****   */
  36:./.driver/STM32F10x_StdPeriph_Driver/src/stm32f10x_flash.c **** 
  37:./.driver/STM32F10x_StdPeriph_Driver/src/stm32f10x_flash.c **** /**
  38:./.driver/STM32F10x_StdPeriph_Driver/src/stm32f10x_flash.c ****   * @}
  39:./.driver/STM32F10x_StdPeriph_Driver/src/stm32f10x_flash.c ****   */ 
  40:./.driver/STM32F10x_StdPeriph_Driver/src/stm32f10x_flash.c **** 
  41:./.driver/STM32F10x_StdPeriph_Driver/src/stm32f10x_flash.c **** /** @defgroup FLASH_Private_Defines
  42:./.driver/STM32F10x_StdPeriph_Driver/src/stm32f10x_flash.c ****   * @{
  43:./.driver/STM32F10x_StdPeriph_Driver/src/stm32f10x_flash.c ****   */ 
  44:./.driver/STM32F10x_StdPeriph_Driver/src/stm32f10x_flash.c **** 
  45:./.driver/STM32F10x_StdPeriph_Driver/src/stm32f10x_flash.c **** /* Flash Access Control Register bits */
  46:./.driver/STM32F10x_StdPeriph_Driver/src/stm32f10x_flash.c **** #define ACR_LATENCY_Mask         ((uint32_t)0x00000038)
  47:./.driver/STM32F10x_StdPeriph_Driver/src/stm32f10x_flash.c **** #define ACR_HLFCYA_Mask          ((uint32_t)0xFFFFFFF7)
  48:./.driver/STM32F10x_StdPeriph_Driver/src/stm32f10x_flash.c **** #define ACR_PRFTBE_Mask          ((uint32_t)0xFFFFFFEF)
  49:./.driver/STM32F10x_StdPeriph_Driver/src/stm32f10x_flash.c **** 
  50:./.driver/STM32F10x_StdPeriph_Driver/src/stm32f10x_flash.c **** /* Flash Access Control Register bits */
  51:./.driver/STM32F10x_StdPeriph_Driver/src/stm32f10x_flash.c **** #define ACR_PRFTBS_Mask          ((uint32_t)0x00000020) 
  52:./.driver/STM32F10x_StdPeriph_Driver/src/stm32f10x_flash.c **** 
  53:./.driver/STM32F10x_StdPeriph_Driver/src/stm32f10x_flash.c **** /* Flash Control Register bits */
  54:./.driver/STM32F10x_StdPeriph_Driver/src/stm32f10x_flash.c **** #define CR_PG_Set                ((uint32_t)0x00000001)
  55:./.driver/STM32F10x_StdPeriph_Driver/src/stm32f10x_flash.c **** #define CR_PG_Reset              ((uint32_t)0x00001FFE) 
  56:./.driver/STM32F10x_StdPeriph_Driver/src/stm32f10x_flash.c **** #define CR_PER_Set               ((uint32_t)0x00000002)
  57:./.driver/STM32F10x_StdPeriph_Driver/src/stm32f10x_flash.c **** #define CR_PER_Reset             ((uint32_t)0x00001FFD)
  58:./.driver/STM32F10x_StdPeriph_Driver/src/stm32f10x_flash.c **** #define CR_MER_Set               ((uint32_t)0x00000004)
  59:./.driver/STM32F10x_StdPeriph_Driver/src/stm32f10x_flash.c **** #define CR_MER_Reset             ((uint32_t)0x00001FFB)
  60:./.driver/STM32F10x_StdPeriph_Driver/src/stm32f10x_flash.c **** #define CR_OPTPG_Set             ((uint32_t)0x00000010)
  61:./.driver/STM32F10x_StdPeriph_Driver/src/stm32f10x_flash.c **** #define CR_OPTPG_Reset           ((uint32_t)0x00001FEF)
  62:./.driver/STM32F10x_StdPeriph_Driver/src/stm32f10x_flash.c **** #define CR_OPTER_Set             ((uint32_t)0x00000020)
  63:./.driver/STM32F10x_StdPeriph_Driver/src/stm32f10x_flash.c **** #define CR_OPTER_Reset           ((uint32_t)0x00001FDF)
  64:./.driver/STM32F10x_StdPeriph_Driver/src/stm32f10x_flash.c **** #define CR_STRT_Set              ((uint32_t)0x00000040)
  65:./.driver/STM32F10x_StdPeriph_Driver/src/stm32f10x_flash.c **** #define CR_LOCK_Set              ((uint32_t)0x00000080)
  66:./.driver/STM32F10x_StdPeriph_Driver/src/stm32f10x_flash.c **** 
  67:./.driver/STM32F10x_StdPeriph_Driver/src/stm32f10x_flash.c **** /* FLASH Mask */
  68:./.driver/STM32F10x_StdPeriph_Driver/src/stm32f10x_flash.c **** #define RDPRT_Mask               ((uint32_t)0x00000002)
  69:./.driver/STM32F10x_StdPeriph_Driver/src/stm32f10x_flash.c **** #define WRP0_Mask                ((uint32_t)0x000000FF)
  70:./.driver/STM32F10x_StdPeriph_Driver/src/stm32f10x_flash.c **** #define WRP1_Mask                ((uint32_t)0x0000FF00)
  71:./.driver/STM32F10x_StdPeriph_Driver/src/stm32f10x_flash.c **** #define WRP2_Mask                ((uint32_t)0x00FF0000)
  72:./.driver/STM32F10x_StdPeriph_Driver/src/stm32f10x_flash.c **** #define WRP3_Mask                ((uint32_t)0xFF000000)
  73:./.driver/STM32F10x_StdPeriph_Driver/src/stm32f10x_flash.c **** #define OB_USER_BFB2             ((uint16_t)0x0008)
  74:./.driver/STM32F10x_StdPeriph_Driver/src/stm32f10x_flash.c **** 
  75:./.driver/STM32F10x_StdPeriph_Driver/src/stm32f10x_flash.c **** /* FLASH BANK address */
  76:./.driver/STM32F10x_StdPeriph_Driver/src/stm32f10x_flash.c **** #define FLASH_BANK1_END_ADDRESS   ((uint32_t)0x807FFFF)
  77:./.driver/STM32F10x_StdPeriph_Driver/src/stm32f10x_flash.c **** 
  78:./.driver/STM32F10x_StdPeriph_Driver/src/stm32f10x_flash.c **** /* Delay definition */   
  79:./.driver/STM32F10x_StdPeriph_Driver/src/stm32f10x_flash.c **** #define EraseTimeout          ((uint32_t)0x000B0000)
  80:./.driver/STM32F10x_StdPeriph_Driver/src/stm32f10x_flash.c **** #define ProgramTimeout        ((uint32_t)0x00002000)
  81:./.driver/STM32F10x_StdPeriph_Driver/src/stm32f10x_flash.c **** /**
  82:./.driver/STM32F10x_StdPeriph_Driver/src/stm32f10x_flash.c ****   * @}
  83:./.driver/STM32F10x_StdPeriph_Driver/src/stm32f10x_flash.c ****   */ 
  84:./.driver/STM32F10x_StdPeriph_Driver/src/stm32f10x_flash.c **** 
  85:./.driver/STM32F10x_StdPeriph_Driver/src/stm32f10x_flash.c **** /** @defgroup FLASH_Private_Macros
  86:./.driver/STM32F10x_StdPeriph_Driver/src/stm32f10x_flash.c ****   * @{
  87:./.driver/STM32F10x_StdPeriph_Driver/src/stm32f10x_flash.c ****   */
  88:./.driver/STM32F10x_StdPeriph_Driver/src/stm32f10x_flash.c **** 
  89:./.driver/STM32F10x_StdPeriph_Driver/src/stm32f10x_flash.c **** /**
ARM GAS  C:\Users\SAMEER~1.ALM\AppData\Local\Temp\ccT7Y8qk.s 			page 3


  90:./.driver/STM32F10x_StdPeriph_Driver/src/stm32f10x_flash.c ****   * @}
  91:./.driver/STM32F10x_StdPeriph_Driver/src/stm32f10x_flash.c ****   */ 
  92:./.driver/STM32F10x_StdPeriph_Driver/src/stm32f10x_flash.c **** 
  93:./.driver/STM32F10x_StdPeriph_Driver/src/stm32f10x_flash.c **** /** @defgroup FLASH_Private_Variables
  94:./.driver/STM32F10x_StdPeriph_Driver/src/stm32f10x_flash.c ****   * @{
  95:./.driver/STM32F10x_StdPeriph_Driver/src/stm32f10x_flash.c ****   */
  96:./.driver/STM32F10x_StdPeriph_Driver/src/stm32f10x_flash.c **** 
  97:./.driver/STM32F10x_StdPeriph_Driver/src/stm32f10x_flash.c **** /**
  98:./.driver/STM32F10x_StdPeriph_Driver/src/stm32f10x_flash.c ****   * @}
  99:./.driver/STM32F10x_StdPeriph_Driver/src/stm32f10x_flash.c ****   */ 
 100:./.driver/STM32F10x_StdPeriph_Driver/src/stm32f10x_flash.c **** 
 101:./.driver/STM32F10x_StdPeriph_Driver/src/stm32f10x_flash.c **** /** @defgroup FLASH_Private_FunctionPrototypes
 102:./.driver/STM32F10x_StdPeriph_Driver/src/stm32f10x_flash.c ****   * @{
 103:./.driver/STM32F10x_StdPeriph_Driver/src/stm32f10x_flash.c ****   */
 104:./.driver/STM32F10x_StdPeriph_Driver/src/stm32f10x_flash.c ****   
 105:./.driver/STM32F10x_StdPeriph_Driver/src/stm32f10x_flash.c **** /**
 106:./.driver/STM32F10x_StdPeriph_Driver/src/stm32f10x_flash.c ****   * @}
 107:./.driver/STM32F10x_StdPeriph_Driver/src/stm32f10x_flash.c ****   */
 108:./.driver/STM32F10x_StdPeriph_Driver/src/stm32f10x_flash.c **** 
 109:./.driver/STM32F10x_StdPeriph_Driver/src/stm32f10x_flash.c **** /** @defgroup FLASH_Private_Functions
 110:./.driver/STM32F10x_StdPeriph_Driver/src/stm32f10x_flash.c ****   * @{
 111:./.driver/STM32F10x_StdPeriph_Driver/src/stm32f10x_flash.c ****   */
 112:./.driver/STM32F10x_StdPeriph_Driver/src/stm32f10x_flash.c **** 
 113:./.driver/STM32F10x_StdPeriph_Driver/src/stm32f10x_flash.c **** /**
 114:./.driver/STM32F10x_StdPeriph_Driver/src/stm32f10x_flash.c **** @code  
 115:./.driver/STM32F10x_StdPeriph_Driver/src/stm32f10x_flash.c ****  
 116:./.driver/STM32F10x_StdPeriph_Driver/src/stm32f10x_flash.c ****  This driver provides functions to configure and program the Flash memory of all STM32F10x devices,
 117:./.driver/STM32F10x_StdPeriph_Driver/src/stm32f10x_flash.c ****  including the latest STM32F10x_XL density devices. 
 118:./.driver/STM32F10x_StdPeriph_Driver/src/stm32f10x_flash.c **** 
 119:./.driver/STM32F10x_StdPeriph_Driver/src/stm32f10x_flash.c ****  STM32F10x_XL devices feature up to 1 Mbyte with dual bank architecture for read-while-write (RWW) 
 120:./.driver/STM32F10x_StdPeriph_Driver/src/stm32f10x_flash.c ****     - bank1: fixed size of 512 Kbytes (256 pages of 2Kbytes each)
 121:./.driver/STM32F10x_StdPeriph_Driver/src/stm32f10x_flash.c ****     - bank2: up to 512 Kbytes (up to 256 pages of 2Kbytes each)
 122:./.driver/STM32F10x_StdPeriph_Driver/src/stm32f10x_flash.c ****  While other STM32F10x devices features only one bank with memory up to 512 Kbytes.
 123:./.driver/STM32F10x_StdPeriph_Driver/src/stm32f10x_flash.c **** 
 124:./.driver/STM32F10x_StdPeriph_Driver/src/stm32f10x_flash.c ****  In version V3.3.0, some functions were updated and new ones were added to support
 125:./.driver/STM32F10x_StdPeriph_Driver/src/stm32f10x_flash.c ****  STM32F10x_XL devices. Thus some functions manages all devices, while other are 
 126:./.driver/STM32F10x_StdPeriph_Driver/src/stm32f10x_flash.c ****  dedicated for XL devices only.
 127:./.driver/STM32F10x_StdPeriph_Driver/src/stm32f10x_flash.c ****  
 128:./.driver/STM32F10x_StdPeriph_Driver/src/stm32f10x_flash.c ****  The table below presents the list of available functions depending on the used STM32F10x devices. 
 129:./.driver/STM32F10x_StdPeriph_Driver/src/stm32f10x_flash.c ****       
 130:./.driver/STM32F10x_StdPeriph_Driver/src/stm32f10x_flash.c ****    ***************************************************
 131:./.driver/STM32F10x_StdPeriph_Driver/src/stm32f10x_flash.c ****    * Legacy functions used for all STM32F10x devices *
 132:./.driver/STM32F10x_StdPeriph_Driver/src/stm32f10x_flash.c ****    ***************************************************
 133:./.driver/STM32F10x_StdPeriph_Driver/src/stm32f10x_flash.c ****    +-----------------------------------------------------------------------------------------------
 134:./.driver/STM32F10x_StdPeriph_Driver/src/stm32f10x_flash.c ****    |       Functions prototypes         |STM32F10x_XL|Other STM32F10x|    Comments                 
 135:./.driver/STM32F10x_StdPeriph_Driver/src/stm32f10x_flash.c ****    |                                    |   devices  |  devices      |                             
 136:./.driver/STM32F10x_StdPeriph_Driver/src/stm32f10x_flash.c ****    |-----------------------------------------------------------------------------------------------
 137:./.driver/STM32F10x_StdPeriph_Driver/src/stm32f10x_flash.c ****    |FLASH_SetLatency                    |    Yes     |      Yes      | No change                   
 138:./.driver/STM32F10x_StdPeriph_Driver/src/stm32f10x_flash.c ****    |-----------------------------------------------------------------------------------------------
 139:./.driver/STM32F10x_StdPeriph_Driver/src/stm32f10x_flash.c ****    |FLASH_HalfCycleAccessCmd            |    Yes     |      Yes      | No change                   
 140:./.driver/STM32F10x_StdPeriph_Driver/src/stm32f10x_flash.c ****    |-----------------------------------------------------------------------------------------------
 141:./.driver/STM32F10x_StdPeriph_Driver/src/stm32f10x_flash.c ****    |FLASH_PrefetchBufferCmd             |    Yes     |      Yes      | No change                   
 142:./.driver/STM32F10x_StdPeriph_Driver/src/stm32f10x_flash.c ****    |-----------------------------------------------------------------------------------------------
 143:./.driver/STM32F10x_StdPeriph_Driver/src/stm32f10x_flash.c ****    |FLASH_Unlock                        |    Yes     |      Yes      | - For STM32F10X_XL devices: 
 144:./.driver/STM32F10x_StdPeriph_Driver/src/stm32f10x_flash.c ****    |                                    |            |               | - For other devices: unlock 
 145:./.driver/STM32F10x_StdPeriph_Driver/src/stm32f10x_flash.c ****    |                                    |            |               |   to FLASH_UnlockBank1 funct
 146:./.driver/STM32F10x_StdPeriph_Driver/src/stm32f10x_flash.c ****    |-----------------------------------------------------------------------------------------------
ARM GAS  C:\Users\SAMEER~1.ALM\AppData\Local\Temp\ccT7Y8qk.s 			page 4


 147:./.driver/STM32F10x_StdPeriph_Driver/src/stm32f10x_flash.c ****    |FLASH_Lock                          |    Yes     |      Yes      | - For STM32F10X_XL devices: 
 148:./.driver/STM32F10x_StdPeriph_Driver/src/stm32f10x_flash.c ****    |                                    |            |               | - For other devices: lock Ba
 149:./.driver/STM32F10x_StdPeriph_Driver/src/stm32f10x_flash.c ****    |                                    |            |               |   to FLASH_LockBank1 functio
 150:./.driver/STM32F10x_StdPeriph_Driver/src/stm32f10x_flash.c ****    |-----------------------------------------------------------------------------------------------
 151:./.driver/STM32F10x_StdPeriph_Driver/src/stm32f10x_flash.c ****    |FLASH_ErasePage                     |    Yes     |      Yes      | - For STM32F10x_XL devices: 
 152:./.driver/STM32F10x_StdPeriph_Driver/src/stm32f10x_flash.c ****    |                                    |            |               | - For other devices: erase a
 153:./.driver/STM32F10x_StdPeriph_Driver/src/stm32f10x_flash.c ****    |-----------------------------------------------------------------------------------------------
 154:./.driver/STM32F10x_StdPeriph_Driver/src/stm32f10x_flash.c ****    |FLASH_EraseAllPages                 |    Yes     |      Yes      | - For STM32F10x_XL devices: 
 155:./.driver/STM32F10x_StdPeriph_Driver/src/stm32f10x_flash.c ****    |                                    |            |               | - For other devices: erase a
 156:./.driver/STM32F10x_StdPeriph_Driver/src/stm32f10x_flash.c ****    |-----------------------------------------------------------------------------------------------
 157:./.driver/STM32F10x_StdPeriph_Driver/src/stm32f10x_flash.c ****    |FLASH_EraseOptionBytes              |    Yes     |      Yes      | No change                   
 158:./.driver/STM32F10x_StdPeriph_Driver/src/stm32f10x_flash.c ****    |-----------------------------------------------------------------------------------------------
 159:./.driver/STM32F10x_StdPeriph_Driver/src/stm32f10x_flash.c ****    |FLASH_ProgramWord                   |    Yes     |      Yes      | Updated to program up to 1MB
 160:./.driver/STM32F10x_StdPeriph_Driver/src/stm32f10x_flash.c ****    |-----------------------------------------------------------------------------------------------
 161:./.driver/STM32F10x_StdPeriph_Driver/src/stm32f10x_flash.c ****    |FLASH_ProgramHalfWord               |    Yes     |      Yes      | Updated to program up to 1MB
 162:./.driver/STM32F10x_StdPeriph_Driver/src/stm32f10x_flash.c ****    |-----------------------------------------------------------------------------------------------
 163:./.driver/STM32F10x_StdPeriph_Driver/src/stm32f10x_flash.c ****    |FLASH_ProgramOptionByteData         |    Yes     |      Yes      | No change                   
 164:./.driver/STM32F10x_StdPeriph_Driver/src/stm32f10x_flash.c ****    |-----------------------------------------------------------------------------------------------
 165:./.driver/STM32F10x_StdPeriph_Driver/src/stm32f10x_flash.c ****    |FLASH_EnableWriteProtection         |    Yes     |      Yes      | No change                   
 166:./.driver/STM32F10x_StdPeriph_Driver/src/stm32f10x_flash.c ****    |-----------------------------------------------------------------------------------------------
 167:./.driver/STM32F10x_StdPeriph_Driver/src/stm32f10x_flash.c ****    |FLASH_ReadOutProtection             |    Yes     |      Yes      | No change                   
 168:./.driver/STM32F10x_StdPeriph_Driver/src/stm32f10x_flash.c ****    |-----------------------------------------------------------------------------------------------
 169:./.driver/STM32F10x_StdPeriph_Driver/src/stm32f10x_flash.c ****    |FLASH_UserOptionByteConfig          |    Yes     |      Yes      | No change                   
 170:./.driver/STM32F10x_StdPeriph_Driver/src/stm32f10x_flash.c ****    |-----------------------------------------------------------------------------------------------
 171:./.driver/STM32F10x_StdPeriph_Driver/src/stm32f10x_flash.c ****    |FLASH_GetUserOptionByte             |    Yes     |      Yes      | No change                   
 172:./.driver/STM32F10x_StdPeriph_Driver/src/stm32f10x_flash.c ****    |-----------------------------------------------------------------------------------------------
 173:./.driver/STM32F10x_StdPeriph_Driver/src/stm32f10x_flash.c ****    |FLASH_GetWriteProtectionOptionByte  |    Yes     |      Yes      | No change                   
 174:./.driver/STM32F10x_StdPeriph_Driver/src/stm32f10x_flash.c ****    |-----------------------------------------------------------------------------------------------
 175:./.driver/STM32F10x_StdPeriph_Driver/src/stm32f10x_flash.c ****    |FLASH_GetReadOutProtectionStatus    |    Yes     |      Yes      | No change                   
 176:./.driver/STM32F10x_StdPeriph_Driver/src/stm32f10x_flash.c ****    |-----------------------------------------------------------------------------------------------
 177:./.driver/STM32F10x_StdPeriph_Driver/src/stm32f10x_flash.c ****    |FLASH_GetPrefetchBufferStatus       |    Yes     |      Yes      | No change                   
 178:./.driver/STM32F10x_StdPeriph_Driver/src/stm32f10x_flash.c ****    |-----------------------------------------------------------------------------------------------
 179:./.driver/STM32F10x_StdPeriph_Driver/src/stm32f10x_flash.c ****    |FLASH_ITConfig                      |    Yes     |      Yes      | - For STM32F10x_XL devices: 
 180:./.driver/STM32F10x_StdPeriph_Driver/src/stm32f10x_flash.c ****    |                                    |            |               | - For other devices: enable 
 181:./.driver/STM32F10x_StdPeriph_Driver/src/stm32f10x_flash.c ****    |-----------------------------------------------------------------------------------------------
 182:./.driver/STM32F10x_StdPeriph_Driver/src/stm32f10x_flash.c ****    |FLASH_GetFlagStatus                 |    Yes     |      Yes      | - For STM32F10x_XL devices: 
 183:./.driver/STM32F10x_StdPeriph_Driver/src/stm32f10x_flash.c ****    |                                    |            |               | - For other devices: return 
 184:./.driver/STM32F10x_StdPeriph_Driver/src/stm32f10x_flash.c ****    |-----------------------------------------------------------------------------------------------
 185:./.driver/STM32F10x_StdPeriph_Driver/src/stm32f10x_flash.c ****    |FLASH_ClearFlag                     |    Yes     |      Yes      | - For STM32F10x_XL devices: 
 186:./.driver/STM32F10x_StdPeriph_Driver/src/stm32f10x_flash.c ****    |                                    |            |               | - For other devices: clear B
 187:./.driver/STM32F10x_StdPeriph_Driver/src/stm32f10x_flash.c ****    |-----------------------------------------------------------------------------------------------
 188:./.driver/STM32F10x_StdPeriph_Driver/src/stm32f10x_flash.c ****    |FLASH_GetStatus                     |    Yes     |      Yes      | - Return the status of Bank1
 189:./.driver/STM32F10x_StdPeriph_Driver/src/stm32f10x_flash.c ****    |                                    |            |               |   equivalent to FLASH_GetBan
 190:./.driver/STM32F10x_StdPeriph_Driver/src/stm32f10x_flash.c ****    |-----------------------------------------------------------------------------------------------
 191:./.driver/STM32F10x_StdPeriph_Driver/src/stm32f10x_flash.c ****    |FLASH_WaitForLastOperation          |    Yes     |      Yes      | - Wait for Bank1 last operat
 192:./.driver/STM32F10x_StdPeriph_Driver/src/stm32f10x_flash.c ****    |                                    |            |               |   equivalent to: FLASH_WaitF
 193:./.driver/STM32F10x_StdPeriph_Driver/src/stm32f10x_flash.c ****    +-----------------------------------------------------------------------------------------------
 194:./.driver/STM32F10x_StdPeriph_Driver/src/stm32f10x_flash.c **** 
 195:./.driver/STM32F10x_StdPeriph_Driver/src/stm32f10x_flash.c ****    ************************************************************************************************
 196:./.driver/STM32F10x_StdPeriph_Driver/src/stm32f10x_flash.c ****    * New functions used for all STM32F10x devices to manage Bank1:                                 
 197:./.driver/STM32F10x_StdPeriph_Driver/src/stm32f10x_flash.c ****    *   - These functions are mainly useful for STM32F10x_XL density devices, to have separate contr
 198:./.driver/STM32F10x_StdPeriph_Driver/src/stm32f10x_flash.c ****    *   - For other devices, these functions are optional (covered by functions listed above)       
 199:./.driver/STM32F10x_StdPeriph_Driver/src/stm32f10x_flash.c ****    ************************************************************************************************
 200:./.driver/STM32F10x_StdPeriph_Driver/src/stm32f10x_flash.c ****    +-----------------------------------------------------------------------------------------------
 201:./.driver/STM32F10x_StdPeriph_Driver/src/stm32f10x_flash.c ****    |       Functions prototypes         |STM32F10x_XL|Other STM32F10x|    Comments                 
 202:./.driver/STM32F10x_StdPeriph_Driver/src/stm32f10x_flash.c ****    |                                    |   devices  |  devices      |                             
 203:./.driver/STM32F10x_StdPeriph_Driver/src/stm32f10x_flash.c ****    |-----------------------------------------------------------------------------------------------
ARM GAS  C:\Users\SAMEER~1.ALM\AppData\Local\Temp\ccT7Y8qk.s 			page 5


 204:./.driver/STM32F10x_StdPeriph_Driver/src/stm32f10x_flash.c ****    | FLASH_UnlockBank1                  |    Yes     |      Yes      | - Unlock Bank1              
 205:./.driver/STM32F10x_StdPeriph_Driver/src/stm32f10x_flash.c ****    |-----------------------------------------------------------------------------------------------
 206:./.driver/STM32F10x_StdPeriph_Driver/src/stm32f10x_flash.c ****    |FLASH_LockBank1                     |    Yes     |      Yes      | - Lock Bank1                
 207:./.driver/STM32F10x_StdPeriph_Driver/src/stm32f10x_flash.c ****    |-----------------------------------------------------------------------------------------------
 208:./.driver/STM32F10x_StdPeriph_Driver/src/stm32f10x_flash.c ****    | FLASH_EraseAllBank1Pages           |    Yes     |      Yes      | - Erase all pages in Bank1  
 209:./.driver/STM32F10x_StdPeriph_Driver/src/stm32f10x_flash.c ****    |-----------------------------------------------------------------------------------------------
 210:./.driver/STM32F10x_StdPeriph_Driver/src/stm32f10x_flash.c ****    | FLASH_GetBank1Status               |    Yes     |      Yes      | - Return the status of Bank1
 211:./.driver/STM32F10x_StdPeriph_Driver/src/stm32f10x_flash.c ****    |-----------------------------------------------------------------------------------------------
 212:./.driver/STM32F10x_StdPeriph_Driver/src/stm32f10x_flash.c ****    | FLASH_WaitForLastBank1Operation    |    Yes     |      Yes      | - Wait for Bank1 last operat
 213:./.driver/STM32F10x_StdPeriph_Driver/src/stm32f10x_flash.c ****    +-----------------------------------------------------------------------------------------------
 214:./.driver/STM32F10x_StdPeriph_Driver/src/stm32f10x_flash.c **** 
 215:./.driver/STM32F10x_StdPeriph_Driver/src/stm32f10x_flash.c ****    *****************************************************************************
 216:./.driver/STM32F10x_StdPeriph_Driver/src/stm32f10x_flash.c ****    * New Functions used only with STM32F10x_XL density devices to manage Bank2 *
 217:./.driver/STM32F10x_StdPeriph_Driver/src/stm32f10x_flash.c ****    *****************************************************************************
 218:./.driver/STM32F10x_StdPeriph_Driver/src/stm32f10x_flash.c ****    +-----------------------------------------------------------------------------------------------
 219:./.driver/STM32F10x_StdPeriph_Driver/src/stm32f10x_flash.c ****    |       Functions prototypes         |STM32F10x_XL|Other STM32F10x|    Comments                 
 220:./.driver/STM32F10x_StdPeriph_Driver/src/stm32f10x_flash.c ****    |                                    |   devices  |  devices      |                             
 221:./.driver/STM32F10x_StdPeriph_Driver/src/stm32f10x_flash.c ****    |-----------------------------------------------------------------------------------------------
 222:./.driver/STM32F10x_StdPeriph_Driver/src/stm32f10x_flash.c ****    | FLASH_UnlockBank2                  |    Yes     |      No       | - Unlock Bank2              
 223:./.driver/STM32F10x_StdPeriph_Driver/src/stm32f10x_flash.c ****    |-----------------------------------------------------------------------------------------------
 224:./.driver/STM32F10x_StdPeriph_Driver/src/stm32f10x_flash.c ****    |FLASH_LockBank2                     |    Yes     |      No       | - Lock Bank2                
 225:./.driver/STM32F10x_StdPeriph_Driver/src/stm32f10x_flash.c ****    |-----------------------------------------------------------------------------------------------
 226:./.driver/STM32F10x_StdPeriph_Driver/src/stm32f10x_flash.c ****    | FLASH_EraseAllBank2Pages           |    Yes     |      No       | - Erase all pages in Bank2  
 227:./.driver/STM32F10x_StdPeriph_Driver/src/stm32f10x_flash.c ****    |-----------------------------------------------------------------------------------------------
 228:./.driver/STM32F10x_StdPeriph_Driver/src/stm32f10x_flash.c ****    | FLASH_GetBank2Status               |    Yes     |      No       | - Return the status of Bank2
 229:./.driver/STM32F10x_StdPeriph_Driver/src/stm32f10x_flash.c ****    |-----------------------------------------------------------------------------------------------
 230:./.driver/STM32F10x_StdPeriph_Driver/src/stm32f10x_flash.c ****    | FLASH_WaitForLastBank2Operation    |    Yes     |      No       | - Wait for Bank2 last operat
 231:./.driver/STM32F10x_StdPeriph_Driver/src/stm32f10x_flash.c ****    |-----------------------------------------------------------------------------------------------
 232:./.driver/STM32F10x_StdPeriph_Driver/src/stm32f10x_flash.c ****    | FLASH_BootConfig                   |    Yes     |      No       | - Configure to boot from Ban
 233:./.driver/STM32F10x_StdPeriph_Driver/src/stm32f10x_flash.c ****    +-----------------------------------------------------------------------------------------------
 234:./.driver/STM32F10x_StdPeriph_Driver/src/stm32f10x_flash.c **** @endcode
 235:./.driver/STM32F10x_StdPeriph_Driver/src/stm32f10x_flash.c **** */
 236:./.driver/STM32F10x_StdPeriph_Driver/src/stm32f10x_flash.c **** 
 237:./.driver/STM32F10x_StdPeriph_Driver/src/stm32f10x_flash.c **** 
 238:./.driver/STM32F10x_StdPeriph_Driver/src/stm32f10x_flash.c **** /**
 239:./.driver/STM32F10x_StdPeriph_Driver/src/stm32f10x_flash.c ****   * @brief  Sets the code latency value.
 240:./.driver/STM32F10x_StdPeriph_Driver/src/stm32f10x_flash.c ****   * @note   This function can be used for all STM32F10x devices.
 241:./.driver/STM32F10x_StdPeriph_Driver/src/stm32f10x_flash.c ****   * @param  FLASH_Latency: specifies the FLASH Latency value.
 242:./.driver/STM32F10x_StdPeriph_Driver/src/stm32f10x_flash.c ****   *   This parameter can be one of the following values:
 243:./.driver/STM32F10x_StdPeriph_Driver/src/stm32f10x_flash.c ****   *     @arg FLASH_Latency_0: FLASH Zero Latency cycle
 244:./.driver/STM32F10x_StdPeriph_Driver/src/stm32f10x_flash.c ****   *     @arg FLASH_Latency_1: FLASH One Latency cycle
 245:./.driver/STM32F10x_StdPeriph_Driver/src/stm32f10x_flash.c ****   *     @arg FLASH_Latency_2: FLASH Two Latency cycles
 246:./.driver/STM32F10x_StdPeriph_Driver/src/stm32f10x_flash.c ****   * @retval None
 247:./.driver/STM32F10x_StdPeriph_Driver/src/stm32f10x_flash.c ****   */
 248:./.driver/STM32F10x_StdPeriph_Driver/src/stm32f10x_flash.c **** void FLASH_SetLatency(uint32_t FLASH_Latency)
 249:./.driver/STM32F10x_StdPeriph_Driver/src/stm32f10x_flash.c **** {
  27              		.loc 1 249 1
  28              		.cfi_startproc
  29              		@ args = 0, pretend = 0, frame = 16
  30              		@ frame_needed = 1, uses_anonymous_args = 0
  31              		@ link register save eliminated.
  32 0000 80B4     		push	{r7}
  33              	.LCFI0:
  34              		.cfi_def_cfa_offset 4
  35              		.cfi_offset 7, -4
  36 0002 85B0     		sub	sp, sp, #20
  37              	.LCFI1:
ARM GAS  C:\Users\SAMEER~1.ALM\AppData\Local\Temp\ccT7Y8qk.s 			page 6


  38              		.cfi_def_cfa_offset 24
  39 0004 00AF     		add	r7, sp, #0
  40              	.LCFI2:
  41              		.cfi_def_cfa_register 7
  42 0006 7860     		str	r0, [r7, #4]
 250:./.driver/STM32F10x_StdPeriph_Driver/src/stm32f10x_flash.c ****   uint32_t tmpreg = 0;
  43              		.loc 1 250 12
  44 0008 0023     		movs	r3, #0
  45 000a FB60     		str	r3, [r7, #12]
 251:./.driver/STM32F10x_StdPeriph_Driver/src/stm32f10x_flash.c ****   
 252:./.driver/STM32F10x_StdPeriph_Driver/src/stm32f10x_flash.c ****   /* Check the parameters */
 253:./.driver/STM32F10x_StdPeriph_Driver/src/stm32f10x_flash.c ****   assert_param(IS_FLASH_LATENCY(FLASH_Latency));
 254:./.driver/STM32F10x_StdPeriph_Driver/src/stm32f10x_flash.c ****   
 255:./.driver/STM32F10x_StdPeriph_Driver/src/stm32f10x_flash.c ****   /* Read the ACR register */
 256:./.driver/STM32F10x_StdPeriph_Driver/src/stm32f10x_flash.c ****   tmpreg = FLASH->ACR;  
  46              		.loc 1 256 17
  47 000c 094B     		ldr	r3, .L2
  48              		.loc 1 256 10
  49 000e 1B68     		ldr	r3, [r3]
  50 0010 FB60     		str	r3, [r7, #12]
 257:./.driver/STM32F10x_StdPeriph_Driver/src/stm32f10x_flash.c ****   
 258:./.driver/STM32F10x_StdPeriph_Driver/src/stm32f10x_flash.c ****   /* Sets the Latency value */
 259:./.driver/STM32F10x_StdPeriph_Driver/src/stm32f10x_flash.c ****   tmpreg &= ACR_LATENCY_Mask;
  51              		.loc 1 259 10
  52 0012 FB68     		ldr	r3, [r7, #12]
  53 0014 03F03803 		and	r3, r3, #56
  54 0018 FB60     		str	r3, [r7, #12]
 260:./.driver/STM32F10x_StdPeriph_Driver/src/stm32f10x_flash.c ****   tmpreg |= FLASH_Latency;
  55              		.loc 1 260 10
  56 001a FA68     		ldr	r2, [r7, #12]
  57 001c 7B68     		ldr	r3, [r7, #4]
  58 001e 1343     		orrs	r3, r3, r2
  59 0020 FB60     		str	r3, [r7, #12]
 261:./.driver/STM32F10x_StdPeriph_Driver/src/stm32f10x_flash.c ****   
 262:./.driver/STM32F10x_StdPeriph_Driver/src/stm32f10x_flash.c ****   /* Write the ACR register */
 263:./.driver/STM32F10x_StdPeriph_Driver/src/stm32f10x_flash.c ****   FLASH->ACR = tmpreg;
  60              		.loc 1 263 8
  61 0022 044A     		ldr	r2, .L2
  62              		.loc 1 263 14
  63 0024 FB68     		ldr	r3, [r7, #12]
  64 0026 1360     		str	r3, [r2]
 264:./.driver/STM32F10x_StdPeriph_Driver/src/stm32f10x_flash.c **** }
  65              		.loc 1 264 1
  66 0028 00BF     		nop
  67 002a 1437     		adds	r7, r7, #20
  68              	.LCFI3:
  69              		.cfi_def_cfa_offset 4
  70 002c BD46     		mov	sp, r7
  71              	.LCFI4:
  72              		.cfi_def_cfa_register 13
  73              		@ sp needed
  74 002e 80BC     		pop	{r7}
  75              	.LCFI5:
  76              		.cfi_restore 7
  77              		.cfi_def_cfa_offset 0
  78 0030 7047     		bx	lr
  79              	.L3:
ARM GAS  C:\Users\SAMEER~1.ALM\AppData\Local\Temp\ccT7Y8qk.s 			page 7


  80 0032 00BF     		.align	2
  81              	.L2:
  82 0034 00200240 		.word	1073881088
  83              		.cfi_endproc
  84              	.LFE29:
  86              		.section	.text.FLASH_HalfCycleAccessCmd,"ax",%progbits
  87              		.align	1
  88              		.global	FLASH_HalfCycleAccessCmd
  89              		.syntax unified
  90              		.thumb
  91              		.thumb_func
  93              	FLASH_HalfCycleAccessCmd:
  94              	.LFB30:
 265:./.driver/STM32F10x_StdPeriph_Driver/src/stm32f10x_flash.c **** 
 266:./.driver/STM32F10x_StdPeriph_Driver/src/stm32f10x_flash.c **** /**
 267:./.driver/STM32F10x_StdPeriph_Driver/src/stm32f10x_flash.c ****   * @brief  Enables or disables the Half cycle flash access.
 268:./.driver/STM32F10x_StdPeriph_Driver/src/stm32f10x_flash.c ****   * @note   This function can be used for all STM32F10x devices.
 269:./.driver/STM32F10x_StdPeriph_Driver/src/stm32f10x_flash.c ****   * @param  FLASH_HalfCycleAccess: specifies the FLASH Half cycle Access mode.
 270:./.driver/STM32F10x_StdPeriph_Driver/src/stm32f10x_flash.c ****   *   This parameter can be one of the following values:
 271:./.driver/STM32F10x_StdPeriph_Driver/src/stm32f10x_flash.c ****   *     @arg FLASH_HalfCycleAccess_Enable: FLASH Half Cycle Enable
 272:./.driver/STM32F10x_StdPeriph_Driver/src/stm32f10x_flash.c ****   *     @arg FLASH_HalfCycleAccess_Disable: FLASH Half Cycle Disable
 273:./.driver/STM32F10x_StdPeriph_Driver/src/stm32f10x_flash.c ****   * @retval None
 274:./.driver/STM32F10x_StdPeriph_Driver/src/stm32f10x_flash.c ****   */
 275:./.driver/STM32F10x_StdPeriph_Driver/src/stm32f10x_flash.c **** void FLASH_HalfCycleAccessCmd(uint32_t FLASH_HalfCycleAccess)
 276:./.driver/STM32F10x_StdPeriph_Driver/src/stm32f10x_flash.c **** {
  95              		.loc 1 276 1
  96              		.cfi_startproc
  97              		@ args = 0, pretend = 0, frame = 8
  98              		@ frame_needed = 1, uses_anonymous_args = 0
  99              		@ link register save eliminated.
 100 0000 80B4     		push	{r7}
 101              	.LCFI6:
 102              		.cfi_def_cfa_offset 4
 103              		.cfi_offset 7, -4
 104 0002 83B0     		sub	sp, sp, #12
 105              	.LCFI7:
 106              		.cfi_def_cfa_offset 16
 107 0004 00AF     		add	r7, sp, #0
 108              	.LCFI8:
 109              		.cfi_def_cfa_register 7
 110 0006 7860     		str	r0, [r7, #4]
 277:./.driver/STM32F10x_StdPeriph_Driver/src/stm32f10x_flash.c ****   /* Check the parameters */
 278:./.driver/STM32F10x_StdPeriph_Driver/src/stm32f10x_flash.c ****   assert_param(IS_FLASH_HALFCYCLEACCESS_STATE(FLASH_HalfCycleAccess));
 279:./.driver/STM32F10x_StdPeriph_Driver/src/stm32f10x_flash.c ****   
 280:./.driver/STM32F10x_StdPeriph_Driver/src/stm32f10x_flash.c ****   /* Enable or disable the Half cycle access */
 281:./.driver/STM32F10x_StdPeriph_Driver/src/stm32f10x_flash.c ****   FLASH->ACR &= ACR_HLFCYA_Mask;
 111              		.loc 1 281 14
 112 0008 084B     		ldr	r3, .L5
 113 000a 1B68     		ldr	r3, [r3]
 114 000c 074A     		ldr	r2, .L5
 115 000e 23F00803 		bic	r3, r3, #8
 116 0012 1360     		str	r3, [r2]
 282:./.driver/STM32F10x_StdPeriph_Driver/src/stm32f10x_flash.c ****   FLASH->ACR |= FLASH_HalfCycleAccess;
 117              		.loc 1 282 14
 118 0014 054B     		ldr	r3, .L5
 119 0016 1A68     		ldr	r2, [r3]
 120 0018 0449     		ldr	r1, .L5
ARM GAS  C:\Users\SAMEER~1.ALM\AppData\Local\Temp\ccT7Y8qk.s 			page 8


 121 001a 7B68     		ldr	r3, [r7, #4]
 122 001c 1343     		orrs	r3, r3, r2
 123 001e 0B60     		str	r3, [r1]
 283:./.driver/STM32F10x_StdPeriph_Driver/src/stm32f10x_flash.c **** }
 124              		.loc 1 283 1
 125 0020 00BF     		nop
 126 0022 0C37     		adds	r7, r7, #12
 127              	.LCFI9:
 128              		.cfi_def_cfa_offset 4
 129 0024 BD46     		mov	sp, r7
 130              	.LCFI10:
 131              		.cfi_def_cfa_register 13
 132              		@ sp needed
 133 0026 80BC     		pop	{r7}
 134              	.LCFI11:
 135              		.cfi_restore 7
 136              		.cfi_def_cfa_offset 0
 137 0028 7047     		bx	lr
 138              	.L6:
 139 002a 00BF     		.align	2
 140              	.L5:
 141 002c 00200240 		.word	1073881088
 142              		.cfi_endproc
 143              	.LFE30:
 145              		.section	.text.FLASH_PrefetchBufferCmd,"ax",%progbits
 146              		.align	1
 147              		.global	FLASH_PrefetchBufferCmd
 148              		.syntax unified
 149              		.thumb
 150              		.thumb_func
 152              	FLASH_PrefetchBufferCmd:
 153              	.LFB31:
 284:./.driver/STM32F10x_StdPeriph_Driver/src/stm32f10x_flash.c **** 
 285:./.driver/STM32F10x_StdPeriph_Driver/src/stm32f10x_flash.c **** /**
 286:./.driver/STM32F10x_StdPeriph_Driver/src/stm32f10x_flash.c ****   * @brief  Enables or disables the Prefetch Buffer.
 287:./.driver/STM32F10x_StdPeriph_Driver/src/stm32f10x_flash.c ****   * @note   This function can be used for all STM32F10x devices.
 288:./.driver/STM32F10x_StdPeriph_Driver/src/stm32f10x_flash.c ****   * @param  FLASH_PrefetchBuffer: specifies the Prefetch buffer status.
 289:./.driver/STM32F10x_StdPeriph_Driver/src/stm32f10x_flash.c ****   *   This parameter can be one of the following values:
 290:./.driver/STM32F10x_StdPeriph_Driver/src/stm32f10x_flash.c ****   *     @arg FLASH_PrefetchBuffer_Enable: FLASH Prefetch Buffer Enable
 291:./.driver/STM32F10x_StdPeriph_Driver/src/stm32f10x_flash.c ****   *     @arg FLASH_PrefetchBuffer_Disable: FLASH Prefetch Buffer Disable
 292:./.driver/STM32F10x_StdPeriph_Driver/src/stm32f10x_flash.c ****   * @retval None
 293:./.driver/STM32F10x_StdPeriph_Driver/src/stm32f10x_flash.c ****   */
 294:./.driver/STM32F10x_StdPeriph_Driver/src/stm32f10x_flash.c **** void FLASH_PrefetchBufferCmd(uint32_t FLASH_PrefetchBuffer)
 295:./.driver/STM32F10x_StdPeriph_Driver/src/stm32f10x_flash.c **** {
 154              		.loc 1 295 1
 155              		.cfi_startproc
 156              		@ args = 0, pretend = 0, frame = 8
 157              		@ frame_needed = 1, uses_anonymous_args = 0
 158              		@ link register save eliminated.
 159 0000 80B4     		push	{r7}
 160              	.LCFI12:
 161              		.cfi_def_cfa_offset 4
 162              		.cfi_offset 7, -4
 163 0002 83B0     		sub	sp, sp, #12
 164              	.LCFI13:
 165              		.cfi_def_cfa_offset 16
 166 0004 00AF     		add	r7, sp, #0
ARM GAS  C:\Users\SAMEER~1.ALM\AppData\Local\Temp\ccT7Y8qk.s 			page 9


 167              	.LCFI14:
 168              		.cfi_def_cfa_register 7
 169 0006 7860     		str	r0, [r7, #4]
 296:./.driver/STM32F10x_StdPeriph_Driver/src/stm32f10x_flash.c ****   /* Check the parameters */
 297:./.driver/STM32F10x_StdPeriph_Driver/src/stm32f10x_flash.c ****   assert_param(IS_FLASH_PREFETCHBUFFER_STATE(FLASH_PrefetchBuffer));
 298:./.driver/STM32F10x_StdPeriph_Driver/src/stm32f10x_flash.c ****   
 299:./.driver/STM32F10x_StdPeriph_Driver/src/stm32f10x_flash.c ****   /* Enable or disable the Prefetch Buffer */
 300:./.driver/STM32F10x_StdPeriph_Driver/src/stm32f10x_flash.c ****   FLASH->ACR &= ACR_PRFTBE_Mask;
 170              		.loc 1 300 14
 171 0008 084B     		ldr	r3, .L8
 172 000a 1B68     		ldr	r3, [r3]
 173 000c 074A     		ldr	r2, .L8
 174 000e 23F01003 		bic	r3, r3, #16
 175 0012 1360     		str	r3, [r2]
 301:./.driver/STM32F10x_StdPeriph_Driver/src/stm32f10x_flash.c ****   FLASH->ACR |= FLASH_PrefetchBuffer;
 176              		.loc 1 301 14
 177 0014 054B     		ldr	r3, .L8
 178 0016 1A68     		ldr	r2, [r3]
 179 0018 0449     		ldr	r1, .L8
 180 001a 7B68     		ldr	r3, [r7, #4]
 181 001c 1343     		orrs	r3, r3, r2
 182 001e 0B60     		str	r3, [r1]
 302:./.driver/STM32F10x_StdPeriph_Driver/src/stm32f10x_flash.c **** }
 183              		.loc 1 302 1
 184 0020 00BF     		nop
 185 0022 0C37     		adds	r7, r7, #12
 186              	.LCFI15:
 187              		.cfi_def_cfa_offset 4
 188 0024 BD46     		mov	sp, r7
 189              	.LCFI16:
 190              		.cfi_def_cfa_register 13
 191              		@ sp needed
 192 0026 80BC     		pop	{r7}
 193              	.LCFI17:
 194              		.cfi_restore 7
 195              		.cfi_def_cfa_offset 0
 196 0028 7047     		bx	lr
 197              	.L9:
 198 002a 00BF     		.align	2
 199              	.L8:
 200 002c 00200240 		.word	1073881088
 201              		.cfi_endproc
 202              	.LFE31:
 204              		.section	.text.FLASH_Unlock,"ax",%progbits
 205              		.align	1
 206              		.global	FLASH_Unlock
 207              		.syntax unified
 208              		.thumb
 209              		.thumb_func
 211              	FLASH_Unlock:
 212              	.LFB32:
 303:./.driver/STM32F10x_StdPeriph_Driver/src/stm32f10x_flash.c **** 
 304:./.driver/STM32F10x_StdPeriph_Driver/src/stm32f10x_flash.c **** /**
 305:./.driver/STM32F10x_StdPeriph_Driver/src/stm32f10x_flash.c ****   * @brief  Unlocks the FLASH Program Erase Controller.
 306:./.driver/STM32F10x_StdPeriph_Driver/src/stm32f10x_flash.c ****   * @note   This function can be used for all STM32F10x devices.
 307:./.driver/STM32F10x_StdPeriph_Driver/src/stm32f10x_flash.c ****   *         - For STM32F10X_XL devices this function unlocks Bank1 and Bank2.
 308:./.driver/STM32F10x_StdPeriph_Driver/src/stm32f10x_flash.c ****   *         - For all other devices it unlocks Bank1 and it is equivalent 
ARM GAS  C:\Users\SAMEER~1.ALM\AppData\Local\Temp\ccT7Y8qk.s 			page 10


 309:./.driver/STM32F10x_StdPeriph_Driver/src/stm32f10x_flash.c ****   *           to FLASH_UnlockBank1 function.. 
 310:./.driver/STM32F10x_StdPeriph_Driver/src/stm32f10x_flash.c ****   * @param  None
 311:./.driver/STM32F10x_StdPeriph_Driver/src/stm32f10x_flash.c ****   * @retval None
 312:./.driver/STM32F10x_StdPeriph_Driver/src/stm32f10x_flash.c ****   */
 313:./.driver/STM32F10x_StdPeriph_Driver/src/stm32f10x_flash.c **** void FLASH_Unlock(void)
 314:./.driver/STM32F10x_StdPeriph_Driver/src/stm32f10x_flash.c **** {
 213              		.loc 1 314 1
 214              		.cfi_startproc
 215              		@ args = 0, pretend = 0, frame = 0
 216              		@ frame_needed = 1, uses_anonymous_args = 0
 217              		@ link register save eliminated.
 218 0000 80B4     		push	{r7}
 219              	.LCFI18:
 220              		.cfi_def_cfa_offset 4
 221              		.cfi_offset 7, -4
 222 0002 00AF     		add	r7, sp, #0
 223              	.LCFI19:
 224              		.cfi_def_cfa_register 7
 315:./.driver/STM32F10x_StdPeriph_Driver/src/stm32f10x_flash.c ****   /* Authorize the FPEC of Bank1 Access */
 316:./.driver/STM32F10x_StdPeriph_Driver/src/stm32f10x_flash.c ****   FLASH->KEYR = FLASH_KEY1;
 225              		.loc 1 316 8
 226 0004 044B     		ldr	r3, .L11
 227              		.loc 1 316 15
 228 0006 054A     		ldr	r2, .L11+4
 229 0008 5A60     		str	r2, [r3, #4]
 317:./.driver/STM32F10x_StdPeriph_Driver/src/stm32f10x_flash.c ****   FLASH->KEYR = FLASH_KEY2;
 230              		.loc 1 317 8
 231 000a 034B     		ldr	r3, .L11
 232              		.loc 1 317 15
 233 000c 044A     		ldr	r2, .L11+8
 234 000e 5A60     		str	r2, [r3, #4]
 318:./.driver/STM32F10x_StdPeriph_Driver/src/stm32f10x_flash.c **** 
 319:./.driver/STM32F10x_StdPeriph_Driver/src/stm32f10x_flash.c **** #ifdef STM32F10X_XL
 320:./.driver/STM32F10x_StdPeriph_Driver/src/stm32f10x_flash.c ****   /* Authorize the FPEC of Bank2 Access */
 321:./.driver/STM32F10x_StdPeriph_Driver/src/stm32f10x_flash.c ****   FLASH->KEYR2 = FLASH_KEY1;
 322:./.driver/STM32F10x_StdPeriph_Driver/src/stm32f10x_flash.c ****   FLASH->KEYR2 = FLASH_KEY2;
 323:./.driver/STM32F10x_StdPeriph_Driver/src/stm32f10x_flash.c **** #endif /* STM32F10X_XL */
 324:./.driver/STM32F10x_StdPeriph_Driver/src/stm32f10x_flash.c **** }
 235              		.loc 1 324 1
 236 0010 00BF     		nop
 237 0012 BD46     		mov	sp, r7
 238              	.LCFI20:
 239              		.cfi_def_cfa_register 13
 240              		@ sp needed
 241 0014 80BC     		pop	{r7}
 242              	.LCFI21:
 243              		.cfi_restore 7
 244              		.cfi_def_cfa_offset 0
 245 0016 7047     		bx	lr
 246              	.L12:
 247              		.align	2
 248              	.L11:
 249 0018 00200240 		.word	1073881088
 250 001c 23016745 		.word	1164378403
 251 0020 AB89EFCD 		.word	-839939669
 252              		.cfi_endproc
 253              	.LFE32:
ARM GAS  C:\Users\SAMEER~1.ALM\AppData\Local\Temp\ccT7Y8qk.s 			page 11


 255              		.section	.text.FLASH_UnlockBank1,"ax",%progbits
 256              		.align	1
 257              		.global	FLASH_UnlockBank1
 258              		.syntax unified
 259              		.thumb
 260              		.thumb_func
 262              	FLASH_UnlockBank1:
 263              	.LFB33:
 325:./.driver/STM32F10x_StdPeriph_Driver/src/stm32f10x_flash.c **** /**
 326:./.driver/STM32F10x_StdPeriph_Driver/src/stm32f10x_flash.c ****   * @brief  Unlocks the FLASH Bank1 Program Erase Controller.
 327:./.driver/STM32F10x_StdPeriph_Driver/src/stm32f10x_flash.c ****   * @note   This function can be used for all STM32F10x devices.
 328:./.driver/STM32F10x_StdPeriph_Driver/src/stm32f10x_flash.c ****   *         - For STM32F10X_XL devices this function unlocks Bank1.
 329:./.driver/STM32F10x_StdPeriph_Driver/src/stm32f10x_flash.c ****   *         - For all other devices it unlocks Bank1 and it is 
 330:./.driver/STM32F10x_StdPeriph_Driver/src/stm32f10x_flash.c ****   *           equivalent to FLASH_Unlock function.
 331:./.driver/STM32F10x_StdPeriph_Driver/src/stm32f10x_flash.c ****   * @param  None
 332:./.driver/STM32F10x_StdPeriph_Driver/src/stm32f10x_flash.c ****   * @retval None
 333:./.driver/STM32F10x_StdPeriph_Driver/src/stm32f10x_flash.c ****   */
 334:./.driver/STM32F10x_StdPeriph_Driver/src/stm32f10x_flash.c **** void FLASH_UnlockBank1(void)
 335:./.driver/STM32F10x_StdPeriph_Driver/src/stm32f10x_flash.c **** {
 264              		.loc 1 335 1
 265              		.cfi_startproc
 266              		@ args = 0, pretend = 0, frame = 0
 267              		@ frame_needed = 1, uses_anonymous_args = 0
 268              		@ link register save eliminated.
 269 0000 80B4     		push	{r7}
 270              	.LCFI22:
 271              		.cfi_def_cfa_offset 4
 272              		.cfi_offset 7, -4
 273 0002 00AF     		add	r7, sp, #0
 274              	.LCFI23:
 275              		.cfi_def_cfa_register 7
 336:./.driver/STM32F10x_StdPeriph_Driver/src/stm32f10x_flash.c ****   /* Authorize the FPEC of Bank1 Access */
 337:./.driver/STM32F10x_StdPeriph_Driver/src/stm32f10x_flash.c ****   FLASH->KEYR = FLASH_KEY1;
 276              		.loc 1 337 8
 277 0004 044B     		ldr	r3, .L14
 278              		.loc 1 337 15
 279 0006 054A     		ldr	r2, .L14+4
 280 0008 5A60     		str	r2, [r3, #4]
 338:./.driver/STM32F10x_StdPeriph_Driver/src/stm32f10x_flash.c ****   FLASH->KEYR = FLASH_KEY2;
 281              		.loc 1 338 8
 282 000a 034B     		ldr	r3, .L14
 283              		.loc 1 338 15
 284 000c 044A     		ldr	r2, .L14+8
 285 000e 5A60     		str	r2, [r3, #4]
 339:./.driver/STM32F10x_StdPeriph_Driver/src/stm32f10x_flash.c **** }
 286              		.loc 1 339 1
 287 0010 00BF     		nop
 288 0012 BD46     		mov	sp, r7
 289              	.LCFI24:
 290              		.cfi_def_cfa_register 13
 291              		@ sp needed
 292 0014 80BC     		pop	{r7}
 293              	.LCFI25:
 294              		.cfi_restore 7
 295              		.cfi_def_cfa_offset 0
 296 0016 7047     		bx	lr
 297              	.L15:
ARM GAS  C:\Users\SAMEER~1.ALM\AppData\Local\Temp\ccT7Y8qk.s 			page 12


 298              		.align	2
 299              	.L14:
 300 0018 00200240 		.word	1073881088
 301 001c 23016745 		.word	1164378403
 302 0020 AB89EFCD 		.word	-839939669
 303              		.cfi_endproc
 304              	.LFE33:
 306              		.section	.text.FLASH_Lock,"ax",%progbits
 307              		.align	1
 308              		.global	FLASH_Lock
 309              		.syntax unified
 310              		.thumb
 311              		.thumb_func
 313              	FLASH_Lock:
 314              	.LFB34:
 340:./.driver/STM32F10x_StdPeriph_Driver/src/stm32f10x_flash.c **** 
 341:./.driver/STM32F10x_StdPeriph_Driver/src/stm32f10x_flash.c **** #ifdef STM32F10X_XL
 342:./.driver/STM32F10x_StdPeriph_Driver/src/stm32f10x_flash.c **** /**
 343:./.driver/STM32F10x_StdPeriph_Driver/src/stm32f10x_flash.c ****   * @brief  Unlocks the FLASH Bank2 Program Erase Controller.
 344:./.driver/STM32F10x_StdPeriph_Driver/src/stm32f10x_flash.c ****   * @note   This function can be used only for STM32F10X_XL density devices.
 345:./.driver/STM32F10x_StdPeriph_Driver/src/stm32f10x_flash.c ****   * @param  None
 346:./.driver/STM32F10x_StdPeriph_Driver/src/stm32f10x_flash.c ****   * @retval None
 347:./.driver/STM32F10x_StdPeriph_Driver/src/stm32f10x_flash.c ****   */
 348:./.driver/STM32F10x_StdPeriph_Driver/src/stm32f10x_flash.c **** void FLASH_UnlockBank2(void)
 349:./.driver/STM32F10x_StdPeriph_Driver/src/stm32f10x_flash.c **** {
 350:./.driver/STM32F10x_StdPeriph_Driver/src/stm32f10x_flash.c ****   /* Authorize the FPEC of Bank2 Access */
 351:./.driver/STM32F10x_StdPeriph_Driver/src/stm32f10x_flash.c ****   FLASH->KEYR2 = FLASH_KEY1;
 352:./.driver/STM32F10x_StdPeriph_Driver/src/stm32f10x_flash.c ****   FLASH->KEYR2 = FLASH_KEY2;
 353:./.driver/STM32F10x_StdPeriph_Driver/src/stm32f10x_flash.c **** 
 354:./.driver/STM32F10x_StdPeriph_Driver/src/stm32f10x_flash.c **** }
 355:./.driver/STM32F10x_StdPeriph_Driver/src/stm32f10x_flash.c **** #endif /* STM32F10X_XL */
 356:./.driver/STM32F10x_StdPeriph_Driver/src/stm32f10x_flash.c **** 
 357:./.driver/STM32F10x_StdPeriph_Driver/src/stm32f10x_flash.c **** /**
 358:./.driver/STM32F10x_StdPeriph_Driver/src/stm32f10x_flash.c ****   * @brief  Locks the FLASH Program Erase Controller.
 359:./.driver/STM32F10x_StdPeriph_Driver/src/stm32f10x_flash.c ****   * @note   This function can be used for all STM32F10x devices.
 360:./.driver/STM32F10x_StdPeriph_Driver/src/stm32f10x_flash.c ****   *         - For STM32F10X_XL devices this function Locks Bank1 and Bank2.
 361:./.driver/STM32F10x_StdPeriph_Driver/src/stm32f10x_flash.c ****   *         - For all other devices it Locks Bank1 and it is equivalent 
 362:./.driver/STM32F10x_StdPeriph_Driver/src/stm32f10x_flash.c ****   *           to FLASH_LockBank1 function.
 363:./.driver/STM32F10x_StdPeriph_Driver/src/stm32f10x_flash.c ****   * @param  None
 364:./.driver/STM32F10x_StdPeriph_Driver/src/stm32f10x_flash.c ****   * @retval None
 365:./.driver/STM32F10x_StdPeriph_Driver/src/stm32f10x_flash.c ****   */
 366:./.driver/STM32F10x_StdPeriph_Driver/src/stm32f10x_flash.c **** void FLASH_Lock(void)
 367:./.driver/STM32F10x_StdPeriph_Driver/src/stm32f10x_flash.c **** {
 315              		.loc 1 367 1
 316              		.cfi_startproc
 317              		@ args = 0, pretend = 0, frame = 0
 318              		@ frame_needed = 1, uses_anonymous_args = 0
 319              		@ link register save eliminated.
 320 0000 80B4     		push	{r7}
 321              	.LCFI26:
 322              		.cfi_def_cfa_offset 4
 323              		.cfi_offset 7, -4
 324 0002 00AF     		add	r7, sp, #0
 325              	.LCFI27:
 326              		.cfi_def_cfa_register 7
 368:./.driver/STM32F10x_StdPeriph_Driver/src/stm32f10x_flash.c ****   /* Set the Lock Bit to lock the FPEC and the CR of  Bank1 */
 369:./.driver/STM32F10x_StdPeriph_Driver/src/stm32f10x_flash.c ****   FLASH->CR |= CR_LOCK_Set;
ARM GAS  C:\Users\SAMEER~1.ALM\AppData\Local\Temp\ccT7Y8qk.s 			page 13


 327              		.loc 1 369 13
 328 0004 044B     		ldr	r3, .L17
 329 0006 1B69     		ldr	r3, [r3, #16]
 330 0008 034A     		ldr	r2, .L17
 331 000a 43F08003 		orr	r3, r3, #128
 332 000e 1361     		str	r3, [r2, #16]
 370:./.driver/STM32F10x_StdPeriph_Driver/src/stm32f10x_flash.c **** 
 371:./.driver/STM32F10x_StdPeriph_Driver/src/stm32f10x_flash.c **** #ifdef STM32F10X_XL
 372:./.driver/STM32F10x_StdPeriph_Driver/src/stm32f10x_flash.c ****   /* Set the Lock Bit to lock the FPEC and the CR of  Bank2 */
 373:./.driver/STM32F10x_StdPeriph_Driver/src/stm32f10x_flash.c ****   FLASH->CR2 |= CR_LOCK_Set;
 374:./.driver/STM32F10x_StdPeriph_Driver/src/stm32f10x_flash.c **** #endif /* STM32F10X_XL */
 375:./.driver/STM32F10x_StdPeriph_Driver/src/stm32f10x_flash.c **** }
 333              		.loc 1 375 1
 334 0010 00BF     		nop
 335 0012 BD46     		mov	sp, r7
 336              	.LCFI28:
 337              		.cfi_def_cfa_register 13
 338              		@ sp needed
 339 0014 80BC     		pop	{r7}
 340              	.LCFI29:
 341              		.cfi_restore 7
 342              		.cfi_def_cfa_offset 0
 343 0016 7047     		bx	lr
 344              	.L18:
 345              		.align	2
 346              	.L17:
 347 0018 00200240 		.word	1073881088
 348              		.cfi_endproc
 349              	.LFE34:
 351              		.section	.text.FLASH_LockBank1,"ax",%progbits
 352              		.align	1
 353              		.global	FLASH_LockBank1
 354              		.syntax unified
 355              		.thumb
 356              		.thumb_func
 358              	FLASH_LockBank1:
 359              	.LFB35:
 376:./.driver/STM32F10x_StdPeriph_Driver/src/stm32f10x_flash.c **** 
 377:./.driver/STM32F10x_StdPeriph_Driver/src/stm32f10x_flash.c **** /**
 378:./.driver/STM32F10x_StdPeriph_Driver/src/stm32f10x_flash.c ****   * @brief  Locks the FLASH Bank1 Program Erase Controller.
 379:./.driver/STM32F10x_StdPeriph_Driver/src/stm32f10x_flash.c ****   * @note   this function can be used for all STM32F10x devices.
 380:./.driver/STM32F10x_StdPeriph_Driver/src/stm32f10x_flash.c ****   *         - For STM32F10X_XL devices this function Locks Bank1.
 381:./.driver/STM32F10x_StdPeriph_Driver/src/stm32f10x_flash.c ****   *         - For all other devices it Locks Bank1 and it is equivalent 
 382:./.driver/STM32F10x_StdPeriph_Driver/src/stm32f10x_flash.c ****   *           to FLASH_Lock function.
 383:./.driver/STM32F10x_StdPeriph_Driver/src/stm32f10x_flash.c ****   * @param  None
 384:./.driver/STM32F10x_StdPeriph_Driver/src/stm32f10x_flash.c ****   * @retval None
 385:./.driver/STM32F10x_StdPeriph_Driver/src/stm32f10x_flash.c ****   */
 386:./.driver/STM32F10x_StdPeriph_Driver/src/stm32f10x_flash.c **** void FLASH_LockBank1(void)
 387:./.driver/STM32F10x_StdPeriph_Driver/src/stm32f10x_flash.c **** {
 360              		.loc 1 387 1
 361              		.cfi_startproc
 362              		@ args = 0, pretend = 0, frame = 0
 363              		@ frame_needed = 1, uses_anonymous_args = 0
 364              		@ link register save eliminated.
 365 0000 80B4     		push	{r7}
 366              	.LCFI30:
 367              		.cfi_def_cfa_offset 4
ARM GAS  C:\Users\SAMEER~1.ALM\AppData\Local\Temp\ccT7Y8qk.s 			page 14


 368              		.cfi_offset 7, -4
 369 0002 00AF     		add	r7, sp, #0
 370              	.LCFI31:
 371              		.cfi_def_cfa_register 7
 388:./.driver/STM32F10x_StdPeriph_Driver/src/stm32f10x_flash.c ****   /* Set the Lock Bit to lock the FPEC and the CR of  Bank1 */
 389:./.driver/STM32F10x_StdPeriph_Driver/src/stm32f10x_flash.c ****   FLASH->CR |= CR_LOCK_Set;
 372              		.loc 1 389 13
 373 0004 044B     		ldr	r3, .L20
 374 0006 1B69     		ldr	r3, [r3, #16]
 375 0008 034A     		ldr	r2, .L20
 376 000a 43F08003 		orr	r3, r3, #128
 377 000e 1361     		str	r3, [r2, #16]
 390:./.driver/STM32F10x_StdPeriph_Driver/src/stm32f10x_flash.c **** }
 378              		.loc 1 390 1
 379 0010 00BF     		nop
 380 0012 BD46     		mov	sp, r7
 381              	.LCFI32:
 382              		.cfi_def_cfa_register 13
 383              		@ sp needed
 384 0014 80BC     		pop	{r7}
 385              	.LCFI33:
 386              		.cfi_restore 7
 387              		.cfi_def_cfa_offset 0
 388 0016 7047     		bx	lr
 389              	.L21:
 390              		.align	2
 391              	.L20:
 392 0018 00200240 		.word	1073881088
 393              		.cfi_endproc
 394              	.LFE35:
 396              		.section	.text.FLASH_ErasePage,"ax",%progbits
 397              		.align	1
 398              		.global	FLASH_ErasePage
 399              		.syntax unified
 400              		.thumb
 401              		.thumb_func
 403              	FLASH_ErasePage:
 404              	.LFB36:
 391:./.driver/STM32F10x_StdPeriph_Driver/src/stm32f10x_flash.c **** 
 392:./.driver/STM32F10x_StdPeriph_Driver/src/stm32f10x_flash.c **** #ifdef STM32F10X_XL
 393:./.driver/STM32F10x_StdPeriph_Driver/src/stm32f10x_flash.c **** /**
 394:./.driver/STM32F10x_StdPeriph_Driver/src/stm32f10x_flash.c ****   * @brief  Locks the FLASH Bank2 Program Erase Controller.
 395:./.driver/STM32F10x_StdPeriph_Driver/src/stm32f10x_flash.c ****   * @note   This function can be used only for STM32F10X_XL density devices.
 396:./.driver/STM32F10x_StdPeriph_Driver/src/stm32f10x_flash.c ****   * @param  None
 397:./.driver/STM32F10x_StdPeriph_Driver/src/stm32f10x_flash.c ****   * @retval None
 398:./.driver/STM32F10x_StdPeriph_Driver/src/stm32f10x_flash.c ****   */
 399:./.driver/STM32F10x_StdPeriph_Driver/src/stm32f10x_flash.c **** void FLASH_LockBank2(void)
 400:./.driver/STM32F10x_StdPeriph_Driver/src/stm32f10x_flash.c **** {
 401:./.driver/STM32F10x_StdPeriph_Driver/src/stm32f10x_flash.c ****   /* Set the Lock Bit to lock the FPEC and the CR of  Bank2 */
 402:./.driver/STM32F10x_StdPeriph_Driver/src/stm32f10x_flash.c ****   FLASH->CR2 |= CR_LOCK_Set;
 403:./.driver/STM32F10x_StdPeriph_Driver/src/stm32f10x_flash.c **** }
 404:./.driver/STM32F10x_StdPeriph_Driver/src/stm32f10x_flash.c **** #endif /* STM32F10X_XL */
 405:./.driver/STM32F10x_StdPeriph_Driver/src/stm32f10x_flash.c **** 
 406:./.driver/STM32F10x_StdPeriph_Driver/src/stm32f10x_flash.c **** /**
 407:./.driver/STM32F10x_StdPeriph_Driver/src/stm32f10x_flash.c ****   * @brief  Erases a specified FLASH page.
 408:./.driver/STM32F10x_StdPeriph_Driver/src/stm32f10x_flash.c ****   * @note   This function can be used for all STM32F10x devices.
 409:./.driver/STM32F10x_StdPeriph_Driver/src/stm32f10x_flash.c ****   * @param  Page_Address: The page address to be erased.
ARM GAS  C:\Users\SAMEER~1.ALM\AppData\Local\Temp\ccT7Y8qk.s 			page 15


 410:./.driver/STM32F10x_StdPeriph_Driver/src/stm32f10x_flash.c ****   * @retval FLASH Status: The returned value can be: FLASH_BUSY, FLASH_ERROR_PG,
 411:./.driver/STM32F10x_StdPeriph_Driver/src/stm32f10x_flash.c ****   *         FLASH_ERROR_WRP, FLASH_COMPLETE or FLASH_TIMEOUT.
 412:./.driver/STM32F10x_StdPeriph_Driver/src/stm32f10x_flash.c ****   */
 413:./.driver/STM32F10x_StdPeriph_Driver/src/stm32f10x_flash.c **** FLASH_Status FLASH_ErasePage(uint32_t Page_Address)
 414:./.driver/STM32F10x_StdPeriph_Driver/src/stm32f10x_flash.c **** {
 405              		.loc 1 414 1
 406              		.cfi_startproc
 407              		@ args = 0, pretend = 0, frame = 16
 408              		@ frame_needed = 1, uses_anonymous_args = 0
 409 0000 80B5     		push	{r7, lr}
 410              	.LCFI34:
 411              		.cfi_def_cfa_offset 8
 412              		.cfi_offset 7, -8
 413              		.cfi_offset 14, -4
 414 0002 84B0     		sub	sp, sp, #16
 415              	.LCFI35:
 416              		.cfi_def_cfa_offset 24
 417 0004 00AF     		add	r7, sp, #0
 418              	.LCFI36:
 419              		.cfi_def_cfa_register 7
 420 0006 7860     		str	r0, [r7, #4]
 415:./.driver/STM32F10x_StdPeriph_Driver/src/stm32f10x_flash.c ****   FLASH_Status status = FLASH_COMPLETE;
 421              		.loc 1 415 16
 422 0008 0423     		movs	r3, #4
 423 000a FB73     		strb	r3, [r7, #15]
 416:./.driver/STM32F10x_StdPeriph_Driver/src/stm32f10x_flash.c ****   /* Check the parameters */
 417:./.driver/STM32F10x_StdPeriph_Driver/src/stm32f10x_flash.c ****   assert_param(IS_FLASH_ADDRESS(Page_Address));
 418:./.driver/STM32F10x_StdPeriph_Driver/src/stm32f10x_flash.c **** 
 419:./.driver/STM32F10x_StdPeriph_Driver/src/stm32f10x_flash.c **** #ifdef STM32F10X_XL
 420:./.driver/STM32F10x_StdPeriph_Driver/src/stm32f10x_flash.c ****   if(Page_Address < FLASH_BANK1_END_ADDRESS)  
 421:./.driver/STM32F10x_StdPeriph_Driver/src/stm32f10x_flash.c ****   {
 422:./.driver/STM32F10x_StdPeriph_Driver/src/stm32f10x_flash.c ****     /* Wait for last operation to be completed */
 423:./.driver/STM32F10x_StdPeriph_Driver/src/stm32f10x_flash.c ****     status = FLASH_WaitForLastBank1Operation(EraseTimeout);
 424:./.driver/STM32F10x_StdPeriph_Driver/src/stm32f10x_flash.c ****     if(status == FLASH_COMPLETE)
 425:./.driver/STM32F10x_StdPeriph_Driver/src/stm32f10x_flash.c ****     { 
 426:./.driver/STM32F10x_StdPeriph_Driver/src/stm32f10x_flash.c ****       /* if the previous operation is completed, proceed to erase the page */
 427:./.driver/STM32F10x_StdPeriph_Driver/src/stm32f10x_flash.c ****       FLASH->CR|= CR_PER_Set;
 428:./.driver/STM32F10x_StdPeriph_Driver/src/stm32f10x_flash.c ****       FLASH->AR = Page_Address; 
 429:./.driver/STM32F10x_StdPeriph_Driver/src/stm32f10x_flash.c ****       FLASH->CR|= CR_STRT_Set;
 430:./.driver/STM32F10x_StdPeriph_Driver/src/stm32f10x_flash.c ****     
 431:./.driver/STM32F10x_StdPeriph_Driver/src/stm32f10x_flash.c ****       /* Wait for last operation to be completed */
 432:./.driver/STM32F10x_StdPeriph_Driver/src/stm32f10x_flash.c ****       status = FLASH_WaitForLastBank1Operation(EraseTimeout);
 433:./.driver/STM32F10x_StdPeriph_Driver/src/stm32f10x_flash.c **** 
 434:./.driver/STM32F10x_StdPeriph_Driver/src/stm32f10x_flash.c ****       /* Disable the PER Bit */
 435:./.driver/STM32F10x_StdPeriph_Driver/src/stm32f10x_flash.c ****       FLASH->CR &= CR_PER_Reset;
 436:./.driver/STM32F10x_StdPeriph_Driver/src/stm32f10x_flash.c ****     }
 437:./.driver/STM32F10x_StdPeriph_Driver/src/stm32f10x_flash.c ****   }
 438:./.driver/STM32F10x_StdPeriph_Driver/src/stm32f10x_flash.c ****   else
 439:./.driver/STM32F10x_StdPeriph_Driver/src/stm32f10x_flash.c ****   {
 440:./.driver/STM32F10x_StdPeriph_Driver/src/stm32f10x_flash.c ****     /* Wait for last operation to be completed */
 441:./.driver/STM32F10x_StdPeriph_Driver/src/stm32f10x_flash.c ****     status = FLASH_WaitForLastBank2Operation(EraseTimeout);
 442:./.driver/STM32F10x_StdPeriph_Driver/src/stm32f10x_flash.c ****     if(status == FLASH_COMPLETE)
 443:./.driver/STM32F10x_StdPeriph_Driver/src/stm32f10x_flash.c ****     { 
 444:./.driver/STM32F10x_StdPeriph_Driver/src/stm32f10x_flash.c ****       /* if the previous operation is completed, proceed to erase the page */
 445:./.driver/STM32F10x_StdPeriph_Driver/src/stm32f10x_flash.c ****       FLASH->CR2|= CR_PER_Set;
 446:./.driver/STM32F10x_StdPeriph_Driver/src/stm32f10x_flash.c ****       FLASH->AR2 = Page_Address; 
 447:./.driver/STM32F10x_StdPeriph_Driver/src/stm32f10x_flash.c ****       FLASH->CR2|= CR_STRT_Set;
ARM GAS  C:\Users\SAMEER~1.ALM\AppData\Local\Temp\ccT7Y8qk.s 			page 16


 448:./.driver/STM32F10x_StdPeriph_Driver/src/stm32f10x_flash.c ****     
 449:./.driver/STM32F10x_StdPeriph_Driver/src/stm32f10x_flash.c ****       /* Wait for last operation to be completed */
 450:./.driver/STM32F10x_StdPeriph_Driver/src/stm32f10x_flash.c ****       status = FLASH_WaitForLastBank2Operation(EraseTimeout);
 451:./.driver/STM32F10x_StdPeriph_Driver/src/stm32f10x_flash.c ****       
 452:./.driver/STM32F10x_StdPeriph_Driver/src/stm32f10x_flash.c ****       /* Disable the PER Bit */
 453:./.driver/STM32F10x_StdPeriph_Driver/src/stm32f10x_flash.c ****       FLASH->CR2 &= CR_PER_Reset;
 454:./.driver/STM32F10x_StdPeriph_Driver/src/stm32f10x_flash.c ****     }
 455:./.driver/STM32F10x_StdPeriph_Driver/src/stm32f10x_flash.c ****   }
 456:./.driver/STM32F10x_StdPeriph_Driver/src/stm32f10x_flash.c **** #else
 457:./.driver/STM32F10x_StdPeriph_Driver/src/stm32f10x_flash.c ****   /* Wait for last operation to be completed */
 458:./.driver/STM32F10x_StdPeriph_Driver/src/stm32f10x_flash.c ****   status = FLASH_WaitForLastOperation(EraseTimeout);
 424              		.loc 1 458 12
 425 000c 4FF43020 		mov	r0, #720896
 426 0010 FFF7FEFF 		bl	FLASH_WaitForLastOperation
 427 0014 0346     		mov	r3, r0
 428 0016 FB73     		strb	r3, [r7, #15]
 459:./.driver/STM32F10x_StdPeriph_Driver/src/stm32f10x_flash.c ****   
 460:./.driver/STM32F10x_StdPeriph_Driver/src/stm32f10x_flash.c ****   if(status == FLASH_COMPLETE)
 429              		.loc 1 460 5
 430 0018 FB7B     		ldrb	r3, [r7, #15]	@ zero_extendqisi2
 431 001a 042B     		cmp	r3, #4
 432 001c 1BD1     		bne	.L23
 461:./.driver/STM32F10x_StdPeriph_Driver/src/stm32f10x_flash.c ****   { 
 462:./.driver/STM32F10x_StdPeriph_Driver/src/stm32f10x_flash.c ****     /* if the previous operation is completed, proceed to erase the page */
 463:./.driver/STM32F10x_StdPeriph_Driver/src/stm32f10x_flash.c ****     FLASH->CR|= CR_PER_Set;
 433              		.loc 1 463 14
 434 001e 104B     		ldr	r3, .L25
 435 0020 1B69     		ldr	r3, [r3, #16]
 436 0022 0F4A     		ldr	r2, .L25
 437 0024 43F00203 		orr	r3, r3, #2
 438 0028 1361     		str	r3, [r2, #16]
 464:./.driver/STM32F10x_StdPeriph_Driver/src/stm32f10x_flash.c ****     FLASH->AR = Page_Address; 
 439              		.loc 1 464 10
 440 002a 0D4A     		ldr	r2, .L25
 441              		.loc 1 464 15
 442 002c 7B68     		ldr	r3, [r7, #4]
 443 002e 5361     		str	r3, [r2, #20]
 465:./.driver/STM32F10x_StdPeriph_Driver/src/stm32f10x_flash.c ****     FLASH->CR|= CR_STRT_Set;
 444              		.loc 1 465 14
 445 0030 0B4B     		ldr	r3, .L25
 446 0032 1B69     		ldr	r3, [r3, #16]
 447 0034 0A4A     		ldr	r2, .L25
 448 0036 43F04003 		orr	r3, r3, #64
 449 003a 1361     		str	r3, [r2, #16]
 466:./.driver/STM32F10x_StdPeriph_Driver/src/stm32f10x_flash.c ****     
 467:./.driver/STM32F10x_StdPeriph_Driver/src/stm32f10x_flash.c ****     /* Wait for last operation to be completed */
 468:./.driver/STM32F10x_StdPeriph_Driver/src/stm32f10x_flash.c ****     status = FLASH_WaitForLastOperation(EraseTimeout);
 450              		.loc 1 468 14
 451 003c 4FF43020 		mov	r0, #720896
 452 0040 FFF7FEFF 		bl	FLASH_WaitForLastOperation
 453 0044 0346     		mov	r3, r0
 454 0046 FB73     		strb	r3, [r7, #15]
 469:./.driver/STM32F10x_StdPeriph_Driver/src/stm32f10x_flash.c ****     
 470:./.driver/STM32F10x_StdPeriph_Driver/src/stm32f10x_flash.c ****     /* Disable the PER Bit */
 471:./.driver/STM32F10x_StdPeriph_Driver/src/stm32f10x_flash.c ****     FLASH->CR &= CR_PER_Reset;
 455              		.loc 1 471 15
 456 0048 054B     		ldr	r3, .L25
ARM GAS  C:\Users\SAMEER~1.ALM\AppData\Local\Temp\ccT7Y8qk.s 			page 17


 457 004a 1A69     		ldr	r2, [r3, #16]
 458 004c 0449     		ldr	r1, .L25
 459 004e 41F6FD73 		movw	r3, #8189
 460 0052 1340     		ands	r3, r3, r2
 461 0054 0B61     		str	r3, [r1, #16]
 462              	.L23:
 472:./.driver/STM32F10x_StdPeriph_Driver/src/stm32f10x_flash.c ****   }
 473:./.driver/STM32F10x_StdPeriph_Driver/src/stm32f10x_flash.c **** #endif /* STM32F10X_XL */
 474:./.driver/STM32F10x_StdPeriph_Driver/src/stm32f10x_flash.c **** 
 475:./.driver/STM32F10x_StdPeriph_Driver/src/stm32f10x_flash.c ****   /* Return the Erase Status */
 476:./.driver/STM32F10x_StdPeriph_Driver/src/stm32f10x_flash.c ****   return status;
 463              		.loc 1 476 10
 464 0056 FB7B     		ldrb	r3, [r7, #15]	@ zero_extendqisi2
 477:./.driver/STM32F10x_StdPeriph_Driver/src/stm32f10x_flash.c **** }
 465              		.loc 1 477 1
 466 0058 1846     		mov	r0, r3
 467 005a 1037     		adds	r7, r7, #16
 468              	.LCFI37:
 469              		.cfi_def_cfa_offset 8
 470 005c BD46     		mov	sp, r7
 471              	.LCFI38:
 472              		.cfi_def_cfa_register 13
 473              		@ sp needed
 474 005e 80BD     		pop	{r7, pc}
 475              	.L26:
 476              		.align	2
 477              	.L25:
 478 0060 00200240 		.word	1073881088
 479              		.cfi_endproc
 480              	.LFE36:
 482              		.section	.text.FLASH_EraseAllPages,"ax",%progbits
 483              		.align	1
 484              		.global	FLASH_EraseAllPages
 485              		.syntax unified
 486              		.thumb
 487              		.thumb_func
 489              	FLASH_EraseAllPages:
 490              	.LFB37:
 478:./.driver/STM32F10x_StdPeriph_Driver/src/stm32f10x_flash.c **** 
 479:./.driver/STM32F10x_StdPeriph_Driver/src/stm32f10x_flash.c **** /**
 480:./.driver/STM32F10x_StdPeriph_Driver/src/stm32f10x_flash.c ****   * @brief  Erases all FLASH pages.
 481:./.driver/STM32F10x_StdPeriph_Driver/src/stm32f10x_flash.c ****   * @note   This function can be used for all STM32F10x devices.
 482:./.driver/STM32F10x_StdPeriph_Driver/src/stm32f10x_flash.c ****   * @param  None
 483:./.driver/STM32F10x_StdPeriph_Driver/src/stm32f10x_flash.c ****   * @retval FLASH Status: The returned value can be: FLASH_ERROR_PG,
 484:./.driver/STM32F10x_StdPeriph_Driver/src/stm32f10x_flash.c ****   *         FLASH_ERROR_WRP, FLASH_COMPLETE or FLASH_TIMEOUT.
 485:./.driver/STM32F10x_StdPeriph_Driver/src/stm32f10x_flash.c ****   */
 486:./.driver/STM32F10x_StdPeriph_Driver/src/stm32f10x_flash.c **** FLASH_Status FLASH_EraseAllPages(void)
 487:./.driver/STM32F10x_StdPeriph_Driver/src/stm32f10x_flash.c **** {
 491              		.loc 1 487 1
 492              		.cfi_startproc
 493              		@ args = 0, pretend = 0, frame = 8
 494              		@ frame_needed = 1, uses_anonymous_args = 0
 495 0000 80B5     		push	{r7, lr}
 496              	.LCFI39:
 497              		.cfi_def_cfa_offset 8
 498              		.cfi_offset 7, -8
 499              		.cfi_offset 14, -4
ARM GAS  C:\Users\SAMEER~1.ALM\AppData\Local\Temp\ccT7Y8qk.s 			page 18


 500 0002 82B0     		sub	sp, sp, #8
 501              	.LCFI40:
 502              		.cfi_def_cfa_offset 16
 503 0004 00AF     		add	r7, sp, #0
 504              	.LCFI41:
 505              		.cfi_def_cfa_register 7
 488:./.driver/STM32F10x_StdPeriph_Driver/src/stm32f10x_flash.c ****   FLASH_Status status = FLASH_COMPLETE;
 506              		.loc 1 488 16
 507 0006 0423     		movs	r3, #4
 508 0008 FB71     		strb	r3, [r7, #7]
 489:./.driver/STM32F10x_StdPeriph_Driver/src/stm32f10x_flash.c **** 
 490:./.driver/STM32F10x_StdPeriph_Driver/src/stm32f10x_flash.c **** #ifdef STM32F10X_XL
 491:./.driver/STM32F10x_StdPeriph_Driver/src/stm32f10x_flash.c ****   /* Wait for last operation to be completed */
 492:./.driver/STM32F10x_StdPeriph_Driver/src/stm32f10x_flash.c ****   status = FLASH_WaitForLastBank1Operation(EraseTimeout);
 493:./.driver/STM32F10x_StdPeriph_Driver/src/stm32f10x_flash.c ****   
 494:./.driver/STM32F10x_StdPeriph_Driver/src/stm32f10x_flash.c ****   if(status == FLASH_COMPLETE)
 495:./.driver/STM32F10x_StdPeriph_Driver/src/stm32f10x_flash.c ****   {
 496:./.driver/STM32F10x_StdPeriph_Driver/src/stm32f10x_flash.c ****     /* if the previous operation is completed, proceed to erase all pages */
 497:./.driver/STM32F10x_StdPeriph_Driver/src/stm32f10x_flash.c ****      FLASH->CR |= CR_MER_Set;
 498:./.driver/STM32F10x_StdPeriph_Driver/src/stm32f10x_flash.c ****      FLASH->CR |= CR_STRT_Set;
 499:./.driver/STM32F10x_StdPeriph_Driver/src/stm32f10x_flash.c ****     
 500:./.driver/STM32F10x_StdPeriph_Driver/src/stm32f10x_flash.c ****     /* Wait for last operation to be completed */
 501:./.driver/STM32F10x_StdPeriph_Driver/src/stm32f10x_flash.c ****     status = FLASH_WaitForLastBank1Operation(EraseTimeout);
 502:./.driver/STM32F10x_StdPeriph_Driver/src/stm32f10x_flash.c ****     
 503:./.driver/STM32F10x_StdPeriph_Driver/src/stm32f10x_flash.c ****     /* Disable the MER Bit */
 504:./.driver/STM32F10x_StdPeriph_Driver/src/stm32f10x_flash.c ****     FLASH->CR &= CR_MER_Reset;
 505:./.driver/STM32F10x_StdPeriph_Driver/src/stm32f10x_flash.c ****   }    
 506:./.driver/STM32F10x_StdPeriph_Driver/src/stm32f10x_flash.c ****   if(status == FLASH_COMPLETE)
 507:./.driver/STM32F10x_StdPeriph_Driver/src/stm32f10x_flash.c ****   {
 508:./.driver/STM32F10x_StdPeriph_Driver/src/stm32f10x_flash.c ****     /* if the previous operation is completed, proceed to erase all pages */
 509:./.driver/STM32F10x_StdPeriph_Driver/src/stm32f10x_flash.c ****      FLASH->CR2 |= CR_MER_Set;
 510:./.driver/STM32F10x_StdPeriph_Driver/src/stm32f10x_flash.c ****      FLASH->CR2 |= CR_STRT_Set;
 511:./.driver/STM32F10x_StdPeriph_Driver/src/stm32f10x_flash.c ****     
 512:./.driver/STM32F10x_StdPeriph_Driver/src/stm32f10x_flash.c ****     /* Wait for last operation to be completed */
 513:./.driver/STM32F10x_StdPeriph_Driver/src/stm32f10x_flash.c ****     status = FLASH_WaitForLastBank2Operation(EraseTimeout);
 514:./.driver/STM32F10x_StdPeriph_Driver/src/stm32f10x_flash.c ****     
 515:./.driver/STM32F10x_StdPeriph_Driver/src/stm32f10x_flash.c ****     /* Disable the MER Bit */
 516:./.driver/STM32F10x_StdPeriph_Driver/src/stm32f10x_flash.c ****     FLASH->CR2 &= CR_MER_Reset;
 517:./.driver/STM32F10x_StdPeriph_Driver/src/stm32f10x_flash.c ****   }
 518:./.driver/STM32F10x_StdPeriph_Driver/src/stm32f10x_flash.c **** #else
 519:./.driver/STM32F10x_StdPeriph_Driver/src/stm32f10x_flash.c ****   /* Wait for last operation to be completed */
 520:./.driver/STM32F10x_StdPeriph_Driver/src/stm32f10x_flash.c ****   status = FLASH_WaitForLastOperation(EraseTimeout);
 509              		.loc 1 520 12
 510 000a 4FF43020 		mov	r0, #720896
 511 000e FFF7FEFF 		bl	FLASH_WaitForLastOperation
 512 0012 0346     		mov	r3, r0
 513 0014 FB71     		strb	r3, [r7, #7]
 521:./.driver/STM32F10x_StdPeriph_Driver/src/stm32f10x_flash.c ****   if(status == FLASH_COMPLETE)
 514              		.loc 1 521 5
 515 0016 FB79     		ldrb	r3, [r7, #7]	@ zero_extendqisi2
 516 0018 042B     		cmp	r3, #4
 517 001a 18D1     		bne	.L28
 522:./.driver/STM32F10x_StdPeriph_Driver/src/stm32f10x_flash.c ****   {
 523:./.driver/STM32F10x_StdPeriph_Driver/src/stm32f10x_flash.c ****     /* if the previous operation is completed, proceed to erase all pages */
 524:./.driver/STM32F10x_StdPeriph_Driver/src/stm32f10x_flash.c ****      FLASH->CR |= CR_MER_Set;
 518              		.loc 1 524 16
 519 001c 0E4B     		ldr	r3, .L30
ARM GAS  C:\Users\SAMEER~1.ALM\AppData\Local\Temp\ccT7Y8qk.s 			page 19


 520 001e 1B69     		ldr	r3, [r3, #16]
 521 0020 0D4A     		ldr	r2, .L30
 522 0022 43F00403 		orr	r3, r3, #4
 523 0026 1361     		str	r3, [r2, #16]
 525:./.driver/STM32F10x_StdPeriph_Driver/src/stm32f10x_flash.c ****      FLASH->CR |= CR_STRT_Set;
 524              		.loc 1 525 16
 525 0028 0B4B     		ldr	r3, .L30
 526 002a 1B69     		ldr	r3, [r3, #16]
 527 002c 0A4A     		ldr	r2, .L30
 528 002e 43F04003 		orr	r3, r3, #64
 529 0032 1361     		str	r3, [r2, #16]
 526:./.driver/STM32F10x_StdPeriph_Driver/src/stm32f10x_flash.c ****     
 527:./.driver/STM32F10x_StdPeriph_Driver/src/stm32f10x_flash.c ****     /* Wait for last operation to be completed */
 528:./.driver/STM32F10x_StdPeriph_Driver/src/stm32f10x_flash.c ****     status = FLASH_WaitForLastOperation(EraseTimeout);
 530              		.loc 1 528 14
 531 0034 4FF43020 		mov	r0, #720896
 532 0038 FFF7FEFF 		bl	FLASH_WaitForLastOperation
 533 003c 0346     		mov	r3, r0
 534 003e FB71     		strb	r3, [r7, #7]
 529:./.driver/STM32F10x_StdPeriph_Driver/src/stm32f10x_flash.c **** 
 530:./.driver/STM32F10x_StdPeriph_Driver/src/stm32f10x_flash.c ****     /* Disable the MER Bit */
 531:./.driver/STM32F10x_StdPeriph_Driver/src/stm32f10x_flash.c ****     FLASH->CR &= CR_MER_Reset;
 535              		.loc 1 531 15
 536 0040 054B     		ldr	r3, .L30
 537 0042 1A69     		ldr	r2, [r3, #16]
 538 0044 0449     		ldr	r1, .L30
 539 0046 41F6FB73 		movw	r3, #8187
 540 004a 1340     		ands	r3, r3, r2
 541 004c 0B61     		str	r3, [r1, #16]
 542              	.L28:
 532:./.driver/STM32F10x_StdPeriph_Driver/src/stm32f10x_flash.c ****   }
 533:./.driver/STM32F10x_StdPeriph_Driver/src/stm32f10x_flash.c **** #endif /* STM32F10X_XL */
 534:./.driver/STM32F10x_StdPeriph_Driver/src/stm32f10x_flash.c **** 
 535:./.driver/STM32F10x_StdPeriph_Driver/src/stm32f10x_flash.c ****   /* Return the Erase Status */
 536:./.driver/STM32F10x_StdPeriph_Driver/src/stm32f10x_flash.c ****   return status;
 543              		.loc 1 536 10
 544 004e FB79     		ldrb	r3, [r7, #7]	@ zero_extendqisi2
 537:./.driver/STM32F10x_StdPeriph_Driver/src/stm32f10x_flash.c **** }
 545              		.loc 1 537 1
 546 0050 1846     		mov	r0, r3
 547 0052 0837     		adds	r7, r7, #8
 548              	.LCFI42:
 549              		.cfi_def_cfa_offset 8
 550 0054 BD46     		mov	sp, r7
 551              	.LCFI43:
 552              		.cfi_def_cfa_register 13
 553              		@ sp needed
 554 0056 80BD     		pop	{r7, pc}
 555              	.L31:
 556              		.align	2
 557              	.L30:
 558 0058 00200240 		.word	1073881088
 559              		.cfi_endproc
 560              	.LFE37:
 562              		.section	.text.FLASH_EraseAllBank1Pages,"ax",%progbits
 563              		.align	1
 564              		.global	FLASH_EraseAllBank1Pages
ARM GAS  C:\Users\SAMEER~1.ALM\AppData\Local\Temp\ccT7Y8qk.s 			page 20


 565              		.syntax unified
 566              		.thumb
 567              		.thumb_func
 569              	FLASH_EraseAllBank1Pages:
 570              	.LFB38:
 538:./.driver/STM32F10x_StdPeriph_Driver/src/stm32f10x_flash.c **** 
 539:./.driver/STM32F10x_StdPeriph_Driver/src/stm32f10x_flash.c **** /**
 540:./.driver/STM32F10x_StdPeriph_Driver/src/stm32f10x_flash.c ****   * @brief  Erases all Bank1 FLASH pages.
 541:./.driver/STM32F10x_StdPeriph_Driver/src/stm32f10x_flash.c ****   * @note   This function can be used for all STM32F10x devices.
 542:./.driver/STM32F10x_StdPeriph_Driver/src/stm32f10x_flash.c ****   *         - For STM32F10X_XL devices this function erases all Bank1 pages.
 543:./.driver/STM32F10x_StdPeriph_Driver/src/stm32f10x_flash.c ****   *         - For all other devices it erases all Bank1 pages and it is equivalent 
 544:./.driver/STM32F10x_StdPeriph_Driver/src/stm32f10x_flash.c ****   *           to FLASH_EraseAllPages function.
 545:./.driver/STM32F10x_StdPeriph_Driver/src/stm32f10x_flash.c ****   * @param  None
 546:./.driver/STM32F10x_StdPeriph_Driver/src/stm32f10x_flash.c ****   * @retval FLASH Status: The returned value can be: FLASH_ERROR_PG,
 547:./.driver/STM32F10x_StdPeriph_Driver/src/stm32f10x_flash.c ****   *         FLASH_ERROR_WRP, FLASH_COMPLETE or FLASH_TIMEOUT.
 548:./.driver/STM32F10x_StdPeriph_Driver/src/stm32f10x_flash.c ****   */
 549:./.driver/STM32F10x_StdPeriph_Driver/src/stm32f10x_flash.c **** FLASH_Status FLASH_EraseAllBank1Pages(void)
 550:./.driver/STM32F10x_StdPeriph_Driver/src/stm32f10x_flash.c **** {
 571              		.loc 1 550 1
 572              		.cfi_startproc
 573              		@ args = 0, pretend = 0, frame = 8
 574              		@ frame_needed = 1, uses_anonymous_args = 0
 575 0000 80B5     		push	{r7, lr}
 576              	.LCFI44:
 577              		.cfi_def_cfa_offset 8
 578              		.cfi_offset 7, -8
 579              		.cfi_offset 14, -4
 580 0002 82B0     		sub	sp, sp, #8
 581              	.LCFI45:
 582              		.cfi_def_cfa_offset 16
 583 0004 00AF     		add	r7, sp, #0
 584              	.LCFI46:
 585              		.cfi_def_cfa_register 7
 551:./.driver/STM32F10x_StdPeriph_Driver/src/stm32f10x_flash.c ****   FLASH_Status status = FLASH_COMPLETE;
 586              		.loc 1 551 16
 587 0006 0423     		movs	r3, #4
 588 0008 FB71     		strb	r3, [r7, #7]
 552:./.driver/STM32F10x_StdPeriph_Driver/src/stm32f10x_flash.c ****   /* Wait for last operation to be completed */
 553:./.driver/STM32F10x_StdPeriph_Driver/src/stm32f10x_flash.c ****   status = FLASH_WaitForLastBank1Operation(EraseTimeout);
 589              		.loc 1 553 12
 590 000a 4FF43020 		mov	r0, #720896
 591 000e FFF7FEFF 		bl	FLASH_WaitForLastBank1Operation
 592 0012 0346     		mov	r3, r0
 593 0014 FB71     		strb	r3, [r7, #7]
 554:./.driver/STM32F10x_StdPeriph_Driver/src/stm32f10x_flash.c ****   
 555:./.driver/STM32F10x_StdPeriph_Driver/src/stm32f10x_flash.c ****   if(status == FLASH_COMPLETE)
 594              		.loc 1 555 5
 595 0016 FB79     		ldrb	r3, [r7, #7]	@ zero_extendqisi2
 596 0018 042B     		cmp	r3, #4
 597 001a 18D1     		bne	.L33
 556:./.driver/STM32F10x_StdPeriph_Driver/src/stm32f10x_flash.c ****   {
 557:./.driver/STM32F10x_StdPeriph_Driver/src/stm32f10x_flash.c ****     /* if the previous operation is completed, proceed to erase all pages */
 558:./.driver/STM32F10x_StdPeriph_Driver/src/stm32f10x_flash.c ****      FLASH->CR |= CR_MER_Set;
 598              		.loc 1 558 16
 599 001c 0E4B     		ldr	r3, .L35
 600 001e 1B69     		ldr	r3, [r3, #16]
 601 0020 0D4A     		ldr	r2, .L35
ARM GAS  C:\Users\SAMEER~1.ALM\AppData\Local\Temp\ccT7Y8qk.s 			page 21


 602 0022 43F00403 		orr	r3, r3, #4
 603 0026 1361     		str	r3, [r2, #16]
 559:./.driver/STM32F10x_StdPeriph_Driver/src/stm32f10x_flash.c ****      FLASH->CR |= CR_STRT_Set;
 604              		.loc 1 559 16
 605 0028 0B4B     		ldr	r3, .L35
 606 002a 1B69     		ldr	r3, [r3, #16]
 607 002c 0A4A     		ldr	r2, .L35
 608 002e 43F04003 		orr	r3, r3, #64
 609 0032 1361     		str	r3, [r2, #16]
 560:./.driver/STM32F10x_StdPeriph_Driver/src/stm32f10x_flash.c ****     
 561:./.driver/STM32F10x_StdPeriph_Driver/src/stm32f10x_flash.c ****     /* Wait for last operation to be completed */
 562:./.driver/STM32F10x_StdPeriph_Driver/src/stm32f10x_flash.c ****     status = FLASH_WaitForLastBank1Operation(EraseTimeout);
 610              		.loc 1 562 14
 611 0034 4FF43020 		mov	r0, #720896
 612 0038 FFF7FEFF 		bl	FLASH_WaitForLastBank1Operation
 613 003c 0346     		mov	r3, r0
 614 003e FB71     		strb	r3, [r7, #7]
 563:./.driver/STM32F10x_StdPeriph_Driver/src/stm32f10x_flash.c ****     
 564:./.driver/STM32F10x_StdPeriph_Driver/src/stm32f10x_flash.c ****     /* Disable the MER Bit */
 565:./.driver/STM32F10x_StdPeriph_Driver/src/stm32f10x_flash.c ****     FLASH->CR &= CR_MER_Reset;
 615              		.loc 1 565 15
 616 0040 054B     		ldr	r3, .L35
 617 0042 1A69     		ldr	r2, [r3, #16]
 618 0044 0449     		ldr	r1, .L35
 619 0046 41F6FB73 		movw	r3, #8187
 620 004a 1340     		ands	r3, r3, r2
 621 004c 0B61     		str	r3, [r1, #16]
 622              	.L33:
 566:./.driver/STM32F10x_StdPeriph_Driver/src/stm32f10x_flash.c ****   }    
 567:./.driver/STM32F10x_StdPeriph_Driver/src/stm32f10x_flash.c ****   /* Return the Erase Status */
 568:./.driver/STM32F10x_StdPeriph_Driver/src/stm32f10x_flash.c ****   return status;
 623              		.loc 1 568 10
 624 004e FB79     		ldrb	r3, [r7, #7]	@ zero_extendqisi2
 569:./.driver/STM32F10x_StdPeriph_Driver/src/stm32f10x_flash.c **** }
 625              		.loc 1 569 1
 626 0050 1846     		mov	r0, r3
 627 0052 0837     		adds	r7, r7, #8
 628              	.LCFI47:
 629              		.cfi_def_cfa_offset 8
 630 0054 BD46     		mov	sp, r7
 631              	.LCFI48:
 632              		.cfi_def_cfa_register 13
 633              		@ sp needed
 634 0056 80BD     		pop	{r7, pc}
 635              	.L36:
 636              		.align	2
 637              	.L35:
 638 0058 00200240 		.word	1073881088
 639              		.cfi_endproc
 640              	.LFE38:
 642              		.section	.text.FLASH_EraseOptionBytes,"ax",%progbits
 643              		.align	1
 644              		.global	FLASH_EraseOptionBytes
 645              		.syntax unified
 646              		.thumb
 647              		.thumb_func
 649              	FLASH_EraseOptionBytes:
ARM GAS  C:\Users\SAMEER~1.ALM\AppData\Local\Temp\ccT7Y8qk.s 			page 22


 650              	.LFB39:
 570:./.driver/STM32F10x_StdPeriph_Driver/src/stm32f10x_flash.c **** 
 571:./.driver/STM32F10x_StdPeriph_Driver/src/stm32f10x_flash.c **** #ifdef STM32F10X_XL
 572:./.driver/STM32F10x_StdPeriph_Driver/src/stm32f10x_flash.c **** /**
 573:./.driver/STM32F10x_StdPeriph_Driver/src/stm32f10x_flash.c ****   * @brief  Erases all Bank2 FLASH pages.
 574:./.driver/STM32F10x_StdPeriph_Driver/src/stm32f10x_flash.c ****   * @note   This function can be used only for STM32F10x_XL density devices.
 575:./.driver/STM32F10x_StdPeriph_Driver/src/stm32f10x_flash.c ****   * @param  None
 576:./.driver/STM32F10x_StdPeriph_Driver/src/stm32f10x_flash.c ****   * @retval FLASH Status: The returned value can be: FLASH_ERROR_PG,
 577:./.driver/STM32F10x_StdPeriph_Driver/src/stm32f10x_flash.c ****   *         FLASH_ERROR_WRP, FLASH_COMPLETE or FLASH_TIMEOUT.
 578:./.driver/STM32F10x_StdPeriph_Driver/src/stm32f10x_flash.c ****   */
 579:./.driver/STM32F10x_StdPeriph_Driver/src/stm32f10x_flash.c **** FLASH_Status FLASH_EraseAllBank2Pages(void)
 580:./.driver/STM32F10x_StdPeriph_Driver/src/stm32f10x_flash.c **** {
 581:./.driver/STM32F10x_StdPeriph_Driver/src/stm32f10x_flash.c ****   FLASH_Status status = FLASH_COMPLETE;
 582:./.driver/STM32F10x_StdPeriph_Driver/src/stm32f10x_flash.c ****   /* Wait for last operation to be completed */
 583:./.driver/STM32F10x_StdPeriph_Driver/src/stm32f10x_flash.c ****   status = FLASH_WaitForLastBank2Operation(EraseTimeout);
 584:./.driver/STM32F10x_StdPeriph_Driver/src/stm32f10x_flash.c ****   
 585:./.driver/STM32F10x_StdPeriph_Driver/src/stm32f10x_flash.c ****   if(status == FLASH_COMPLETE)
 586:./.driver/STM32F10x_StdPeriph_Driver/src/stm32f10x_flash.c ****   {
 587:./.driver/STM32F10x_StdPeriph_Driver/src/stm32f10x_flash.c ****     /* if the previous operation is completed, proceed to erase all pages */
 588:./.driver/STM32F10x_StdPeriph_Driver/src/stm32f10x_flash.c ****      FLASH->CR2 |= CR_MER_Set;
 589:./.driver/STM32F10x_StdPeriph_Driver/src/stm32f10x_flash.c ****      FLASH->CR2 |= CR_STRT_Set;
 590:./.driver/STM32F10x_StdPeriph_Driver/src/stm32f10x_flash.c ****     
 591:./.driver/STM32F10x_StdPeriph_Driver/src/stm32f10x_flash.c ****     /* Wait for last operation to be completed */
 592:./.driver/STM32F10x_StdPeriph_Driver/src/stm32f10x_flash.c ****     status = FLASH_WaitForLastBank2Operation(EraseTimeout);
 593:./.driver/STM32F10x_StdPeriph_Driver/src/stm32f10x_flash.c **** 
 594:./.driver/STM32F10x_StdPeriph_Driver/src/stm32f10x_flash.c ****     /* Disable the MER Bit */
 595:./.driver/STM32F10x_StdPeriph_Driver/src/stm32f10x_flash.c ****     FLASH->CR2 &= CR_MER_Reset;
 596:./.driver/STM32F10x_StdPeriph_Driver/src/stm32f10x_flash.c ****   }    
 597:./.driver/STM32F10x_StdPeriph_Driver/src/stm32f10x_flash.c ****   /* Return the Erase Status */
 598:./.driver/STM32F10x_StdPeriph_Driver/src/stm32f10x_flash.c ****   return status;
 599:./.driver/STM32F10x_StdPeriph_Driver/src/stm32f10x_flash.c **** }
 600:./.driver/STM32F10x_StdPeriph_Driver/src/stm32f10x_flash.c **** #endif /* STM32F10X_XL */
 601:./.driver/STM32F10x_StdPeriph_Driver/src/stm32f10x_flash.c **** 
 602:./.driver/STM32F10x_StdPeriph_Driver/src/stm32f10x_flash.c **** /**
 603:./.driver/STM32F10x_StdPeriph_Driver/src/stm32f10x_flash.c ****   * @brief  Erases the FLASH option bytes.
 604:./.driver/STM32F10x_StdPeriph_Driver/src/stm32f10x_flash.c ****   * @note   This functions erases all option bytes except the Read protection (RDP). 
 605:./.driver/STM32F10x_StdPeriph_Driver/src/stm32f10x_flash.c ****   * @note   This function can be used for all STM32F10x devices.
 606:./.driver/STM32F10x_StdPeriph_Driver/src/stm32f10x_flash.c ****   * @param  None
 607:./.driver/STM32F10x_StdPeriph_Driver/src/stm32f10x_flash.c ****   * @retval FLASH Status: The returned value can be: FLASH_ERROR_PG,
 608:./.driver/STM32F10x_StdPeriph_Driver/src/stm32f10x_flash.c ****   *         FLASH_ERROR_WRP, FLASH_COMPLETE or FLASH_TIMEOUT.
 609:./.driver/STM32F10x_StdPeriph_Driver/src/stm32f10x_flash.c ****   */
 610:./.driver/STM32F10x_StdPeriph_Driver/src/stm32f10x_flash.c **** FLASH_Status FLASH_EraseOptionBytes(void)
 611:./.driver/STM32F10x_StdPeriph_Driver/src/stm32f10x_flash.c **** {
 651              		.loc 1 611 1
 652              		.cfi_startproc
 653              		@ args = 0, pretend = 0, frame = 8
 654              		@ frame_needed = 1, uses_anonymous_args = 0
 655 0000 80B5     		push	{r7, lr}
 656              	.LCFI49:
 657              		.cfi_def_cfa_offset 8
 658              		.cfi_offset 7, -8
 659              		.cfi_offset 14, -4
 660 0002 82B0     		sub	sp, sp, #8
 661              	.LCFI50:
 662              		.cfi_def_cfa_offset 16
 663 0004 00AF     		add	r7, sp, #0
 664              	.LCFI51:
ARM GAS  C:\Users\SAMEER~1.ALM\AppData\Local\Temp\ccT7Y8qk.s 			page 23


 665              		.cfi_def_cfa_register 7
 612:./.driver/STM32F10x_StdPeriph_Driver/src/stm32f10x_flash.c ****   uint16_t rdptmp = RDP_Key;
 666              		.loc 1 612 12
 667 0006 A523     		movs	r3, #165
 668 0008 FB80     		strh	r3, [r7, #6]	@ movhi
 613:./.driver/STM32F10x_StdPeriph_Driver/src/stm32f10x_flash.c **** 
 614:./.driver/STM32F10x_StdPeriph_Driver/src/stm32f10x_flash.c ****   FLASH_Status status = FLASH_COMPLETE;
 669              		.loc 1 614 16
 670 000a 0423     		movs	r3, #4
 671 000c 7B71     		strb	r3, [r7, #5]
 615:./.driver/STM32F10x_StdPeriph_Driver/src/stm32f10x_flash.c **** 
 616:./.driver/STM32F10x_StdPeriph_Driver/src/stm32f10x_flash.c ****   /* Get the actual read protection Option Byte value */ 
 617:./.driver/STM32F10x_StdPeriph_Driver/src/stm32f10x_flash.c ****   if(FLASH_GetReadOutProtectionStatus() != RESET)
 672              		.loc 1 617 6
 673 000e FFF7FEFF 		bl	FLASH_GetReadOutProtectionStatus
 674 0012 0346     		mov	r3, r0
 675              		.loc 1 617 5
 676 0014 002B     		cmp	r3, #0
 677 0016 01D0     		beq	.L38
 618:./.driver/STM32F10x_StdPeriph_Driver/src/stm32f10x_flash.c ****   {
 619:./.driver/STM32F10x_StdPeriph_Driver/src/stm32f10x_flash.c ****     rdptmp = 0x00;  
 678              		.loc 1 619 12
 679 0018 0023     		movs	r3, #0
 680 001a FB80     		strh	r3, [r7, #6]	@ movhi
 681              	.L38:
 620:./.driver/STM32F10x_StdPeriph_Driver/src/stm32f10x_flash.c ****   }
 621:./.driver/STM32F10x_StdPeriph_Driver/src/stm32f10x_flash.c **** 
 622:./.driver/STM32F10x_StdPeriph_Driver/src/stm32f10x_flash.c ****   /* Wait for last operation to be completed */
 623:./.driver/STM32F10x_StdPeriph_Driver/src/stm32f10x_flash.c ****   status = FLASH_WaitForLastOperation(EraseTimeout);
 682              		.loc 1 623 12
 683 001c 4FF43020 		mov	r0, #720896
 684 0020 FFF7FEFF 		bl	FLASH_WaitForLastOperation
 685 0024 0346     		mov	r3, r0
 686 0026 7B71     		strb	r3, [r7, #5]
 624:./.driver/STM32F10x_StdPeriph_Driver/src/stm32f10x_flash.c ****   if(status == FLASH_COMPLETE)
 687              		.loc 1 624 5
 688 0028 7B79     		ldrb	r3, [r7, #5]	@ zero_extendqisi2
 689 002a 042B     		cmp	r3, #4
 690 002c 45D1     		bne	.L39
 625:./.driver/STM32F10x_StdPeriph_Driver/src/stm32f10x_flash.c ****   {
 626:./.driver/STM32F10x_StdPeriph_Driver/src/stm32f10x_flash.c ****     /* Authorize the small information block programming */
 627:./.driver/STM32F10x_StdPeriph_Driver/src/stm32f10x_flash.c ****     FLASH->OPTKEYR = FLASH_KEY1;
 691              		.loc 1 627 10
 692 002e 254B     		ldr	r3, .L42
 693              		.loc 1 627 20
 694 0030 254A     		ldr	r2, .L42+4
 695 0032 9A60     		str	r2, [r3, #8]
 628:./.driver/STM32F10x_StdPeriph_Driver/src/stm32f10x_flash.c ****     FLASH->OPTKEYR = FLASH_KEY2;
 696              		.loc 1 628 10
 697 0034 234B     		ldr	r3, .L42
 698              		.loc 1 628 20
 699 0036 254A     		ldr	r2, .L42+8
 700 0038 9A60     		str	r2, [r3, #8]
 629:./.driver/STM32F10x_StdPeriph_Driver/src/stm32f10x_flash.c ****     
 630:./.driver/STM32F10x_StdPeriph_Driver/src/stm32f10x_flash.c ****     /* if the previous operation is completed, proceed to erase the option bytes */
 631:./.driver/STM32F10x_StdPeriph_Driver/src/stm32f10x_flash.c ****     FLASH->CR |= CR_OPTER_Set;
 701              		.loc 1 631 15
ARM GAS  C:\Users\SAMEER~1.ALM\AppData\Local\Temp\ccT7Y8qk.s 			page 24


 702 003a 224B     		ldr	r3, .L42
 703 003c 1B69     		ldr	r3, [r3, #16]
 704 003e 214A     		ldr	r2, .L42
 705 0040 43F02003 		orr	r3, r3, #32
 706 0044 1361     		str	r3, [r2, #16]
 632:./.driver/STM32F10x_StdPeriph_Driver/src/stm32f10x_flash.c ****     FLASH->CR |= CR_STRT_Set;
 707              		.loc 1 632 15
 708 0046 1F4B     		ldr	r3, .L42
 709 0048 1B69     		ldr	r3, [r3, #16]
 710 004a 1E4A     		ldr	r2, .L42
 711 004c 43F04003 		orr	r3, r3, #64
 712 0050 1361     		str	r3, [r2, #16]
 633:./.driver/STM32F10x_StdPeriph_Driver/src/stm32f10x_flash.c ****     /* Wait for last operation to be completed */
 634:./.driver/STM32F10x_StdPeriph_Driver/src/stm32f10x_flash.c ****     status = FLASH_WaitForLastOperation(EraseTimeout);
 713              		.loc 1 634 14
 714 0052 4FF43020 		mov	r0, #720896
 715 0056 FFF7FEFF 		bl	FLASH_WaitForLastOperation
 716 005a 0346     		mov	r3, r0
 717 005c 7B71     		strb	r3, [r7, #5]
 635:./.driver/STM32F10x_StdPeriph_Driver/src/stm32f10x_flash.c ****     
 636:./.driver/STM32F10x_StdPeriph_Driver/src/stm32f10x_flash.c ****     if(status == FLASH_COMPLETE)
 718              		.loc 1 636 7
 719 005e 7B79     		ldrb	r3, [r7, #5]	@ zero_extendqisi2
 720 0060 042B     		cmp	r3, #4
 721 0062 20D1     		bne	.L40
 637:./.driver/STM32F10x_StdPeriph_Driver/src/stm32f10x_flash.c ****     {
 638:./.driver/STM32F10x_StdPeriph_Driver/src/stm32f10x_flash.c ****       /* if the erase operation is completed, disable the OPTER Bit */
 639:./.driver/STM32F10x_StdPeriph_Driver/src/stm32f10x_flash.c ****       FLASH->CR &= CR_OPTER_Reset;
 722              		.loc 1 639 17
 723 0064 174B     		ldr	r3, .L42
 724 0066 1A69     		ldr	r2, [r3, #16]
 725 0068 1649     		ldr	r1, .L42
 726 006a 41F6DF73 		movw	r3, #8159
 727 006e 1340     		ands	r3, r3, r2
 728 0070 0B61     		str	r3, [r1, #16]
 640:./.driver/STM32F10x_StdPeriph_Driver/src/stm32f10x_flash.c ****        
 641:./.driver/STM32F10x_StdPeriph_Driver/src/stm32f10x_flash.c ****       /* Enable the Option Bytes Programming operation */
 642:./.driver/STM32F10x_StdPeriph_Driver/src/stm32f10x_flash.c ****       FLASH->CR |= CR_OPTPG_Set;
 729              		.loc 1 642 17
 730 0072 144B     		ldr	r3, .L42
 731 0074 1B69     		ldr	r3, [r3, #16]
 732 0076 134A     		ldr	r2, .L42
 733 0078 43F01003 		orr	r3, r3, #16
 734 007c 1361     		str	r3, [r2, #16]
 643:./.driver/STM32F10x_StdPeriph_Driver/src/stm32f10x_flash.c ****       /* Restore the last read protection Option Byte value */
 644:./.driver/STM32F10x_StdPeriph_Driver/src/stm32f10x_flash.c ****       OB->RDP = (uint16_t)rdptmp; 
 735              		.loc 1 644 9
 736 007e 144A     		ldr	r2, .L42+12
 737              		.loc 1 644 15
 738 0080 FB88     		ldrh	r3, [r7, #6]	@ movhi
 739 0082 1380     		strh	r3, [r2]	@ movhi
 645:./.driver/STM32F10x_StdPeriph_Driver/src/stm32f10x_flash.c ****       /* Wait for last operation to be completed */
 646:./.driver/STM32F10x_StdPeriph_Driver/src/stm32f10x_flash.c ****       status = FLASH_WaitForLastOperation(ProgramTimeout);
 740              		.loc 1 646 16
 741 0084 4FF40050 		mov	r0, #8192
 742 0088 FFF7FEFF 		bl	FLASH_WaitForLastOperation
 743 008c 0346     		mov	r3, r0
ARM GAS  C:\Users\SAMEER~1.ALM\AppData\Local\Temp\ccT7Y8qk.s 			page 25


 744 008e 7B71     		strb	r3, [r7, #5]
 647:./.driver/STM32F10x_StdPeriph_Driver/src/stm32f10x_flash.c ****  
 648:./.driver/STM32F10x_StdPeriph_Driver/src/stm32f10x_flash.c ****       if(status != FLASH_TIMEOUT)
 745              		.loc 1 648 9
 746 0090 7B79     		ldrb	r3, [r7, #5]	@ zero_extendqisi2
 747 0092 052B     		cmp	r3, #5
 748 0094 11D0     		beq	.L39
 649:./.driver/STM32F10x_StdPeriph_Driver/src/stm32f10x_flash.c ****       {
 650:./.driver/STM32F10x_StdPeriph_Driver/src/stm32f10x_flash.c ****         /* if the program operation is completed, disable the OPTPG Bit */
 651:./.driver/STM32F10x_StdPeriph_Driver/src/stm32f10x_flash.c ****         FLASH->CR &= CR_OPTPG_Reset;
 749              		.loc 1 651 19
 750 0096 0B4B     		ldr	r3, .L42
 751 0098 1A69     		ldr	r2, [r3, #16]
 752 009a 0A49     		ldr	r1, .L42
 753 009c 41F6EF73 		movw	r3, #8175
 754 00a0 1340     		ands	r3, r3, r2
 755 00a2 0B61     		str	r3, [r1, #16]
 756 00a4 09E0     		b	.L39
 757              	.L40:
 652:./.driver/STM32F10x_StdPeriph_Driver/src/stm32f10x_flash.c ****       }
 653:./.driver/STM32F10x_StdPeriph_Driver/src/stm32f10x_flash.c ****     }
 654:./.driver/STM32F10x_StdPeriph_Driver/src/stm32f10x_flash.c ****     else
 655:./.driver/STM32F10x_StdPeriph_Driver/src/stm32f10x_flash.c ****     {
 656:./.driver/STM32F10x_StdPeriph_Driver/src/stm32f10x_flash.c ****       if (status != FLASH_TIMEOUT)
 758              		.loc 1 656 10
 759 00a6 7B79     		ldrb	r3, [r7, #5]	@ zero_extendqisi2
 760 00a8 052B     		cmp	r3, #5
 761 00aa 06D0     		beq	.L39
 657:./.driver/STM32F10x_StdPeriph_Driver/src/stm32f10x_flash.c ****       {
 658:./.driver/STM32F10x_StdPeriph_Driver/src/stm32f10x_flash.c ****         /* Disable the OPTPG Bit */
 659:./.driver/STM32F10x_StdPeriph_Driver/src/stm32f10x_flash.c ****         FLASH->CR &= CR_OPTPG_Reset;
 762              		.loc 1 659 19
 763 00ac 054B     		ldr	r3, .L42
 764 00ae 1A69     		ldr	r2, [r3, #16]
 765 00b0 0449     		ldr	r1, .L42
 766 00b2 41F6EF73 		movw	r3, #8175
 767 00b6 1340     		ands	r3, r3, r2
 768 00b8 0B61     		str	r3, [r1, #16]
 769              	.L39:
 660:./.driver/STM32F10x_StdPeriph_Driver/src/stm32f10x_flash.c ****       }
 661:./.driver/STM32F10x_StdPeriph_Driver/src/stm32f10x_flash.c ****     }  
 662:./.driver/STM32F10x_StdPeriph_Driver/src/stm32f10x_flash.c ****   }
 663:./.driver/STM32F10x_StdPeriph_Driver/src/stm32f10x_flash.c ****   /* Return the erase status */
 664:./.driver/STM32F10x_StdPeriph_Driver/src/stm32f10x_flash.c ****   return status;
 770              		.loc 1 664 10
 771 00ba 7B79     		ldrb	r3, [r7, #5]	@ zero_extendqisi2
 665:./.driver/STM32F10x_StdPeriph_Driver/src/stm32f10x_flash.c **** }
 772              		.loc 1 665 1
 773 00bc 1846     		mov	r0, r3
 774 00be 0837     		adds	r7, r7, #8
 775              	.LCFI52:
 776              		.cfi_def_cfa_offset 8
 777 00c0 BD46     		mov	sp, r7
 778              	.LCFI53:
 779              		.cfi_def_cfa_register 13
 780              		@ sp needed
 781 00c2 80BD     		pop	{r7, pc}
ARM GAS  C:\Users\SAMEER~1.ALM\AppData\Local\Temp\ccT7Y8qk.s 			page 26


 782              	.L43:
 783              		.align	2
 784              	.L42:
 785 00c4 00200240 		.word	1073881088
 786 00c8 23016745 		.word	1164378403
 787 00cc AB89EFCD 		.word	-839939669
 788 00d0 00F8FF1F 		.word	536868864
 789              		.cfi_endproc
 790              	.LFE39:
 792              		.section	.text.FLASH_ProgramWord,"ax",%progbits
 793              		.align	1
 794              		.global	FLASH_ProgramWord
 795              		.syntax unified
 796              		.thumb
 797              		.thumb_func
 799              	FLASH_ProgramWord:
 800              	.LFB40:
 666:./.driver/STM32F10x_StdPeriph_Driver/src/stm32f10x_flash.c **** 
 667:./.driver/STM32F10x_StdPeriph_Driver/src/stm32f10x_flash.c **** /**
 668:./.driver/STM32F10x_StdPeriph_Driver/src/stm32f10x_flash.c ****   * @brief  Programs a word at a specified address.
 669:./.driver/STM32F10x_StdPeriph_Driver/src/stm32f10x_flash.c ****   * @note   This function can be used for all STM32F10x devices.
 670:./.driver/STM32F10x_StdPeriph_Driver/src/stm32f10x_flash.c ****   * @param  Address: specifies the address to be programmed.
 671:./.driver/STM32F10x_StdPeriph_Driver/src/stm32f10x_flash.c ****   * @param  Data: specifies the data to be programmed.
 672:./.driver/STM32F10x_StdPeriph_Driver/src/stm32f10x_flash.c ****   * @retval FLASH Status: The returned value can be: FLASH_ERROR_PG,
 673:./.driver/STM32F10x_StdPeriph_Driver/src/stm32f10x_flash.c ****   *         FLASH_ERROR_WRP, FLASH_COMPLETE or FLASH_TIMEOUT. 
 674:./.driver/STM32F10x_StdPeriph_Driver/src/stm32f10x_flash.c ****   */
 675:./.driver/STM32F10x_StdPeriph_Driver/src/stm32f10x_flash.c **** FLASH_Status FLASH_ProgramWord(uint32_t Address, uint32_t Data)
 676:./.driver/STM32F10x_StdPeriph_Driver/src/stm32f10x_flash.c **** {
 801              		.loc 1 676 1
 802              		.cfi_startproc
 803              		@ args = 0, pretend = 0, frame = 16
 804              		@ frame_needed = 1, uses_anonymous_args = 0
 805 0000 80B5     		push	{r7, lr}
 806              	.LCFI54:
 807              		.cfi_def_cfa_offset 8
 808              		.cfi_offset 7, -8
 809              		.cfi_offset 14, -4
 810 0002 84B0     		sub	sp, sp, #16
 811              	.LCFI55:
 812              		.cfi_def_cfa_offset 24
 813 0004 00AF     		add	r7, sp, #0
 814              	.LCFI56:
 815              		.cfi_def_cfa_register 7
 816 0006 7860     		str	r0, [r7, #4]
 817 0008 3960     		str	r1, [r7]
 677:./.driver/STM32F10x_StdPeriph_Driver/src/stm32f10x_flash.c ****   FLASH_Status status = FLASH_COMPLETE;
 818              		.loc 1 677 16
 819 000a 0423     		movs	r3, #4
 820 000c FB73     		strb	r3, [r7, #15]
 678:./.driver/STM32F10x_StdPeriph_Driver/src/stm32f10x_flash.c ****   __IO uint32_t tmp = 0;
 821              		.loc 1 678 17
 822 000e 0023     		movs	r3, #0
 823 0010 BB60     		str	r3, [r7, #8]
 679:./.driver/STM32F10x_StdPeriph_Driver/src/stm32f10x_flash.c **** 
 680:./.driver/STM32F10x_StdPeriph_Driver/src/stm32f10x_flash.c ****   /* Check the parameters */
 681:./.driver/STM32F10x_StdPeriph_Driver/src/stm32f10x_flash.c ****   assert_param(IS_FLASH_ADDRESS(Address));
 682:./.driver/STM32F10x_StdPeriph_Driver/src/stm32f10x_flash.c **** 
ARM GAS  C:\Users\SAMEER~1.ALM\AppData\Local\Temp\ccT7Y8qk.s 			page 27


 683:./.driver/STM32F10x_StdPeriph_Driver/src/stm32f10x_flash.c **** #ifdef STM32F10X_XL
 684:./.driver/STM32F10x_StdPeriph_Driver/src/stm32f10x_flash.c ****   if(Address < FLASH_BANK1_END_ADDRESS - 2)
 685:./.driver/STM32F10x_StdPeriph_Driver/src/stm32f10x_flash.c ****   { 
 686:./.driver/STM32F10x_StdPeriph_Driver/src/stm32f10x_flash.c ****     /* Wait for last operation to be completed */
 687:./.driver/STM32F10x_StdPeriph_Driver/src/stm32f10x_flash.c ****     status = FLASH_WaitForLastBank1Operation(ProgramTimeout); 
 688:./.driver/STM32F10x_StdPeriph_Driver/src/stm32f10x_flash.c ****     if(status == FLASH_COMPLETE)
 689:./.driver/STM32F10x_StdPeriph_Driver/src/stm32f10x_flash.c ****     {
 690:./.driver/STM32F10x_StdPeriph_Driver/src/stm32f10x_flash.c ****       /* if the previous operation is completed, proceed to program the new first 
 691:./.driver/STM32F10x_StdPeriph_Driver/src/stm32f10x_flash.c ****         half word */
 692:./.driver/STM32F10x_StdPeriph_Driver/src/stm32f10x_flash.c ****       FLASH->CR |= CR_PG_Set;
 693:./.driver/STM32F10x_StdPeriph_Driver/src/stm32f10x_flash.c ****   
 694:./.driver/STM32F10x_StdPeriph_Driver/src/stm32f10x_flash.c ****       *(__IO uint16_t*)Address = (uint16_t)Data;
 695:./.driver/STM32F10x_StdPeriph_Driver/src/stm32f10x_flash.c ****       /* Wait for last operation to be completed */
 696:./.driver/STM32F10x_StdPeriph_Driver/src/stm32f10x_flash.c ****       status = FLASH_WaitForLastOperation(ProgramTimeout);
 697:./.driver/STM32F10x_StdPeriph_Driver/src/stm32f10x_flash.c ****  
 698:./.driver/STM32F10x_StdPeriph_Driver/src/stm32f10x_flash.c ****       if(status == FLASH_COMPLETE)
 699:./.driver/STM32F10x_StdPeriph_Driver/src/stm32f10x_flash.c ****       {
 700:./.driver/STM32F10x_StdPeriph_Driver/src/stm32f10x_flash.c ****         /* if the previous operation is completed, proceed to program the new second 
 701:./.driver/STM32F10x_StdPeriph_Driver/src/stm32f10x_flash.c ****         half word */
 702:./.driver/STM32F10x_StdPeriph_Driver/src/stm32f10x_flash.c ****         tmp = Address + 2;
 703:./.driver/STM32F10x_StdPeriph_Driver/src/stm32f10x_flash.c **** 
 704:./.driver/STM32F10x_StdPeriph_Driver/src/stm32f10x_flash.c ****         *(__IO uint16_t*) tmp = Data >> 16;
 705:./.driver/STM32F10x_StdPeriph_Driver/src/stm32f10x_flash.c ****     
 706:./.driver/STM32F10x_StdPeriph_Driver/src/stm32f10x_flash.c ****         /* Wait for last operation to be completed */
 707:./.driver/STM32F10x_StdPeriph_Driver/src/stm32f10x_flash.c ****         status = FLASH_WaitForLastOperation(ProgramTimeout);
 708:./.driver/STM32F10x_StdPeriph_Driver/src/stm32f10x_flash.c ****         
 709:./.driver/STM32F10x_StdPeriph_Driver/src/stm32f10x_flash.c ****         /* Disable the PG Bit */
 710:./.driver/STM32F10x_StdPeriph_Driver/src/stm32f10x_flash.c ****         FLASH->CR &= CR_PG_Reset;
 711:./.driver/STM32F10x_StdPeriph_Driver/src/stm32f10x_flash.c ****       }
 712:./.driver/STM32F10x_StdPeriph_Driver/src/stm32f10x_flash.c ****       else
 713:./.driver/STM32F10x_StdPeriph_Driver/src/stm32f10x_flash.c ****       {
 714:./.driver/STM32F10x_StdPeriph_Driver/src/stm32f10x_flash.c ****         /* Disable the PG Bit */
 715:./.driver/STM32F10x_StdPeriph_Driver/src/stm32f10x_flash.c ****         FLASH->CR &= CR_PG_Reset;
 716:./.driver/STM32F10x_StdPeriph_Driver/src/stm32f10x_flash.c ****        }
 717:./.driver/STM32F10x_StdPeriph_Driver/src/stm32f10x_flash.c ****     }
 718:./.driver/STM32F10x_StdPeriph_Driver/src/stm32f10x_flash.c ****   }
 719:./.driver/STM32F10x_StdPeriph_Driver/src/stm32f10x_flash.c ****   else if(Address == (FLASH_BANK1_END_ADDRESS - 1))
 720:./.driver/STM32F10x_StdPeriph_Driver/src/stm32f10x_flash.c ****   {
 721:./.driver/STM32F10x_StdPeriph_Driver/src/stm32f10x_flash.c ****     /* Wait for last operation to be completed */
 722:./.driver/STM32F10x_StdPeriph_Driver/src/stm32f10x_flash.c ****     status = FLASH_WaitForLastBank1Operation(ProgramTimeout);
 723:./.driver/STM32F10x_StdPeriph_Driver/src/stm32f10x_flash.c **** 
 724:./.driver/STM32F10x_StdPeriph_Driver/src/stm32f10x_flash.c ****     if(status == FLASH_COMPLETE)
 725:./.driver/STM32F10x_StdPeriph_Driver/src/stm32f10x_flash.c ****     {
 726:./.driver/STM32F10x_StdPeriph_Driver/src/stm32f10x_flash.c ****       /* if the previous operation is completed, proceed to program the new first 
 727:./.driver/STM32F10x_StdPeriph_Driver/src/stm32f10x_flash.c ****         half word */
 728:./.driver/STM32F10x_StdPeriph_Driver/src/stm32f10x_flash.c ****       FLASH->CR |= CR_PG_Set;
 729:./.driver/STM32F10x_StdPeriph_Driver/src/stm32f10x_flash.c ****   
 730:./.driver/STM32F10x_StdPeriph_Driver/src/stm32f10x_flash.c ****       *(__IO uint16_t*)Address = (uint16_t)Data;
 731:./.driver/STM32F10x_StdPeriph_Driver/src/stm32f10x_flash.c **** 
 732:./.driver/STM32F10x_StdPeriph_Driver/src/stm32f10x_flash.c ****       /* Wait for last operation to be completed */
 733:./.driver/STM32F10x_StdPeriph_Driver/src/stm32f10x_flash.c ****       status = FLASH_WaitForLastBank1Operation(ProgramTimeout);
 734:./.driver/STM32F10x_StdPeriph_Driver/src/stm32f10x_flash.c ****       
 735:./.driver/STM32F10x_StdPeriph_Driver/src/stm32f10x_flash.c **** 	  /* Disable the PG Bit */
 736:./.driver/STM32F10x_StdPeriph_Driver/src/stm32f10x_flash.c ****       FLASH->CR &= CR_PG_Reset;
 737:./.driver/STM32F10x_StdPeriph_Driver/src/stm32f10x_flash.c ****     }
 738:./.driver/STM32F10x_StdPeriph_Driver/src/stm32f10x_flash.c ****     else
 739:./.driver/STM32F10x_StdPeriph_Driver/src/stm32f10x_flash.c ****     {
ARM GAS  C:\Users\SAMEER~1.ALM\AppData\Local\Temp\ccT7Y8qk.s 			page 28


 740:./.driver/STM32F10x_StdPeriph_Driver/src/stm32f10x_flash.c ****       /* Disable the PG Bit */
 741:./.driver/STM32F10x_StdPeriph_Driver/src/stm32f10x_flash.c ****       FLASH->CR &= CR_PG_Reset;
 742:./.driver/STM32F10x_StdPeriph_Driver/src/stm32f10x_flash.c ****     }
 743:./.driver/STM32F10x_StdPeriph_Driver/src/stm32f10x_flash.c **** 
 744:./.driver/STM32F10x_StdPeriph_Driver/src/stm32f10x_flash.c ****     /* Wait for last operation to be completed */
 745:./.driver/STM32F10x_StdPeriph_Driver/src/stm32f10x_flash.c ****     status = FLASH_WaitForLastBank2Operation(ProgramTimeout);
 746:./.driver/STM32F10x_StdPeriph_Driver/src/stm32f10x_flash.c **** 
 747:./.driver/STM32F10x_StdPeriph_Driver/src/stm32f10x_flash.c ****     if(status == FLASH_COMPLETE)
 748:./.driver/STM32F10x_StdPeriph_Driver/src/stm32f10x_flash.c ****     {
 749:./.driver/STM32F10x_StdPeriph_Driver/src/stm32f10x_flash.c ****       /* if the previous operation is completed, proceed to program the new second 
 750:./.driver/STM32F10x_StdPeriph_Driver/src/stm32f10x_flash.c ****       half word */
 751:./.driver/STM32F10x_StdPeriph_Driver/src/stm32f10x_flash.c ****       FLASH->CR2 |= CR_PG_Set;
 752:./.driver/STM32F10x_StdPeriph_Driver/src/stm32f10x_flash.c ****       tmp = Address + 2;
 753:./.driver/STM32F10x_StdPeriph_Driver/src/stm32f10x_flash.c **** 
 754:./.driver/STM32F10x_StdPeriph_Driver/src/stm32f10x_flash.c ****       *(__IO uint16_t*) tmp = Data >> 16;
 755:./.driver/STM32F10x_StdPeriph_Driver/src/stm32f10x_flash.c ****     
 756:./.driver/STM32F10x_StdPeriph_Driver/src/stm32f10x_flash.c ****       /* Wait for last operation to be completed */
 757:./.driver/STM32F10x_StdPeriph_Driver/src/stm32f10x_flash.c ****       status = FLASH_WaitForLastBank2Operation(ProgramTimeout);
 758:./.driver/STM32F10x_StdPeriph_Driver/src/stm32f10x_flash.c ****         
 759:./.driver/STM32F10x_StdPeriph_Driver/src/stm32f10x_flash.c ****       /* Disable the PG Bit */
 760:./.driver/STM32F10x_StdPeriph_Driver/src/stm32f10x_flash.c ****       FLASH->CR2 &= CR_PG_Reset;
 761:./.driver/STM32F10x_StdPeriph_Driver/src/stm32f10x_flash.c ****     }
 762:./.driver/STM32F10x_StdPeriph_Driver/src/stm32f10x_flash.c ****     else
 763:./.driver/STM32F10x_StdPeriph_Driver/src/stm32f10x_flash.c ****     {
 764:./.driver/STM32F10x_StdPeriph_Driver/src/stm32f10x_flash.c ****       /* Disable the PG Bit */
 765:./.driver/STM32F10x_StdPeriph_Driver/src/stm32f10x_flash.c ****       FLASH->CR2 &= CR_PG_Reset;
 766:./.driver/STM32F10x_StdPeriph_Driver/src/stm32f10x_flash.c ****     }
 767:./.driver/STM32F10x_StdPeriph_Driver/src/stm32f10x_flash.c ****   }
 768:./.driver/STM32F10x_StdPeriph_Driver/src/stm32f10x_flash.c ****   else
 769:./.driver/STM32F10x_StdPeriph_Driver/src/stm32f10x_flash.c ****   {
 770:./.driver/STM32F10x_StdPeriph_Driver/src/stm32f10x_flash.c ****     /* Wait for last operation to be completed */
 771:./.driver/STM32F10x_StdPeriph_Driver/src/stm32f10x_flash.c ****     status = FLASH_WaitForLastBank2Operation(ProgramTimeout);
 772:./.driver/STM32F10x_StdPeriph_Driver/src/stm32f10x_flash.c **** 
 773:./.driver/STM32F10x_StdPeriph_Driver/src/stm32f10x_flash.c ****     if(status == FLASH_COMPLETE)
 774:./.driver/STM32F10x_StdPeriph_Driver/src/stm32f10x_flash.c ****     {
 775:./.driver/STM32F10x_StdPeriph_Driver/src/stm32f10x_flash.c ****       /* if the previous operation is completed, proceed to program the new first 
 776:./.driver/STM32F10x_StdPeriph_Driver/src/stm32f10x_flash.c ****         half word */
 777:./.driver/STM32F10x_StdPeriph_Driver/src/stm32f10x_flash.c ****       FLASH->CR2 |= CR_PG_Set;
 778:./.driver/STM32F10x_StdPeriph_Driver/src/stm32f10x_flash.c ****   
 779:./.driver/STM32F10x_StdPeriph_Driver/src/stm32f10x_flash.c ****       *(__IO uint16_t*)Address = (uint16_t)Data;
 780:./.driver/STM32F10x_StdPeriph_Driver/src/stm32f10x_flash.c ****       /* Wait for last operation to be completed */
 781:./.driver/STM32F10x_StdPeriph_Driver/src/stm32f10x_flash.c ****       status = FLASH_WaitForLastBank2Operation(ProgramTimeout);
 782:./.driver/STM32F10x_StdPeriph_Driver/src/stm32f10x_flash.c ****  
 783:./.driver/STM32F10x_StdPeriph_Driver/src/stm32f10x_flash.c ****       if(status == FLASH_COMPLETE)
 784:./.driver/STM32F10x_StdPeriph_Driver/src/stm32f10x_flash.c ****       {
 785:./.driver/STM32F10x_StdPeriph_Driver/src/stm32f10x_flash.c ****         /* if the previous operation is completed, proceed to program the new second 
 786:./.driver/STM32F10x_StdPeriph_Driver/src/stm32f10x_flash.c ****         half word */
 787:./.driver/STM32F10x_StdPeriph_Driver/src/stm32f10x_flash.c ****         tmp = Address + 2;
 788:./.driver/STM32F10x_StdPeriph_Driver/src/stm32f10x_flash.c **** 
 789:./.driver/STM32F10x_StdPeriph_Driver/src/stm32f10x_flash.c ****         *(__IO uint16_t*) tmp = Data >> 16;
 790:./.driver/STM32F10x_StdPeriph_Driver/src/stm32f10x_flash.c ****     
 791:./.driver/STM32F10x_StdPeriph_Driver/src/stm32f10x_flash.c ****         /* Wait for last operation to be completed */
 792:./.driver/STM32F10x_StdPeriph_Driver/src/stm32f10x_flash.c ****         status = FLASH_WaitForLastBank2Operation(ProgramTimeout);
 793:./.driver/STM32F10x_StdPeriph_Driver/src/stm32f10x_flash.c ****         
 794:./.driver/STM32F10x_StdPeriph_Driver/src/stm32f10x_flash.c ****         /* Disable the PG Bit */
 795:./.driver/STM32F10x_StdPeriph_Driver/src/stm32f10x_flash.c ****         FLASH->CR2 &= CR_PG_Reset;
 796:./.driver/STM32F10x_StdPeriph_Driver/src/stm32f10x_flash.c ****       }
ARM GAS  C:\Users\SAMEER~1.ALM\AppData\Local\Temp\ccT7Y8qk.s 			page 29


 797:./.driver/STM32F10x_StdPeriph_Driver/src/stm32f10x_flash.c ****       else
 798:./.driver/STM32F10x_StdPeriph_Driver/src/stm32f10x_flash.c ****       {
 799:./.driver/STM32F10x_StdPeriph_Driver/src/stm32f10x_flash.c ****         /* Disable the PG Bit */
 800:./.driver/STM32F10x_StdPeriph_Driver/src/stm32f10x_flash.c ****         FLASH->CR2 &= CR_PG_Reset;
 801:./.driver/STM32F10x_StdPeriph_Driver/src/stm32f10x_flash.c ****       }
 802:./.driver/STM32F10x_StdPeriph_Driver/src/stm32f10x_flash.c ****     }
 803:./.driver/STM32F10x_StdPeriph_Driver/src/stm32f10x_flash.c ****   }
 804:./.driver/STM32F10x_StdPeriph_Driver/src/stm32f10x_flash.c **** #else
 805:./.driver/STM32F10x_StdPeriph_Driver/src/stm32f10x_flash.c ****   /* Wait for last operation to be completed */
 806:./.driver/STM32F10x_StdPeriph_Driver/src/stm32f10x_flash.c ****   status = FLASH_WaitForLastOperation(ProgramTimeout);
 824              		.loc 1 806 12
 825 0012 4FF40050 		mov	r0, #8192
 826 0016 FFF7FEFF 		bl	FLASH_WaitForLastOperation
 827 001a 0346     		mov	r3, r0
 828 001c FB73     		strb	r3, [r7, #15]
 807:./.driver/STM32F10x_StdPeriph_Driver/src/stm32f10x_flash.c ****   
 808:./.driver/STM32F10x_StdPeriph_Driver/src/stm32f10x_flash.c ****   if(status == FLASH_COMPLETE)
 829              		.loc 1 808 5
 830 001e FB7B     		ldrb	r3, [r7, #15]	@ zero_extendqisi2
 831 0020 042B     		cmp	r3, #4
 832 0022 2FD1     		bne	.L45
 809:./.driver/STM32F10x_StdPeriph_Driver/src/stm32f10x_flash.c ****   {
 810:./.driver/STM32F10x_StdPeriph_Driver/src/stm32f10x_flash.c ****     /* if the previous operation is completed, proceed to program the new first 
 811:./.driver/STM32F10x_StdPeriph_Driver/src/stm32f10x_flash.c ****     half word */
 812:./.driver/STM32F10x_StdPeriph_Driver/src/stm32f10x_flash.c ****     FLASH->CR |= CR_PG_Set;
 833              		.loc 1 812 15
 834 0024 1A4B     		ldr	r3, .L48
 835 0026 1B69     		ldr	r3, [r3, #16]
 836 0028 194A     		ldr	r2, .L48
 837 002a 43F00103 		orr	r3, r3, #1
 838 002e 1361     		str	r3, [r2, #16]
 813:./.driver/STM32F10x_StdPeriph_Driver/src/stm32f10x_flash.c ****   
 814:./.driver/STM32F10x_StdPeriph_Driver/src/stm32f10x_flash.c ****     *(__IO uint16_t*)Address = (uint16_t)Data;
 839              		.loc 1 814 6
 840 0030 7B68     		ldr	r3, [r7, #4]
 841              		.loc 1 814 32
 842 0032 3A68     		ldr	r2, [r7]
 843 0034 92B2     		uxth	r2, r2
 844              		.loc 1 814 30
 845 0036 1A80     		strh	r2, [r3]	@ movhi
 815:./.driver/STM32F10x_StdPeriph_Driver/src/stm32f10x_flash.c ****     /* Wait for last operation to be completed */
 816:./.driver/STM32F10x_StdPeriph_Driver/src/stm32f10x_flash.c ****     status = FLASH_WaitForLastOperation(ProgramTimeout);
 846              		.loc 1 816 14
 847 0038 4FF40050 		mov	r0, #8192
 848 003c FFF7FEFF 		bl	FLASH_WaitForLastOperation
 849 0040 0346     		mov	r3, r0
 850 0042 FB73     		strb	r3, [r7, #15]
 817:./.driver/STM32F10x_StdPeriph_Driver/src/stm32f10x_flash.c ****  
 818:./.driver/STM32F10x_StdPeriph_Driver/src/stm32f10x_flash.c ****     if(status == FLASH_COMPLETE)
 851              		.loc 1 818 7
 852 0044 FB7B     		ldrb	r3, [r7, #15]	@ zero_extendqisi2
 853 0046 042B     		cmp	r3, #4
 854 0048 15D1     		bne	.L46
 819:./.driver/STM32F10x_StdPeriph_Driver/src/stm32f10x_flash.c ****     {
 820:./.driver/STM32F10x_StdPeriph_Driver/src/stm32f10x_flash.c ****       /* if the previous operation is completed, proceed to program the new second 
 821:./.driver/STM32F10x_StdPeriph_Driver/src/stm32f10x_flash.c ****       half word */
 822:./.driver/STM32F10x_StdPeriph_Driver/src/stm32f10x_flash.c ****       tmp = Address + 2;
ARM GAS  C:\Users\SAMEER~1.ALM\AppData\Local\Temp\ccT7Y8qk.s 			page 30


 855              		.loc 1 822 21
 856 004a 7B68     		ldr	r3, [r7, #4]
 857 004c 0233     		adds	r3, r3, #2
 858              		.loc 1 822 11
 859 004e BB60     		str	r3, [r7, #8]
 823:./.driver/STM32F10x_StdPeriph_Driver/src/stm32f10x_flash.c **** 
 824:./.driver/STM32F10x_StdPeriph_Driver/src/stm32f10x_flash.c ****       *(__IO uint16_t*) tmp = Data >> 16;
 860              		.loc 1 824 36
 861 0050 3B68     		ldr	r3, [r7]
 862 0052 1A0C     		lsrs	r2, r3, #16
 863              		.loc 1 824 8
 864 0054 BB68     		ldr	r3, [r7, #8]
 865              		.loc 1 824 29
 866 0056 92B2     		uxth	r2, r2
 867 0058 1A80     		strh	r2, [r3]	@ movhi
 825:./.driver/STM32F10x_StdPeriph_Driver/src/stm32f10x_flash.c ****     
 826:./.driver/STM32F10x_StdPeriph_Driver/src/stm32f10x_flash.c ****       /* Wait for last operation to be completed */
 827:./.driver/STM32F10x_StdPeriph_Driver/src/stm32f10x_flash.c ****       status = FLASH_WaitForLastOperation(ProgramTimeout);
 868              		.loc 1 827 16
 869 005a 4FF40050 		mov	r0, #8192
 870 005e FFF7FEFF 		bl	FLASH_WaitForLastOperation
 871 0062 0346     		mov	r3, r0
 872 0064 FB73     		strb	r3, [r7, #15]
 828:./.driver/STM32F10x_StdPeriph_Driver/src/stm32f10x_flash.c ****         
 829:./.driver/STM32F10x_StdPeriph_Driver/src/stm32f10x_flash.c ****       /* Disable the PG Bit */
 830:./.driver/STM32F10x_StdPeriph_Driver/src/stm32f10x_flash.c ****       FLASH->CR &= CR_PG_Reset;
 873              		.loc 1 830 17
 874 0066 0A4B     		ldr	r3, .L48
 875 0068 1A69     		ldr	r2, [r3, #16]
 876 006a 0949     		ldr	r1, .L48
 877 006c 41F6FE73 		movw	r3, #8190
 878 0070 1340     		ands	r3, r3, r2
 879 0072 0B61     		str	r3, [r1, #16]
 880 0074 06E0     		b	.L45
 881              	.L46:
 831:./.driver/STM32F10x_StdPeriph_Driver/src/stm32f10x_flash.c ****     }
 832:./.driver/STM32F10x_StdPeriph_Driver/src/stm32f10x_flash.c ****     else
 833:./.driver/STM32F10x_StdPeriph_Driver/src/stm32f10x_flash.c ****     {
 834:./.driver/STM32F10x_StdPeriph_Driver/src/stm32f10x_flash.c ****       /* Disable the PG Bit */
 835:./.driver/STM32F10x_StdPeriph_Driver/src/stm32f10x_flash.c ****       FLASH->CR &= CR_PG_Reset;
 882              		.loc 1 835 17
 883 0076 064B     		ldr	r3, .L48
 884 0078 1A69     		ldr	r2, [r3, #16]
 885 007a 0549     		ldr	r1, .L48
 886 007c 41F6FE73 		movw	r3, #8190
 887 0080 1340     		ands	r3, r3, r2
 888 0082 0B61     		str	r3, [r1, #16]
 889              	.L45:
 836:./.driver/STM32F10x_StdPeriph_Driver/src/stm32f10x_flash.c ****     }
 837:./.driver/STM32F10x_StdPeriph_Driver/src/stm32f10x_flash.c ****   }         
 838:./.driver/STM32F10x_StdPeriph_Driver/src/stm32f10x_flash.c **** #endif /* STM32F10X_XL */
 839:./.driver/STM32F10x_StdPeriph_Driver/src/stm32f10x_flash.c ****    
 840:./.driver/STM32F10x_StdPeriph_Driver/src/stm32f10x_flash.c ****   /* Return the Program Status */
 841:./.driver/STM32F10x_StdPeriph_Driver/src/stm32f10x_flash.c ****   return status;
 890              		.loc 1 841 10
 891 0084 FB7B     		ldrb	r3, [r7, #15]	@ zero_extendqisi2
 842:./.driver/STM32F10x_StdPeriph_Driver/src/stm32f10x_flash.c **** }
ARM GAS  C:\Users\SAMEER~1.ALM\AppData\Local\Temp\ccT7Y8qk.s 			page 31


 892              		.loc 1 842 1
 893 0086 1846     		mov	r0, r3
 894 0088 1037     		adds	r7, r7, #16
 895              	.LCFI57:
 896              		.cfi_def_cfa_offset 8
 897 008a BD46     		mov	sp, r7
 898              	.LCFI58:
 899              		.cfi_def_cfa_register 13
 900              		@ sp needed
 901 008c 80BD     		pop	{r7, pc}
 902              	.L49:
 903 008e 00BF     		.align	2
 904              	.L48:
 905 0090 00200240 		.word	1073881088
 906              		.cfi_endproc
 907              	.LFE40:
 909              		.section	.text.FLASH_ProgramHalfWord,"ax",%progbits
 910              		.align	1
 911              		.global	FLASH_ProgramHalfWord
 912              		.syntax unified
 913              		.thumb
 914              		.thumb_func
 916              	FLASH_ProgramHalfWord:
 917              	.LFB41:
 843:./.driver/STM32F10x_StdPeriph_Driver/src/stm32f10x_flash.c **** 
 844:./.driver/STM32F10x_StdPeriph_Driver/src/stm32f10x_flash.c **** /**
 845:./.driver/STM32F10x_StdPeriph_Driver/src/stm32f10x_flash.c ****   * @brief  Programs a half word at a specified address.
 846:./.driver/STM32F10x_StdPeriph_Driver/src/stm32f10x_flash.c ****   * @note   This function can be used for all STM32F10x devices.
 847:./.driver/STM32F10x_StdPeriph_Driver/src/stm32f10x_flash.c ****   * @param  Address: specifies the address to be programmed.
 848:./.driver/STM32F10x_StdPeriph_Driver/src/stm32f10x_flash.c ****   * @param  Data: specifies the data to be programmed.
 849:./.driver/STM32F10x_StdPeriph_Driver/src/stm32f10x_flash.c ****   * @retval FLASH Status: The returned value can be: FLASH_ERROR_PG,
 850:./.driver/STM32F10x_StdPeriph_Driver/src/stm32f10x_flash.c ****   *         FLASH_ERROR_WRP, FLASH_COMPLETE or FLASH_TIMEOUT. 
 851:./.driver/STM32F10x_StdPeriph_Driver/src/stm32f10x_flash.c ****   */
 852:./.driver/STM32F10x_StdPeriph_Driver/src/stm32f10x_flash.c **** FLASH_Status FLASH_ProgramHalfWord(uint32_t Address, uint16_t Data)
 853:./.driver/STM32F10x_StdPeriph_Driver/src/stm32f10x_flash.c **** {
 918              		.loc 1 853 1
 919              		.cfi_startproc
 920              		@ args = 0, pretend = 0, frame = 16
 921              		@ frame_needed = 1, uses_anonymous_args = 0
 922 0000 80B5     		push	{r7, lr}
 923              	.LCFI59:
 924              		.cfi_def_cfa_offset 8
 925              		.cfi_offset 7, -8
 926              		.cfi_offset 14, -4
 927 0002 84B0     		sub	sp, sp, #16
 928              	.LCFI60:
 929              		.cfi_def_cfa_offset 24
 930 0004 00AF     		add	r7, sp, #0
 931              	.LCFI61:
 932              		.cfi_def_cfa_register 7
 933 0006 7860     		str	r0, [r7, #4]
 934 0008 0B46     		mov	r3, r1
 935 000a 7B80     		strh	r3, [r7, #2]	@ movhi
 854:./.driver/STM32F10x_StdPeriph_Driver/src/stm32f10x_flash.c ****   FLASH_Status status = FLASH_COMPLETE;
 936              		.loc 1 854 16
 937 000c 0423     		movs	r3, #4
 938 000e FB73     		strb	r3, [r7, #15]
ARM GAS  C:\Users\SAMEER~1.ALM\AppData\Local\Temp\ccT7Y8qk.s 			page 32


 855:./.driver/STM32F10x_StdPeriph_Driver/src/stm32f10x_flash.c ****   /* Check the parameters */
 856:./.driver/STM32F10x_StdPeriph_Driver/src/stm32f10x_flash.c ****   assert_param(IS_FLASH_ADDRESS(Address));
 857:./.driver/STM32F10x_StdPeriph_Driver/src/stm32f10x_flash.c **** 
 858:./.driver/STM32F10x_StdPeriph_Driver/src/stm32f10x_flash.c **** #ifdef STM32F10X_XL
 859:./.driver/STM32F10x_StdPeriph_Driver/src/stm32f10x_flash.c ****   /* Wait for last operation to be completed */
 860:./.driver/STM32F10x_StdPeriph_Driver/src/stm32f10x_flash.c ****   status = FLASH_WaitForLastOperation(ProgramTimeout);
 861:./.driver/STM32F10x_StdPeriph_Driver/src/stm32f10x_flash.c ****   
 862:./.driver/STM32F10x_StdPeriph_Driver/src/stm32f10x_flash.c ****   if(Address < FLASH_BANK1_END_ADDRESS)
 863:./.driver/STM32F10x_StdPeriph_Driver/src/stm32f10x_flash.c ****   {
 864:./.driver/STM32F10x_StdPeriph_Driver/src/stm32f10x_flash.c ****     if(status == FLASH_COMPLETE)
 865:./.driver/STM32F10x_StdPeriph_Driver/src/stm32f10x_flash.c ****     {
 866:./.driver/STM32F10x_StdPeriph_Driver/src/stm32f10x_flash.c ****       /* if the previous operation is completed, proceed to program the new data */
 867:./.driver/STM32F10x_StdPeriph_Driver/src/stm32f10x_flash.c ****       FLASH->CR |= CR_PG_Set;
 868:./.driver/STM32F10x_StdPeriph_Driver/src/stm32f10x_flash.c ****   
 869:./.driver/STM32F10x_StdPeriph_Driver/src/stm32f10x_flash.c ****       *(__IO uint16_t*)Address = Data;
 870:./.driver/STM32F10x_StdPeriph_Driver/src/stm32f10x_flash.c ****       /* Wait for last operation to be completed */
 871:./.driver/STM32F10x_StdPeriph_Driver/src/stm32f10x_flash.c ****       status = FLASH_WaitForLastBank1Operation(ProgramTimeout);
 872:./.driver/STM32F10x_StdPeriph_Driver/src/stm32f10x_flash.c **** 
 873:./.driver/STM32F10x_StdPeriph_Driver/src/stm32f10x_flash.c ****       /* Disable the PG Bit */
 874:./.driver/STM32F10x_StdPeriph_Driver/src/stm32f10x_flash.c ****       FLASH->CR &= CR_PG_Reset;
 875:./.driver/STM32F10x_StdPeriph_Driver/src/stm32f10x_flash.c ****     }
 876:./.driver/STM32F10x_StdPeriph_Driver/src/stm32f10x_flash.c ****   }
 877:./.driver/STM32F10x_StdPeriph_Driver/src/stm32f10x_flash.c ****   else
 878:./.driver/STM32F10x_StdPeriph_Driver/src/stm32f10x_flash.c ****   {
 879:./.driver/STM32F10x_StdPeriph_Driver/src/stm32f10x_flash.c ****     if(status == FLASH_COMPLETE)
 880:./.driver/STM32F10x_StdPeriph_Driver/src/stm32f10x_flash.c ****     {
 881:./.driver/STM32F10x_StdPeriph_Driver/src/stm32f10x_flash.c ****       /* if the previous operation is completed, proceed to program the new data */
 882:./.driver/STM32F10x_StdPeriph_Driver/src/stm32f10x_flash.c ****       FLASH->CR2 |= CR_PG_Set;
 883:./.driver/STM32F10x_StdPeriph_Driver/src/stm32f10x_flash.c ****   
 884:./.driver/STM32F10x_StdPeriph_Driver/src/stm32f10x_flash.c ****       *(__IO uint16_t*)Address = Data;
 885:./.driver/STM32F10x_StdPeriph_Driver/src/stm32f10x_flash.c ****       /* Wait for last operation to be completed */
 886:./.driver/STM32F10x_StdPeriph_Driver/src/stm32f10x_flash.c ****       status = FLASH_WaitForLastBank2Operation(ProgramTimeout);
 887:./.driver/STM32F10x_StdPeriph_Driver/src/stm32f10x_flash.c **** 
 888:./.driver/STM32F10x_StdPeriph_Driver/src/stm32f10x_flash.c ****       /* Disable the PG Bit */
 889:./.driver/STM32F10x_StdPeriph_Driver/src/stm32f10x_flash.c ****       FLASH->CR2 &= CR_PG_Reset;
 890:./.driver/STM32F10x_StdPeriph_Driver/src/stm32f10x_flash.c ****     }
 891:./.driver/STM32F10x_StdPeriph_Driver/src/stm32f10x_flash.c ****   }
 892:./.driver/STM32F10x_StdPeriph_Driver/src/stm32f10x_flash.c **** #else
 893:./.driver/STM32F10x_StdPeriph_Driver/src/stm32f10x_flash.c ****   /* Wait for last operation to be completed */
 894:./.driver/STM32F10x_StdPeriph_Driver/src/stm32f10x_flash.c ****   status = FLASH_WaitForLastOperation(ProgramTimeout);
 939              		.loc 1 894 12
 940 0010 4FF40050 		mov	r0, #8192
 941 0014 FFF7FEFF 		bl	FLASH_WaitForLastOperation
 942 0018 0346     		mov	r3, r0
 943 001a FB73     		strb	r3, [r7, #15]
 895:./.driver/STM32F10x_StdPeriph_Driver/src/stm32f10x_flash.c ****   
 896:./.driver/STM32F10x_StdPeriph_Driver/src/stm32f10x_flash.c ****   if(status == FLASH_COMPLETE)
 944              		.loc 1 896 5
 945 001c FB7B     		ldrb	r3, [r7, #15]	@ zero_extendqisi2
 946 001e 042B     		cmp	r3, #4
 947 0020 15D1     		bne	.L51
 897:./.driver/STM32F10x_StdPeriph_Driver/src/stm32f10x_flash.c ****   {
 898:./.driver/STM32F10x_StdPeriph_Driver/src/stm32f10x_flash.c ****     /* if the previous operation is completed, proceed to program the new data */
 899:./.driver/STM32F10x_StdPeriph_Driver/src/stm32f10x_flash.c ****     FLASH->CR |= CR_PG_Set;
 948              		.loc 1 899 15
 949 0022 0D4B     		ldr	r3, .L53
 950 0024 1B69     		ldr	r3, [r3, #16]
ARM GAS  C:\Users\SAMEER~1.ALM\AppData\Local\Temp\ccT7Y8qk.s 			page 33


 951 0026 0C4A     		ldr	r2, .L53
 952 0028 43F00103 		orr	r3, r3, #1
 953 002c 1361     		str	r3, [r2, #16]
 900:./.driver/STM32F10x_StdPeriph_Driver/src/stm32f10x_flash.c ****   
 901:./.driver/STM32F10x_StdPeriph_Driver/src/stm32f10x_flash.c ****     *(__IO uint16_t*)Address = Data;
 954              		.loc 1 901 6
 955 002e 7B68     		ldr	r3, [r7, #4]
 956              		.loc 1 901 30
 957 0030 7A88     		ldrh	r2, [r7, #2]	@ movhi
 958 0032 1A80     		strh	r2, [r3]	@ movhi
 902:./.driver/STM32F10x_StdPeriph_Driver/src/stm32f10x_flash.c ****     /* Wait for last operation to be completed */
 903:./.driver/STM32F10x_StdPeriph_Driver/src/stm32f10x_flash.c ****     status = FLASH_WaitForLastOperation(ProgramTimeout);
 959              		.loc 1 903 14
 960 0034 4FF40050 		mov	r0, #8192
 961 0038 FFF7FEFF 		bl	FLASH_WaitForLastOperation
 962 003c 0346     		mov	r3, r0
 963 003e FB73     		strb	r3, [r7, #15]
 904:./.driver/STM32F10x_StdPeriph_Driver/src/stm32f10x_flash.c ****     
 905:./.driver/STM32F10x_StdPeriph_Driver/src/stm32f10x_flash.c ****     /* Disable the PG Bit */
 906:./.driver/STM32F10x_StdPeriph_Driver/src/stm32f10x_flash.c ****     FLASH->CR &= CR_PG_Reset;
 964              		.loc 1 906 15
 965 0040 054B     		ldr	r3, .L53
 966 0042 1A69     		ldr	r2, [r3, #16]
 967 0044 0449     		ldr	r1, .L53
 968 0046 41F6FE73 		movw	r3, #8190
 969 004a 1340     		ands	r3, r3, r2
 970 004c 0B61     		str	r3, [r1, #16]
 971              	.L51:
 907:./.driver/STM32F10x_StdPeriph_Driver/src/stm32f10x_flash.c ****   } 
 908:./.driver/STM32F10x_StdPeriph_Driver/src/stm32f10x_flash.c **** #endif  /* STM32F10X_XL */
 909:./.driver/STM32F10x_StdPeriph_Driver/src/stm32f10x_flash.c ****   
 910:./.driver/STM32F10x_StdPeriph_Driver/src/stm32f10x_flash.c ****   /* Return the Program Status */
 911:./.driver/STM32F10x_StdPeriph_Driver/src/stm32f10x_flash.c ****   return status;
 972              		.loc 1 911 10
 973 004e FB7B     		ldrb	r3, [r7, #15]	@ zero_extendqisi2
 912:./.driver/STM32F10x_StdPeriph_Driver/src/stm32f10x_flash.c **** }
 974              		.loc 1 912 1
 975 0050 1846     		mov	r0, r3
 976 0052 1037     		adds	r7, r7, #16
 977              	.LCFI62:
 978              		.cfi_def_cfa_offset 8
 979 0054 BD46     		mov	sp, r7
 980              	.LCFI63:
 981              		.cfi_def_cfa_register 13
 982              		@ sp needed
 983 0056 80BD     		pop	{r7, pc}
 984              	.L54:
 985              		.align	2
 986              	.L53:
 987 0058 00200240 		.word	1073881088
 988              		.cfi_endproc
 989              	.LFE41:
 991              		.section	.text.FLASH_ProgramOptionByteData,"ax",%progbits
 992              		.align	1
 993              		.global	FLASH_ProgramOptionByteData
 994              		.syntax unified
 995              		.thumb
ARM GAS  C:\Users\SAMEER~1.ALM\AppData\Local\Temp\ccT7Y8qk.s 			page 34


 996              		.thumb_func
 998              	FLASH_ProgramOptionByteData:
 999              	.LFB42:
 913:./.driver/STM32F10x_StdPeriph_Driver/src/stm32f10x_flash.c **** 
 914:./.driver/STM32F10x_StdPeriph_Driver/src/stm32f10x_flash.c **** /**
 915:./.driver/STM32F10x_StdPeriph_Driver/src/stm32f10x_flash.c ****   * @brief  Programs a half word at a specified Option Byte Data address.
 916:./.driver/STM32F10x_StdPeriph_Driver/src/stm32f10x_flash.c ****   * @note   This function can be used for all STM32F10x devices.
 917:./.driver/STM32F10x_StdPeriph_Driver/src/stm32f10x_flash.c ****   * @param  Address: specifies the address to be programmed.
 918:./.driver/STM32F10x_StdPeriph_Driver/src/stm32f10x_flash.c ****   *   This parameter can be 0x1FFFF804 or 0x1FFFF806. 
 919:./.driver/STM32F10x_StdPeriph_Driver/src/stm32f10x_flash.c ****   * @param  Data: specifies the data to be programmed.
 920:./.driver/STM32F10x_StdPeriph_Driver/src/stm32f10x_flash.c ****   * @retval FLASH Status: The returned value can be: FLASH_ERROR_PG,
 921:./.driver/STM32F10x_StdPeriph_Driver/src/stm32f10x_flash.c ****   *         FLASH_ERROR_WRP, FLASH_COMPLETE or FLASH_TIMEOUT. 
 922:./.driver/STM32F10x_StdPeriph_Driver/src/stm32f10x_flash.c ****   */
 923:./.driver/STM32F10x_StdPeriph_Driver/src/stm32f10x_flash.c **** FLASH_Status FLASH_ProgramOptionByteData(uint32_t Address, uint8_t Data)
 924:./.driver/STM32F10x_StdPeriph_Driver/src/stm32f10x_flash.c **** {
 1000              		.loc 1 924 1
 1001              		.cfi_startproc
 1002              		@ args = 0, pretend = 0, frame = 16
 1003              		@ frame_needed = 1, uses_anonymous_args = 0
 1004 0000 80B5     		push	{r7, lr}
 1005              	.LCFI64:
 1006              		.cfi_def_cfa_offset 8
 1007              		.cfi_offset 7, -8
 1008              		.cfi_offset 14, -4
 1009 0002 84B0     		sub	sp, sp, #16
 1010              	.LCFI65:
 1011              		.cfi_def_cfa_offset 24
 1012 0004 00AF     		add	r7, sp, #0
 1013              	.LCFI66:
 1014              		.cfi_def_cfa_register 7
 1015 0006 7860     		str	r0, [r7, #4]
 1016 0008 0B46     		mov	r3, r1
 1017 000a FB70     		strb	r3, [r7, #3]
 925:./.driver/STM32F10x_StdPeriph_Driver/src/stm32f10x_flash.c ****   FLASH_Status status = FLASH_COMPLETE;
 1018              		.loc 1 925 16
 1019 000c 0423     		movs	r3, #4
 1020 000e FB73     		strb	r3, [r7, #15]
 926:./.driver/STM32F10x_StdPeriph_Driver/src/stm32f10x_flash.c ****   /* Check the parameters */
 927:./.driver/STM32F10x_StdPeriph_Driver/src/stm32f10x_flash.c ****   assert_param(IS_OB_DATA_ADDRESS(Address));
 928:./.driver/STM32F10x_StdPeriph_Driver/src/stm32f10x_flash.c ****   status = FLASH_WaitForLastOperation(ProgramTimeout);
 1021              		.loc 1 928 12
 1022 0010 4FF40050 		mov	r0, #8192
 1023 0014 FFF7FEFF 		bl	FLASH_WaitForLastOperation
 1024 0018 0346     		mov	r3, r0
 1025 001a FB73     		strb	r3, [r7, #15]
 929:./.driver/STM32F10x_StdPeriph_Driver/src/stm32f10x_flash.c **** 
 930:./.driver/STM32F10x_StdPeriph_Driver/src/stm32f10x_flash.c ****   if(status == FLASH_COMPLETE)
 1026              		.loc 1 930 5
 1027 001c FB7B     		ldrb	r3, [r7, #15]	@ zero_extendqisi2
 1028 001e 042B     		cmp	r3, #4
 1029 0020 1FD1     		bne	.L56
 931:./.driver/STM32F10x_StdPeriph_Driver/src/stm32f10x_flash.c ****   {
 932:./.driver/STM32F10x_StdPeriph_Driver/src/stm32f10x_flash.c ****     /* Authorize the small information block programming */
 933:./.driver/STM32F10x_StdPeriph_Driver/src/stm32f10x_flash.c ****     FLASH->OPTKEYR = FLASH_KEY1;
 1030              		.loc 1 933 10
 1031 0022 124B     		ldr	r3, .L58
 1032              		.loc 1 933 20
ARM GAS  C:\Users\SAMEER~1.ALM\AppData\Local\Temp\ccT7Y8qk.s 			page 35


 1033 0024 124A     		ldr	r2, .L58+4
 1034 0026 9A60     		str	r2, [r3, #8]
 934:./.driver/STM32F10x_StdPeriph_Driver/src/stm32f10x_flash.c ****     FLASH->OPTKEYR = FLASH_KEY2;
 1035              		.loc 1 934 10
 1036 0028 104B     		ldr	r3, .L58
 1037              		.loc 1 934 20
 1038 002a 124A     		ldr	r2, .L58+8
 1039 002c 9A60     		str	r2, [r3, #8]
 935:./.driver/STM32F10x_StdPeriph_Driver/src/stm32f10x_flash.c ****     /* Enables the Option Bytes Programming operation */
 936:./.driver/STM32F10x_StdPeriph_Driver/src/stm32f10x_flash.c ****     FLASH->CR |= CR_OPTPG_Set; 
 1040              		.loc 1 936 15
 1041 002e 0F4B     		ldr	r3, .L58
 1042 0030 1B69     		ldr	r3, [r3, #16]
 1043 0032 0E4A     		ldr	r2, .L58
 1044 0034 43F01003 		orr	r3, r3, #16
 1045 0038 1361     		str	r3, [r2, #16]
 937:./.driver/STM32F10x_StdPeriph_Driver/src/stm32f10x_flash.c ****     *(__IO uint16_t*)Address = Data;
 1046              		.loc 1 937 6
 1047 003a 7B68     		ldr	r3, [r7, #4]
 1048              		.loc 1 937 30
 1049 003c FA78     		ldrb	r2, [r7, #3]	@ zero_extendqisi2
 1050 003e 92B2     		uxth	r2, r2
 1051 0040 1A80     		strh	r2, [r3]	@ movhi
 938:./.driver/STM32F10x_StdPeriph_Driver/src/stm32f10x_flash.c ****     
 939:./.driver/STM32F10x_StdPeriph_Driver/src/stm32f10x_flash.c ****     /* Wait for last operation to be completed */
 940:./.driver/STM32F10x_StdPeriph_Driver/src/stm32f10x_flash.c ****     status = FLASH_WaitForLastOperation(ProgramTimeout);
 1052              		.loc 1 940 14
 1053 0042 4FF40050 		mov	r0, #8192
 1054 0046 FFF7FEFF 		bl	FLASH_WaitForLastOperation
 1055 004a 0346     		mov	r3, r0
 1056 004c FB73     		strb	r3, [r7, #15]
 941:./.driver/STM32F10x_StdPeriph_Driver/src/stm32f10x_flash.c ****     if(status != FLASH_TIMEOUT)
 1057              		.loc 1 941 7
 1058 004e FB7B     		ldrb	r3, [r7, #15]	@ zero_extendqisi2
 1059 0050 052B     		cmp	r3, #5
 1060 0052 06D0     		beq	.L56
 942:./.driver/STM32F10x_StdPeriph_Driver/src/stm32f10x_flash.c ****     {
 943:./.driver/STM32F10x_StdPeriph_Driver/src/stm32f10x_flash.c ****       /* if the program operation is completed, disable the OPTPG Bit */
 944:./.driver/STM32F10x_StdPeriph_Driver/src/stm32f10x_flash.c ****       FLASH->CR &= CR_OPTPG_Reset;
 1061              		.loc 1 944 17
 1062 0054 054B     		ldr	r3, .L58
 1063 0056 1A69     		ldr	r2, [r3, #16]
 1064 0058 0449     		ldr	r1, .L58
 1065 005a 41F6EF73 		movw	r3, #8175
 1066 005e 1340     		ands	r3, r3, r2
 1067 0060 0B61     		str	r3, [r1, #16]
 1068              	.L56:
 945:./.driver/STM32F10x_StdPeriph_Driver/src/stm32f10x_flash.c ****     }
 946:./.driver/STM32F10x_StdPeriph_Driver/src/stm32f10x_flash.c ****   }
 947:./.driver/STM32F10x_StdPeriph_Driver/src/stm32f10x_flash.c ****   /* Return the Option Byte Data Program Status */
 948:./.driver/STM32F10x_StdPeriph_Driver/src/stm32f10x_flash.c ****   return status;
 1069              		.loc 1 948 10
 1070 0062 FB7B     		ldrb	r3, [r7, #15]	@ zero_extendqisi2
 949:./.driver/STM32F10x_StdPeriph_Driver/src/stm32f10x_flash.c **** }
 1071              		.loc 1 949 1
 1072 0064 1846     		mov	r0, r3
 1073 0066 1037     		adds	r7, r7, #16
ARM GAS  C:\Users\SAMEER~1.ALM\AppData\Local\Temp\ccT7Y8qk.s 			page 36


 1074              	.LCFI67:
 1075              		.cfi_def_cfa_offset 8
 1076 0068 BD46     		mov	sp, r7
 1077              	.LCFI68:
 1078              		.cfi_def_cfa_register 13
 1079              		@ sp needed
 1080 006a 80BD     		pop	{r7, pc}
 1081              	.L59:
 1082              		.align	2
 1083              	.L58:
 1084 006c 00200240 		.word	1073881088
 1085 0070 23016745 		.word	1164378403
 1086 0074 AB89EFCD 		.word	-839939669
 1087              		.cfi_endproc
 1088              	.LFE42:
 1090              		.section	.text.FLASH_EnableWriteProtection,"ax",%progbits
 1091              		.align	1
 1092              		.global	FLASH_EnableWriteProtection
 1093              		.syntax unified
 1094              		.thumb
 1095              		.thumb_func
 1097              	FLASH_EnableWriteProtection:
 1098              	.LFB43:
 950:./.driver/STM32F10x_StdPeriph_Driver/src/stm32f10x_flash.c **** 
 951:./.driver/STM32F10x_StdPeriph_Driver/src/stm32f10x_flash.c **** /**
 952:./.driver/STM32F10x_StdPeriph_Driver/src/stm32f10x_flash.c ****   * @brief  Write protects the desired pages
 953:./.driver/STM32F10x_StdPeriph_Driver/src/stm32f10x_flash.c ****   * @note   This function can be used for all STM32F10x devices.
 954:./.driver/STM32F10x_StdPeriph_Driver/src/stm32f10x_flash.c ****   * @param  FLASH_Pages: specifies the address of the pages to be write protected.
 955:./.driver/STM32F10x_StdPeriph_Driver/src/stm32f10x_flash.c ****   *   This parameter can be:
 956:./.driver/STM32F10x_StdPeriph_Driver/src/stm32f10x_flash.c ****   *     @arg For @b STM32_Low-density_devices: value between FLASH_WRProt_Pages0to3 and FLASH_WRPro
 957:./.driver/STM32F10x_StdPeriph_Driver/src/stm32f10x_flash.c ****   *     @arg For @b STM32_Medium-density_devices: value between FLASH_WRProt_Pages0to3
 958:./.driver/STM32F10x_StdPeriph_Driver/src/stm32f10x_flash.c ****   *       and FLASH_WRProt_Pages124to127
 959:./.driver/STM32F10x_StdPeriph_Driver/src/stm32f10x_flash.c ****   *     @arg For @b STM32_High-density_devices: value between FLASH_WRProt_Pages0to1 and
 960:./.driver/STM32F10x_StdPeriph_Driver/src/stm32f10x_flash.c ****   *       FLASH_WRProt_Pages60to61 or FLASH_WRProt_Pages62to255
 961:./.driver/STM32F10x_StdPeriph_Driver/src/stm32f10x_flash.c ****   *     @arg For @b STM32_Connectivity_line_devices: value between FLASH_WRProt_Pages0to1 and
 962:./.driver/STM32F10x_StdPeriph_Driver/src/stm32f10x_flash.c ****   *       FLASH_WRProt_Pages60to61 or FLASH_WRProt_Pages62to127    
 963:./.driver/STM32F10x_StdPeriph_Driver/src/stm32f10x_flash.c ****   *     @arg For @b STM32_XL-density_devices: value between FLASH_WRProt_Pages0to1 and
 964:./.driver/STM32F10x_StdPeriph_Driver/src/stm32f10x_flash.c ****   *       FLASH_WRProt_Pages60to61 or FLASH_WRProt_Pages62to511
 965:./.driver/STM32F10x_StdPeriph_Driver/src/stm32f10x_flash.c ****   *     @arg FLASH_WRProt_AllPages
 966:./.driver/STM32F10x_StdPeriph_Driver/src/stm32f10x_flash.c ****   * @retval FLASH Status: The returned value can be: FLASH_ERROR_PG,
 967:./.driver/STM32F10x_StdPeriph_Driver/src/stm32f10x_flash.c ****   *         FLASH_ERROR_WRP, FLASH_COMPLETE or FLASH_TIMEOUT.
 968:./.driver/STM32F10x_StdPeriph_Driver/src/stm32f10x_flash.c ****   */
 969:./.driver/STM32F10x_StdPeriph_Driver/src/stm32f10x_flash.c **** FLASH_Status FLASH_EnableWriteProtection(uint32_t FLASH_Pages)
 970:./.driver/STM32F10x_StdPeriph_Driver/src/stm32f10x_flash.c **** {
 1099              		.loc 1 970 1
 1100              		.cfi_startproc
 1101              		@ args = 0, pretend = 0, frame = 24
 1102              		@ frame_needed = 1, uses_anonymous_args = 0
 1103 0000 80B5     		push	{r7, lr}
 1104              	.LCFI69:
 1105              		.cfi_def_cfa_offset 8
 1106              		.cfi_offset 7, -8
 1107              		.cfi_offset 14, -4
 1108 0002 86B0     		sub	sp, sp, #24
 1109              	.LCFI70:
 1110              		.cfi_def_cfa_offset 32
 1111 0004 00AF     		add	r7, sp, #0
ARM GAS  C:\Users\SAMEER~1.ALM\AppData\Local\Temp\ccT7Y8qk.s 			page 37


 1112              	.LCFI71:
 1113              		.cfi_def_cfa_register 7
 1114 0006 7860     		str	r0, [r7, #4]
 971:./.driver/STM32F10x_StdPeriph_Driver/src/stm32f10x_flash.c ****   uint16_t WRP0_Data = 0xFFFF, WRP1_Data = 0xFFFF, WRP2_Data = 0xFFFF, WRP3_Data = 0xFFFF;
 1115              		.loc 1 971 12
 1116 0008 4FF6FF73 		movw	r3, #65535
 1117 000c BB82     		strh	r3, [r7, #20]	@ movhi
 1118              		.loc 1 971 32
 1119 000e 4FF6FF73 		movw	r3, #65535
 1120 0012 7B82     		strh	r3, [r7, #18]	@ movhi
 1121              		.loc 1 971 52
 1122 0014 4FF6FF73 		movw	r3, #65535
 1123 0018 3B82     		strh	r3, [r7, #16]	@ movhi
 1124              		.loc 1 971 72
 1125 001a 4FF6FF73 		movw	r3, #65535
 1126 001e FB81     		strh	r3, [r7, #14]	@ movhi
 972:./.driver/STM32F10x_StdPeriph_Driver/src/stm32f10x_flash.c ****   
 973:./.driver/STM32F10x_StdPeriph_Driver/src/stm32f10x_flash.c ****   FLASH_Status status = FLASH_COMPLETE;
 1127              		.loc 1 973 16
 1128 0020 0423     		movs	r3, #4
 1129 0022 FB75     		strb	r3, [r7, #23]
 974:./.driver/STM32F10x_StdPeriph_Driver/src/stm32f10x_flash.c ****   
 975:./.driver/STM32F10x_StdPeriph_Driver/src/stm32f10x_flash.c ****   /* Check the parameters */
 976:./.driver/STM32F10x_StdPeriph_Driver/src/stm32f10x_flash.c ****   assert_param(IS_FLASH_WRPROT_PAGE(FLASH_Pages));
 977:./.driver/STM32F10x_StdPeriph_Driver/src/stm32f10x_flash.c ****   
 978:./.driver/STM32F10x_StdPeriph_Driver/src/stm32f10x_flash.c ****   FLASH_Pages = (uint32_t)(~FLASH_Pages);
 1130              		.loc 1 978 15
 1131 0024 7B68     		ldr	r3, [r7, #4]
 1132 0026 DB43     		mvns	r3, r3
 1133 0028 7B60     		str	r3, [r7, #4]
 979:./.driver/STM32F10x_StdPeriph_Driver/src/stm32f10x_flash.c ****   WRP0_Data = (uint16_t)(FLASH_Pages & WRP0_Mask);
 1134              		.loc 1 979 15
 1135 002a 7B68     		ldr	r3, [r7, #4]
 1136 002c 9BB2     		uxth	r3, r3
 1137              		.loc 1 979 13
 1138 002e DBB2     		uxtb	r3, r3
 1139 0030 BB82     		strh	r3, [r7, #20]	@ movhi
 980:./.driver/STM32F10x_StdPeriph_Driver/src/stm32f10x_flash.c ****   WRP1_Data = (uint16_t)((FLASH_Pages & WRP1_Mask) >> 8);
 1140              		.loc 1 980 52
 1141 0032 7B68     		ldr	r3, [r7, #4]
 1142 0034 1B0A     		lsrs	r3, r3, #8
 1143              		.loc 1 980 15
 1144 0036 9BB2     		uxth	r3, r3
 1145              		.loc 1 980 13
 1146 0038 DBB2     		uxtb	r3, r3
 1147 003a 7B82     		strh	r3, [r7, #18]	@ movhi
 981:./.driver/STM32F10x_StdPeriph_Driver/src/stm32f10x_flash.c ****   WRP2_Data = (uint16_t)((FLASH_Pages & WRP2_Mask) >> 16);
 1148              		.loc 1 981 52
 1149 003c 7B68     		ldr	r3, [r7, #4]
 1150 003e 1B0C     		lsrs	r3, r3, #16
 1151              		.loc 1 981 15
 1152 0040 9BB2     		uxth	r3, r3
 1153              		.loc 1 981 13
 1154 0042 DBB2     		uxtb	r3, r3
 1155 0044 3B82     		strh	r3, [r7, #16]	@ movhi
 982:./.driver/STM32F10x_StdPeriph_Driver/src/stm32f10x_flash.c ****   WRP3_Data = (uint16_t)((FLASH_Pages & WRP3_Mask) >> 24);
 1156              		.loc 1 982 52
ARM GAS  C:\Users\SAMEER~1.ALM\AppData\Local\Temp\ccT7Y8qk.s 			page 38


 1157 0046 7B68     		ldr	r3, [r7, #4]
 1158 0048 1B0E     		lsrs	r3, r3, #24
 1159              		.loc 1 982 13
 1160 004a FB81     		strh	r3, [r7, #14]	@ movhi
 983:./.driver/STM32F10x_StdPeriph_Driver/src/stm32f10x_flash.c ****   
 984:./.driver/STM32F10x_StdPeriph_Driver/src/stm32f10x_flash.c ****   /* Wait for last operation to be completed */
 985:./.driver/STM32F10x_StdPeriph_Driver/src/stm32f10x_flash.c ****   status = FLASH_WaitForLastOperation(ProgramTimeout);
 1161              		.loc 1 985 12
 1162 004c 4FF40050 		mov	r0, #8192
 1163 0050 FFF7FEFF 		bl	FLASH_WaitForLastOperation
 1164 0054 0346     		mov	r3, r0
 1165 0056 FB75     		strb	r3, [r7, #23]
 986:./.driver/STM32F10x_StdPeriph_Driver/src/stm32f10x_flash.c ****   
 987:./.driver/STM32F10x_StdPeriph_Driver/src/stm32f10x_flash.c ****   if(status == FLASH_COMPLETE)
 1166              		.loc 1 987 5
 1167 0058 FB7D     		ldrb	r3, [r7, #23]	@ zero_extendqisi2
 1168 005a 042B     		cmp	r3, #4
 1169 005c 4ED1     		bne	.L61
 988:./.driver/STM32F10x_StdPeriph_Driver/src/stm32f10x_flash.c ****   {
 989:./.driver/STM32F10x_StdPeriph_Driver/src/stm32f10x_flash.c ****     /* Authorizes the small information block programming */
 990:./.driver/STM32F10x_StdPeriph_Driver/src/stm32f10x_flash.c ****     FLASH->OPTKEYR = FLASH_KEY1;
 1170              		.loc 1 990 10
 1171 005e 2A4B     		ldr	r3, .L67
 1172              		.loc 1 990 20
 1173 0060 2A4A     		ldr	r2, .L67+4
 1174 0062 9A60     		str	r2, [r3, #8]
 991:./.driver/STM32F10x_StdPeriph_Driver/src/stm32f10x_flash.c ****     FLASH->OPTKEYR = FLASH_KEY2;
 1175              		.loc 1 991 10
 1176 0064 284B     		ldr	r3, .L67
 1177              		.loc 1 991 20
 1178 0066 2A4A     		ldr	r2, .L67+8
 1179 0068 9A60     		str	r2, [r3, #8]
 992:./.driver/STM32F10x_StdPeriph_Driver/src/stm32f10x_flash.c ****     FLASH->CR |= CR_OPTPG_Set;
 1180              		.loc 1 992 15
 1181 006a 274B     		ldr	r3, .L67
 1182 006c 1B69     		ldr	r3, [r3, #16]
 1183 006e 264A     		ldr	r2, .L67
 1184 0070 43F01003 		orr	r3, r3, #16
 1185 0074 1361     		str	r3, [r2, #16]
 993:./.driver/STM32F10x_StdPeriph_Driver/src/stm32f10x_flash.c ****     if(WRP0_Data != 0xFF)
 1186              		.loc 1 993 7
 1187 0076 BB8A     		ldrh	r3, [r7, #20]
 1188 0078 FF2B     		cmp	r3, #255
 1189 007a 08D0     		beq	.L62
 994:./.driver/STM32F10x_StdPeriph_Driver/src/stm32f10x_flash.c ****     {
 995:./.driver/STM32F10x_StdPeriph_Driver/src/stm32f10x_flash.c ****       OB->WRP0 = WRP0_Data;
 1190              		.loc 1 995 9
 1191 007c 254A     		ldr	r2, .L67+12
 1192              		.loc 1 995 16
 1193 007e BB8A     		ldrh	r3, [r7, #20]	@ movhi
 1194 0080 1381     		strh	r3, [r2, #8]	@ movhi
 996:./.driver/STM32F10x_StdPeriph_Driver/src/stm32f10x_flash.c ****       
 997:./.driver/STM32F10x_StdPeriph_Driver/src/stm32f10x_flash.c ****       /* Wait for last operation to be completed */
 998:./.driver/STM32F10x_StdPeriph_Driver/src/stm32f10x_flash.c ****       status = FLASH_WaitForLastOperation(ProgramTimeout);
 1195              		.loc 1 998 16
 1196 0082 4FF40050 		mov	r0, #8192
 1197 0086 FFF7FEFF 		bl	FLASH_WaitForLastOperation
ARM GAS  C:\Users\SAMEER~1.ALM\AppData\Local\Temp\ccT7Y8qk.s 			page 39


 1198 008a 0346     		mov	r3, r0
 1199 008c FB75     		strb	r3, [r7, #23]
 1200              	.L62:
 999:./.driver/STM32F10x_StdPeriph_Driver/src/stm32f10x_flash.c ****     }
1000:./.driver/STM32F10x_StdPeriph_Driver/src/stm32f10x_flash.c ****     if((status == FLASH_COMPLETE) && (WRP1_Data != 0xFF))
 1201              		.loc 1 1000 7
 1202 008e FB7D     		ldrb	r3, [r7, #23]	@ zero_extendqisi2
 1203 0090 042B     		cmp	r3, #4
 1204 0092 0BD1     		bne	.L63
 1205              		.loc 1 1000 35 discriminator 1
 1206 0094 7B8A     		ldrh	r3, [r7, #18]
 1207 0096 FF2B     		cmp	r3, #255
 1208 0098 08D0     		beq	.L63
1001:./.driver/STM32F10x_StdPeriph_Driver/src/stm32f10x_flash.c ****     {
1002:./.driver/STM32F10x_StdPeriph_Driver/src/stm32f10x_flash.c ****       OB->WRP1 = WRP1_Data;
 1209              		.loc 1 1002 9
 1210 009a 1E4A     		ldr	r2, .L67+12
 1211              		.loc 1 1002 16
 1212 009c 7B8A     		ldrh	r3, [r7, #18]	@ movhi
 1213 009e 5381     		strh	r3, [r2, #10]	@ movhi
1003:./.driver/STM32F10x_StdPeriph_Driver/src/stm32f10x_flash.c ****       
1004:./.driver/STM32F10x_StdPeriph_Driver/src/stm32f10x_flash.c ****       /* Wait for last operation to be completed */
1005:./.driver/STM32F10x_StdPeriph_Driver/src/stm32f10x_flash.c ****       status = FLASH_WaitForLastOperation(ProgramTimeout);
 1214              		.loc 1 1005 16
 1215 00a0 4FF40050 		mov	r0, #8192
 1216 00a4 FFF7FEFF 		bl	FLASH_WaitForLastOperation
 1217 00a8 0346     		mov	r3, r0
 1218 00aa FB75     		strb	r3, [r7, #23]
 1219              	.L63:
1006:./.driver/STM32F10x_StdPeriph_Driver/src/stm32f10x_flash.c ****     }
1007:./.driver/STM32F10x_StdPeriph_Driver/src/stm32f10x_flash.c ****     if((status == FLASH_COMPLETE) && (WRP2_Data != 0xFF))
 1220              		.loc 1 1007 7
 1221 00ac FB7D     		ldrb	r3, [r7, #23]	@ zero_extendqisi2
 1222 00ae 042B     		cmp	r3, #4
 1223 00b0 0BD1     		bne	.L64
 1224              		.loc 1 1007 35 discriminator 1
 1225 00b2 3B8A     		ldrh	r3, [r7, #16]
 1226 00b4 FF2B     		cmp	r3, #255
 1227 00b6 08D0     		beq	.L64
1008:./.driver/STM32F10x_StdPeriph_Driver/src/stm32f10x_flash.c ****     {
1009:./.driver/STM32F10x_StdPeriph_Driver/src/stm32f10x_flash.c ****       OB->WRP2 = WRP2_Data;
 1228              		.loc 1 1009 9
 1229 00b8 164A     		ldr	r2, .L67+12
 1230              		.loc 1 1009 16
 1231 00ba 3B8A     		ldrh	r3, [r7, #16]	@ movhi
 1232 00bc 9381     		strh	r3, [r2, #12]	@ movhi
1010:./.driver/STM32F10x_StdPeriph_Driver/src/stm32f10x_flash.c ****       
1011:./.driver/STM32F10x_StdPeriph_Driver/src/stm32f10x_flash.c ****       /* Wait for last operation to be completed */
1012:./.driver/STM32F10x_StdPeriph_Driver/src/stm32f10x_flash.c ****       status = FLASH_WaitForLastOperation(ProgramTimeout);
 1233              		.loc 1 1012 16
 1234 00be 4FF40050 		mov	r0, #8192
 1235 00c2 FFF7FEFF 		bl	FLASH_WaitForLastOperation
 1236 00c6 0346     		mov	r3, r0
 1237 00c8 FB75     		strb	r3, [r7, #23]
 1238              	.L64:
1013:./.driver/STM32F10x_StdPeriph_Driver/src/stm32f10x_flash.c ****     }
1014:./.driver/STM32F10x_StdPeriph_Driver/src/stm32f10x_flash.c ****     
ARM GAS  C:\Users\SAMEER~1.ALM\AppData\Local\Temp\ccT7Y8qk.s 			page 40


1015:./.driver/STM32F10x_StdPeriph_Driver/src/stm32f10x_flash.c ****     if((status == FLASH_COMPLETE)&& (WRP3_Data != 0xFF))
 1239              		.loc 1 1015 7
 1240 00ca FB7D     		ldrb	r3, [r7, #23]	@ zero_extendqisi2
 1241 00cc 042B     		cmp	r3, #4
 1242 00ce 0BD1     		bne	.L65
 1243              		.loc 1 1015 34 discriminator 1
 1244 00d0 FB89     		ldrh	r3, [r7, #14]
 1245 00d2 FF2B     		cmp	r3, #255
 1246 00d4 08D0     		beq	.L65
1016:./.driver/STM32F10x_StdPeriph_Driver/src/stm32f10x_flash.c ****     {
1017:./.driver/STM32F10x_StdPeriph_Driver/src/stm32f10x_flash.c ****       OB->WRP3 = WRP3_Data;
 1247              		.loc 1 1017 9
 1248 00d6 0F4A     		ldr	r2, .L67+12
 1249              		.loc 1 1017 16
 1250 00d8 FB89     		ldrh	r3, [r7, #14]	@ movhi
 1251 00da D381     		strh	r3, [r2, #14]	@ movhi
1018:./.driver/STM32F10x_StdPeriph_Driver/src/stm32f10x_flash.c ****      
1019:./.driver/STM32F10x_StdPeriph_Driver/src/stm32f10x_flash.c ****       /* Wait for last operation to be completed */
1020:./.driver/STM32F10x_StdPeriph_Driver/src/stm32f10x_flash.c ****       status = FLASH_WaitForLastOperation(ProgramTimeout);
 1252              		.loc 1 1020 16
 1253 00dc 4FF40050 		mov	r0, #8192
 1254 00e0 FFF7FEFF 		bl	FLASH_WaitForLastOperation
 1255 00e4 0346     		mov	r3, r0
 1256 00e6 FB75     		strb	r3, [r7, #23]
 1257              	.L65:
1021:./.driver/STM32F10x_StdPeriph_Driver/src/stm32f10x_flash.c ****     }
1022:./.driver/STM32F10x_StdPeriph_Driver/src/stm32f10x_flash.c ****           
1023:./.driver/STM32F10x_StdPeriph_Driver/src/stm32f10x_flash.c ****     if(status != FLASH_TIMEOUT)
 1258              		.loc 1 1023 7
 1259 00e8 FB7D     		ldrb	r3, [r7, #23]	@ zero_extendqisi2
 1260 00ea 052B     		cmp	r3, #5
 1261 00ec 06D0     		beq	.L61
1024:./.driver/STM32F10x_StdPeriph_Driver/src/stm32f10x_flash.c ****     {
1025:./.driver/STM32F10x_StdPeriph_Driver/src/stm32f10x_flash.c ****       /* if the program operation is completed, disable the OPTPG Bit */
1026:./.driver/STM32F10x_StdPeriph_Driver/src/stm32f10x_flash.c ****       FLASH->CR &= CR_OPTPG_Reset;
 1262              		.loc 1 1026 17
 1263 00ee 064B     		ldr	r3, .L67
 1264 00f0 1A69     		ldr	r2, [r3, #16]
 1265 00f2 0549     		ldr	r1, .L67
 1266 00f4 41F6EF73 		movw	r3, #8175
 1267 00f8 1340     		ands	r3, r3, r2
 1268 00fa 0B61     		str	r3, [r1, #16]
 1269              	.L61:
1027:./.driver/STM32F10x_StdPeriph_Driver/src/stm32f10x_flash.c ****     }
1028:./.driver/STM32F10x_StdPeriph_Driver/src/stm32f10x_flash.c ****   } 
1029:./.driver/STM32F10x_StdPeriph_Driver/src/stm32f10x_flash.c ****   /* Return the write protection operation Status */
1030:./.driver/STM32F10x_StdPeriph_Driver/src/stm32f10x_flash.c ****   return status;       
 1270              		.loc 1 1030 10
 1271 00fc FB7D     		ldrb	r3, [r7, #23]	@ zero_extendqisi2
1031:./.driver/STM32F10x_StdPeriph_Driver/src/stm32f10x_flash.c **** }
 1272              		.loc 1 1031 1
 1273 00fe 1846     		mov	r0, r3
 1274 0100 1837     		adds	r7, r7, #24
 1275              	.LCFI72:
 1276              		.cfi_def_cfa_offset 8
 1277 0102 BD46     		mov	sp, r7
 1278              	.LCFI73:
ARM GAS  C:\Users\SAMEER~1.ALM\AppData\Local\Temp\ccT7Y8qk.s 			page 41


 1279              		.cfi_def_cfa_register 13
 1280              		@ sp needed
 1281 0104 80BD     		pop	{r7, pc}
 1282              	.L68:
 1283 0106 00BF     		.align	2
 1284              	.L67:
 1285 0108 00200240 		.word	1073881088
 1286 010c 23016745 		.word	1164378403
 1287 0110 AB89EFCD 		.word	-839939669
 1288 0114 00F8FF1F 		.word	536868864
 1289              		.cfi_endproc
 1290              	.LFE43:
 1292              		.section	.text.FLASH_ReadOutProtection,"ax",%progbits
 1293              		.align	1
 1294              		.global	FLASH_ReadOutProtection
 1295              		.syntax unified
 1296              		.thumb
 1297              		.thumb_func
 1299              	FLASH_ReadOutProtection:
 1300              	.LFB44:
1032:./.driver/STM32F10x_StdPeriph_Driver/src/stm32f10x_flash.c **** 
1033:./.driver/STM32F10x_StdPeriph_Driver/src/stm32f10x_flash.c **** /**
1034:./.driver/STM32F10x_StdPeriph_Driver/src/stm32f10x_flash.c ****   * @brief  Enables or disables the read out protection.
1035:./.driver/STM32F10x_StdPeriph_Driver/src/stm32f10x_flash.c ****   * @note   If the user has already programmed the other option bytes before calling 
1036:./.driver/STM32F10x_StdPeriph_Driver/src/stm32f10x_flash.c ****   *   this function, he must re-program them since this function erases all option bytes.
1037:./.driver/STM32F10x_StdPeriph_Driver/src/stm32f10x_flash.c ****   * @note   This function can be used for all STM32F10x devices.
1038:./.driver/STM32F10x_StdPeriph_Driver/src/stm32f10x_flash.c ****   * @param  Newstate: new state of the ReadOut Protection.
1039:./.driver/STM32F10x_StdPeriph_Driver/src/stm32f10x_flash.c ****   *   This parameter can be: ENABLE or DISABLE.
1040:./.driver/STM32F10x_StdPeriph_Driver/src/stm32f10x_flash.c ****   * @retval FLASH Status: The returned value can be: FLASH_ERROR_PG,
1041:./.driver/STM32F10x_StdPeriph_Driver/src/stm32f10x_flash.c ****   *         FLASH_ERROR_WRP, FLASH_COMPLETE or FLASH_TIMEOUT.
1042:./.driver/STM32F10x_StdPeriph_Driver/src/stm32f10x_flash.c ****   */
1043:./.driver/STM32F10x_StdPeriph_Driver/src/stm32f10x_flash.c **** FLASH_Status FLASH_ReadOutProtection(FunctionalState NewState)
1044:./.driver/STM32F10x_StdPeriph_Driver/src/stm32f10x_flash.c **** {
 1301              		.loc 1 1044 1
 1302              		.cfi_startproc
 1303              		@ args = 0, pretend = 0, frame = 16
 1304              		@ frame_needed = 1, uses_anonymous_args = 0
 1305 0000 80B5     		push	{r7, lr}
 1306              	.LCFI74:
 1307              		.cfi_def_cfa_offset 8
 1308              		.cfi_offset 7, -8
 1309              		.cfi_offset 14, -4
 1310 0002 84B0     		sub	sp, sp, #16
 1311              	.LCFI75:
 1312              		.cfi_def_cfa_offset 24
 1313 0004 00AF     		add	r7, sp, #0
 1314              	.LCFI76:
 1315              		.cfi_def_cfa_register 7
 1316 0006 0346     		mov	r3, r0
 1317 0008 FB71     		strb	r3, [r7, #7]
1045:./.driver/STM32F10x_StdPeriph_Driver/src/stm32f10x_flash.c ****   FLASH_Status status = FLASH_COMPLETE;
 1318              		.loc 1 1045 16
 1319 000a 0423     		movs	r3, #4
 1320 000c FB73     		strb	r3, [r7, #15]
1046:./.driver/STM32F10x_StdPeriph_Driver/src/stm32f10x_flash.c ****   /* Check the parameters */
1047:./.driver/STM32F10x_StdPeriph_Driver/src/stm32f10x_flash.c ****   assert_param(IS_FUNCTIONAL_STATE(NewState));
1048:./.driver/STM32F10x_StdPeriph_Driver/src/stm32f10x_flash.c ****   status = FLASH_WaitForLastOperation(EraseTimeout);
ARM GAS  C:\Users\SAMEER~1.ALM\AppData\Local\Temp\ccT7Y8qk.s 			page 42


 1321              		.loc 1 1048 12
 1322 000e 4FF43020 		mov	r0, #720896
 1323 0012 FFF7FEFF 		bl	FLASH_WaitForLastOperation
 1324 0016 0346     		mov	r3, r0
 1325 0018 FB73     		strb	r3, [r7, #15]
1049:./.driver/STM32F10x_StdPeriph_Driver/src/stm32f10x_flash.c ****   if(status == FLASH_COMPLETE)
 1326              		.loc 1 1049 5
 1327 001a FB7B     		ldrb	r3, [r7, #15]	@ zero_extendqisi2
 1328 001c 042B     		cmp	r3, #4
 1329 001e 4CD1     		bne	.L70
1050:./.driver/STM32F10x_StdPeriph_Driver/src/stm32f10x_flash.c ****   {
1051:./.driver/STM32F10x_StdPeriph_Driver/src/stm32f10x_flash.c ****     /* Authorizes the small information block programming */
1052:./.driver/STM32F10x_StdPeriph_Driver/src/stm32f10x_flash.c ****     FLASH->OPTKEYR = FLASH_KEY1;
 1330              		.loc 1 1052 10
 1331 0020 284B     		ldr	r3, .L75
 1332              		.loc 1 1052 20
 1333 0022 294A     		ldr	r2, .L75+4
 1334 0024 9A60     		str	r2, [r3, #8]
1053:./.driver/STM32F10x_StdPeriph_Driver/src/stm32f10x_flash.c ****     FLASH->OPTKEYR = FLASH_KEY2;
 1335              		.loc 1 1053 10
 1336 0026 274B     		ldr	r3, .L75
 1337              		.loc 1 1053 20
 1338 0028 284A     		ldr	r2, .L75+8
 1339 002a 9A60     		str	r2, [r3, #8]
1054:./.driver/STM32F10x_StdPeriph_Driver/src/stm32f10x_flash.c ****     FLASH->CR |= CR_OPTER_Set;
 1340              		.loc 1 1054 15
 1341 002c 254B     		ldr	r3, .L75
 1342 002e 1B69     		ldr	r3, [r3, #16]
 1343 0030 244A     		ldr	r2, .L75
 1344 0032 43F02003 		orr	r3, r3, #32
 1345 0036 1361     		str	r3, [r2, #16]
1055:./.driver/STM32F10x_StdPeriph_Driver/src/stm32f10x_flash.c ****     FLASH->CR |= CR_STRT_Set;
 1346              		.loc 1 1055 15
 1347 0038 224B     		ldr	r3, .L75
 1348 003a 1B69     		ldr	r3, [r3, #16]
 1349 003c 214A     		ldr	r2, .L75
 1350 003e 43F04003 		orr	r3, r3, #64
 1351 0042 1361     		str	r3, [r2, #16]
1056:./.driver/STM32F10x_StdPeriph_Driver/src/stm32f10x_flash.c ****     /* Wait for last operation to be completed */
1057:./.driver/STM32F10x_StdPeriph_Driver/src/stm32f10x_flash.c ****     status = FLASH_WaitForLastOperation(EraseTimeout);
 1352              		.loc 1 1057 14
 1353 0044 4FF43020 		mov	r0, #720896
 1354 0048 FFF7FEFF 		bl	FLASH_WaitForLastOperation
 1355 004c 0346     		mov	r3, r0
 1356 004e FB73     		strb	r3, [r7, #15]
1058:./.driver/STM32F10x_StdPeriph_Driver/src/stm32f10x_flash.c ****     if(status == FLASH_COMPLETE)
 1357              		.loc 1 1058 7
 1358 0050 FB7B     		ldrb	r3, [r7, #15]	@ zero_extendqisi2
 1359 0052 042B     		cmp	r3, #4
 1360 0054 27D1     		bne	.L71
1059:./.driver/STM32F10x_StdPeriph_Driver/src/stm32f10x_flash.c ****     {
1060:./.driver/STM32F10x_StdPeriph_Driver/src/stm32f10x_flash.c ****       /* if the erase operation is completed, disable the OPTER Bit */
1061:./.driver/STM32F10x_StdPeriph_Driver/src/stm32f10x_flash.c ****       FLASH->CR &= CR_OPTER_Reset;
 1361              		.loc 1 1061 17
 1362 0056 1B4B     		ldr	r3, .L75
 1363 0058 1A69     		ldr	r2, [r3, #16]
 1364 005a 1A49     		ldr	r1, .L75
ARM GAS  C:\Users\SAMEER~1.ALM\AppData\Local\Temp\ccT7Y8qk.s 			page 43


 1365 005c 41F6DF73 		movw	r3, #8159
 1366 0060 1340     		ands	r3, r3, r2
 1367 0062 0B61     		str	r3, [r1, #16]
1062:./.driver/STM32F10x_StdPeriph_Driver/src/stm32f10x_flash.c ****       /* Enable the Option Bytes Programming operation */
1063:./.driver/STM32F10x_StdPeriph_Driver/src/stm32f10x_flash.c ****       FLASH->CR |= CR_OPTPG_Set; 
 1368              		.loc 1 1063 17
 1369 0064 174B     		ldr	r3, .L75
 1370 0066 1B69     		ldr	r3, [r3, #16]
 1371 0068 164A     		ldr	r2, .L75
 1372 006a 43F01003 		orr	r3, r3, #16
 1373 006e 1361     		str	r3, [r2, #16]
1064:./.driver/STM32F10x_StdPeriph_Driver/src/stm32f10x_flash.c ****       if(NewState != DISABLE)
 1374              		.loc 1 1064 9
 1375 0070 FB79     		ldrb	r3, [r7, #7]	@ zero_extendqisi2
 1376 0072 002B     		cmp	r3, #0
 1377 0074 03D0     		beq	.L72
1065:./.driver/STM32F10x_StdPeriph_Driver/src/stm32f10x_flash.c ****       {
1066:./.driver/STM32F10x_StdPeriph_Driver/src/stm32f10x_flash.c ****         OB->RDP = 0x00;
 1378              		.loc 1 1066 11
 1379 0076 164B     		ldr	r3, .L75+12
 1380              		.loc 1 1066 17
 1381 0078 0022     		movs	r2, #0
 1382 007a 1A80     		strh	r2, [r3]	@ movhi
 1383 007c 02E0     		b	.L73
 1384              	.L72:
1067:./.driver/STM32F10x_StdPeriph_Driver/src/stm32f10x_flash.c ****       }
1068:./.driver/STM32F10x_StdPeriph_Driver/src/stm32f10x_flash.c ****       else
1069:./.driver/STM32F10x_StdPeriph_Driver/src/stm32f10x_flash.c ****       {
1070:./.driver/STM32F10x_StdPeriph_Driver/src/stm32f10x_flash.c ****         OB->RDP = RDP_Key;  
 1385              		.loc 1 1070 11
 1386 007e 144B     		ldr	r3, .L75+12
 1387              		.loc 1 1070 17
 1388 0080 A522     		movs	r2, #165
 1389 0082 1A80     		strh	r2, [r3]	@ movhi
 1390              	.L73:
1071:./.driver/STM32F10x_StdPeriph_Driver/src/stm32f10x_flash.c ****       }
1072:./.driver/STM32F10x_StdPeriph_Driver/src/stm32f10x_flash.c ****       /* Wait for last operation to be completed */
1073:./.driver/STM32F10x_StdPeriph_Driver/src/stm32f10x_flash.c ****       status = FLASH_WaitForLastOperation(EraseTimeout); 
 1391              		.loc 1 1073 16
 1392 0084 4FF43020 		mov	r0, #720896
 1393 0088 FFF7FEFF 		bl	FLASH_WaitForLastOperation
 1394 008c 0346     		mov	r3, r0
 1395 008e FB73     		strb	r3, [r7, #15]
1074:./.driver/STM32F10x_StdPeriph_Driver/src/stm32f10x_flash.c ****     
1075:./.driver/STM32F10x_StdPeriph_Driver/src/stm32f10x_flash.c ****       if(status != FLASH_TIMEOUT)
 1396              		.loc 1 1075 9
 1397 0090 FB7B     		ldrb	r3, [r7, #15]	@ zero_extendqisi2
 1398 0092 052B     		cmp	r3, #5
 1399 0094 11D0     		beq	.L70
1076:./.driver/STM32F10x_StdPeriph_Driver/src/stm32f10x_flash.c ****       {
1077:./.driver/STM32F10x_StdPeriph_Driver/src/stm32f10x_flash.c ****         /* if the program operation is completed, disable the OPTPG Bit */
1078:./.driver/STM32F10x_StdPeriph_Driver/src/stm32f10x_flash.c ****         FLASH->CR &= CR_OPTPG_Reset;
 1400              		.loc 1 1078 19
 1401 0096 0B4B     		ldr	r3, .L75
 1402 0098 1A69     		ldr	r2, [r3, #16]
 1403 009a 0A49     		ldr	r1, .L75
 1404 009c 41F6EF73 		movw	r3, #8175
ARM GAS  C:\Users\SAMEER~1.ALM\AppData\Local\Temp\ccT7Y8qk.s 			page 44


 1405 00a0 1340     		ands	r3, r3, r2
 1406 00a2 0B61     		str	r3, [r1, #16]
 1407 00a4 09E0     		b	.L70
 1408              	.L71:
1079:./.driver/STM32F10x_StdPeriph_Driver/src/stm32f10x_flash.c ****       }
1080:./.driver/STM32F10x_StdPeriph_Driver/src/stm32f10x_flash.c ****     }
1081:./.driver/STM32F10x_StdPeriph_Driver/src/stm32f10x_flash.c ****     else 
1082:./.driver/STM32F10x_StdPeriph_Driver/src/stm32f10x_flash.c ****     {
1083:./.driver/STM32F10x_StdPeriph_Driver/src/stm32f10x_flash.c ****       if(status != FLASH_TIMEOUT)
 1409              		.loc 1 1083 9
 1410 00a6 FB7B     		ldrb	r3, [r7, #15]	@ zero_extendqisi2
 1411 00a8 052B     		cmp	r3, #5
 1412 00aa 06D0     		beq	.L70
1084:./.driver/STM32F10x_StdPeriph_Driver/src/stm32f10x_flash.c ****       {
1085:./.driver/STM32F10x_StdPeriph_Driver/src/stm32f10x_flash.c ****         /* Disable the OPTER Bit */
1086:./.driver/STM32F10x_StdPeriph_Driver/src/stm32f10x_flash.c ****         FLASH->CR &= CR_OPTER_Reset;
 1413              		.loc 1 1086 19
 1414 00ac 054B     		ldr	r3, .L75
 1415 00ae 1A69     		ldr	r2, [r3, #16]
 1416 00b0 0449     		ldr	r1, .L75
 1417 00b2 41F6DF73 		movw	r3, #8159
 1418 00b6 1340     		ands	r3, r3, r2
 1419 00b8 0B61     		str	r3, [r1, #16]
 1420              	.L70:
1087:./.driver/STM32F10x_StdPeriph_Driver/src/stm32f10x_flash.c ****       }
1088:./.driver/STM32F10x_StdPeriph_Driver/src/stm32f10x_flash.c ****     }
1089:./.driver/STM32F10x_StdPeriph_Driver/src/stm32f10x_flash.c ****   }
1090:./.driver/STM32F10x_StdPeriph_Driver/src/stm32f10x_flash.c ****   /* Return the protection operation Status */
1091:./.driver/STM32F10x_StdPeriph_Driver/src/stm32f10x_flash.c ****   return status;       
 1421              		.loc 1 1091 10
 1422 00ba FB7B     		ldrb	r3, [r7, #15]	@ zero_extendqisi2
1092:./.driver/STM32F10x_StdPeriph_Driver/src/stm32f10x_flash.c **** }
 1423              		.loc 1 1092 1
 1424 00bc 1846     		mov	r0, r3
 1425 00be 1037     		adds	r7, r7, #16
 1426              	.LCFI77:
 1427              		.cfi_def_cfa_offset 8
 1428 00c0 BD46     		mov	sp, r7
 1429              	.LCFI78:
 1430              		.cfi_def_cfa_register 13
 1431              		@ sp needed
 1432 00c2 80BD     		pop	{r7, pc}
 1433              	.L76:
 1434              		.align	2
 1435              	.L75:
 1436 00c4 00200240 		.word	1073881088
 1437 00c8 23016745 		.word	1164378403
 1438 00cc AB89EFCD 		.word	-839939669
 1439 00d0 00F8FF1F 		.word	536868864
 1440              		.cfi_endproc
 1441              	.LFE44:
 1443              		.section	.text.FLASH_UserOptionByteConfig,"ax",%progbits
 1444              		.align	1
 1445              		.global	FLASH_UserOptionByteConfig
 1446              		.syntax unified
 1447              		.thumb
 1448              		.thumb_func
ARM GAS  C:\Users\SAMEER~1.ALM\AppData\Local\Temp\ccT7Y8qk.s 			page 45


 1450              	FLASH_UserOptionByteConfig:
 1451              	.LFB45:
1093:./.driver/STM32F10x_StdPeriph_Driver/src/stm32f10x_flash.c **** 
1094:./.driver/STM32F10x_StdPeriph_Driver/src/stm32f10x_flash.c **** /**
1095:./.driver/STM32F10x_StdPeriph_Driver/src/stm32f10x_flash.c ****   * @brief  Programs the FLASH User Option Byte: IWDG_SW / RST_STOP / RST_STDBY.
1096:./.driver/STM32F10x_StdPeriph_Driver/src/stm32f10x_flash.c ****   * @note   This function can be used for all STM32F10x devices.
1097:./.driver/STM32F10x_StdPeriph_Driver/src/stm32f10x_flash.c ****   * @param  OB_IWDG: Selects the IWDG mode
1098:./.driver/STM32F10x_StdPeriph_Driver/src/stm32f10x_flash.c ****   *   This parameter can be one of the following values:
1099:./.driver/STM32F10x_StdPeriph_Driver/src/stm32f10x_flash.c ****   *     @arg OB_IWDG_SW: Software IWDG selected
1100:./.driver/STM32F10x_StdPeriph_Driver/src/stm32f10x_flash.c ****   *     @arg OB_IWDG_HW: Hardware IWDG selected
1101:./.driver/STM32F10x_StdPeriph_Driver/src/stm32f10x_flash.c ****   * @param  OB_STOP: Reset event when entering STOP mode.
1102:./.driver/STM32F10x_StdPeriph_Driver/src/stm32f10x_flash.c ****   *   This parameter can be one of the following values:
1103:./.driver/STM32F10x_StdPeriph_Driver/src/stm32f10x_flash.c ****   *     @arg OB_STOP_NoRST: No reset generated when entering in STOP
1104:./.driver/STM32F10x_StdPeriph_Driver/src/stm32f10x_flash.c ****   *     @arg OB_STOP_RST: Reset generated when entering in STOP
1105:./.driver/STM32F10x_StdPeriph_Driver/src/stm32f10x_flash.c ****   * @param  OB_STDBY: Reset event when entering Standby mode.
1106:./.driver/STM32F10x_StdPeriph_Driver/src/stm32f10x_flash.c ****   *   This parameter can be one of the following values:
1107:./.driver/STM32F10x_StdPeriph_Driver/src/stm32f10x_flash.c ****   *     @arg OB_STDBY_NoRST: No reset generated when entering in STANDBY
1108:./.driver/STM32F10x_StdPeriph_Driver/src/stm32f10x_flash.c ****   *     @arg OB_STDBY_RST: Reset generated when entering in STANDBY
1109:./.driver/STM32F10x_StdPeriph_Driver/src/stm32f10x_flash.c ****   * @retval FLASH Status: The returned value can be: FLASH_ERROR_PG, 
1110:./.driver/STM32F10x_StdPeriph_Driver/src/stm32f10x_flash.c ****   *         FLASH_ERROR_WRP, FLASH_COMPLETE or FLASH_TIMEOUT.
1111:./.driver/STM32F10x_StdPeriph_Driver/src/stm32f10x_flash.c ****   */
1112:./.driver/STM32F10x_StdPeriph_Driver/src/stm32f10x_flash.c **** FLASH_Status FLASH_UserOptionByteConfig(uint16_t OB_IWDG, uint16_t OB_STOP, uint16_t OB_STDBY)
1113:./.driver/STM32F10x_StdPeriph_Driver/src/stm32f10x_flash.c **** {
 1452              		.loc 1 1113 1
 1453              		.cfi_startproc
 1454              		@ args = 0, pretend = 0, frame = 16
 1455              		@ frame_needed = 1, uses_anonymous_args = 0
 1456 0000 80B5     		push	{r7, lr}
 1457              	.LCFI79:
 1458              		.cfi_def_cfa_offset 8
 1459              		.cfi_offset 7, -8
 1460              		.cfi_offset 14, -4
 1461 0002 84B0     		sub	sp, sp, #16
 1462              	.LCFI80:
 1463              		.cfi_def_cfa_offset 24
 1464 0004 00AF     		add	r7, sp, #0
 1465              	.LCFI81:
 1466              		.cfi_def_cfa_register 7
 1467 0006 0346     		mov	r3, r0
 1468 0008 FB80     		strh	r3, [r7, #6]	@ movhi
 1469 000a 0B46     		mov	r3, r1	@ movhi
 1470 000c BB80     		strh	r3, [r7, #4]	@ movhi
 1471 000e 1346     		mov	r3, r2	@ movhi
 1472 0010 7B80     		strh	r3, [r7, #2]	@ movhi
1114:./.driver/STM32F10x_StdPeriph_Driver/src/stm32f10x_flash.c ****   FLASH_Status status = FLASH_COMPLETE; 
 1473              		.loc 1 1114 16
 1474 0012 0423     		movs	r3, #4
 1475 0014 FB73     		strb	r3, [r7, #15]
1115:./.driver/STM32F10x_StdPeriph_Driver/src/stm32f10x_flash.c **** 
1116:./.driver/STM32F10x_StdPeriph_Driver/src/stm32f10x_flash.c ****   /* Check the parameters */
1117:./.driver/STM32F10x_StdPeriph_Driver/src/stm32f10x_flash.c ****   assert_param(IS_OB_IWDG_SOURCE(OB_IWDG));
1118:./.driver/STM32F10x_StdPeriph_Driver/src/stm32f10x_flash.c ****   assert_param(IS_OB_STOP_SOURCE(OB_STOP));
1119:./.driver/STM32F10x_StdPeriph_Driver/src/stm32f10x_flash.c ****   assert_param(IS_OB_STDBY_SOURCE(OB_STDBY));
1120:./.driver/STM32F10x_StdPeriph_Driver/src/stm32f10x_flash.c **** 
1121:./.driver/STM32F10x_StdPeriph_Driver/src/stm32f10x_flash.c ****   /* Authorize the small information block programming */
1122:./.driver/STM32F10x_StdPeriph_Driver/src/stm32f10x_flash.c ****   FLASH->OPTKEYR = FLASH_KEY1;
 1476              		.loc 1 1122 8
ARM GAS  C:\Users\SAMEER~1.ALM\AppData\Local\Temp\ccT7Y8qk.s 			page 46


 1477 0016 1B4B     		ldr	r3, .L80
 1478              		.loc 1 1122 18
 1479 0018 1B4A     		ldr	r2, .L80+4
 1480 001a 9A60     		str	r2, [r3, #8]
1123:./.driver/STM32F10x_StdPeriph_Driver/src/stm32f10x_flash.c ****   FLASH->OPTKEYR = FLASH_KEY2;
 1481              		.loc 1 1123 8
 1482 001c 194B     		ldr	r3, .L80
 1483              		.loc 1 1123 18
 1484 001e 1B4A     		ldr	r2, .L80+8
 1485 0020 9A60     		str	r2, [r3, #8]
1124:./.driver/STM32F10x_StdPeriph_Driver/src/stm32f10x_flash.c ****   
1125:./.driver/STM32F10x_StdPeriph_Driver/src/stm32f10x_flash.c ****   /* Wait for last operation to be completed */
1126:./.driver/STM32F10x_StdPeriph_Driver/src/stm32f10x_flash.c ****   status = FLASH_WaitForLastOperation(ProgramTimeout);
 1486              		.loc 1 1126 12
 1487 0022 4FF40050 		mov	r0, #8192
 1488 0026 FFF7FEFF 		bl	FLASH_WaitForLastOperation
 1489 002a 0346     		mov	r3, r0
 1490 002c FB73     		strb	r3, [r7, #15]
1127:./.driver/STM32F10x_StdPeriph_Driver/src/stm32f10x_flash.c ****   
1128:./.driver/STM32F10x_StdPeriph_Driver/src/stm32f10x_flash.c ****   if(status == FLASH_COMPLETE)
 1491              		.loc 1 1128 5
 1492 002e FB7B     		ldrb	r3, [r7, #15]	@ zero_extendqisi2
 1493 0030 042B     		cmp	r3, #4
 1494 0032 21D1     		bne	.L78
1129:./.driver/STM32F10x_StdPeriph_Driver/src/stm32f10x_flash.c ****   {  
1130:./.driver/STM32F10x_StdPeriph_Driver/src/stm32f10x_flash.c ****     /* Enable the Option Bytes Programming operation */
1131:./.driver/STM32F10x_StdPeriph_Driver/src/stm32f10x_flash.c ****     FLASH->CR |= CR_OPTPG_Set; 
 1495              		.loc 1 1131 15
 1496 0034 134B     		ldr	r3, .L80
 1497 0036 1B69     		ldr	r3, [r3, #16]
 1498 0038 124A     		ldr	r2, .L80
 1499 003a 43F01003 		orr	r3, r3, #16
 1500 003e 1361     		str	r3, [r2, #16]
1132:./.driver/STM32F10x_StdPeriph_Driver/src/stm32f10x_flash.c ****            
1133:./.driver/STM32F10x_StdPeriph_Driver/src/stm32f10x_flash.c ****     OB->USER = OB_IWDG | (uint16_t)(OB_STOP | (uint16_t)(OB_STDBY | ((uint16_t)0xF8))); 
 1501              		.loc 1 1133 14
 1502 0040 7A88     		ldrh	r2, [r7, #2]	@ movhi
 1503 0042 BB88     		ldrh	r3, [r7, #4]	@ movhi
 1504 0044 1343     		orrs	r3, r3, r2
 1505 0046 9AB2     		uxth	r2, r3
 1506 0048 FB88     		ldrh	r3, [r7, #6]	@ movhi
 1507 004a 1343     		orrs	r3, r3, r2
 1508 004c 9BB2     		uxth	r3, r3
 1509              		.loc 1 1133 7
 1510 004e 104A     		ldr	r2, .L80+12
 1511              		.loc 1 1133 14
 1512 0050 43F0F803 		orr	r3, r3, #248
 1513 0054 9BB2     		uxth	r3, r3
 1514 0056 5380     		strh	r3, [r2, #2]	@ movhi
1134:./.driver/STM32F10x_StdPeriph_Driver/src/stm32f10x_flash.c ****   
1135:./.driver/STM32F10x_StdPeriph_Driver/src/stm32f10x_flash.c ****     /* Wait for last operation to be completed */
1136:./.driver/STM32F10x_StdPeriph_Driver/src/stm32f10x_flash.c ****     status = FLASH_WaitForLastOperation(ProgramTimeout);
 1515              		.loc 1 1136 14
 1516 0058 4FF40050 		mov	r0, #8192
 1517 005c FFF7FEFF 		bl	FLASH_WaitForLastOperation
 1518 0060 0346     		mov	r3, r0
 1519 0062 FB73     		strb	r3, [r7, #15]
ARM GAS  C:\Users\SAMEER~1.ALM\AppData\Local\Temp\ccT7Y8qk.s 			page 47


1137:./.driver/STM32F10x_StdPeriph_Driver/src/stm32f10x_flash.c ****     if(status != FLASH_TIMEOUT)
 1520              		.loc 1 1137 7
 1521 0064 FB7B     		ldrb	r3, [r7, #15]	@ zero_extendqisi2
 1522 0066 052B     		cmp	r3, #5
 1523 0068 06D0     		beq	.L78
1138:./.driver/STM32F10x_StdPeriph_Driver/src/stm32f10x_flash.c ****     {
1139:./.driver/STM32F10x_StdPeriph_Driver/src/stm32f10x_flash.c ****       /* if the program operation is completed, disable the OPTPG Bit */
1140:./.driver/STM32F10x_StdPeriph_Driver/src/stm32f10x_flash.c ****       FLASH->CR &= CR_OPTPG_Reset;
 1524              		.loc 1 1140 17
 1525 006a 064B     		ldr	r3, .L80
 1526 006c 1A69     		ldr	r2, [r3, #16]
 1527 006e 0549     		ldr	r1, .L80
 1528 0070 41F6EF73 		movw	r3, #8175
 1529 0074 1340     		ands	r3, r3, r2
 1530 0076 0B61     		str	r3, [r1, #16]
 1531              	.L78:
1141:./.driver/STM32F10x_StdPeriph_Driver/src/stm32f10x_flash.c ****     }
1142:./.driver/STM32F10x_StdPeriph_Driver/src/stm32f10x_flash.c ****   }    
1143:./.driver/STM32F10x_StdPeriph_Driver/src/stm32f10x_flash.c ****   /* Return the Option Byte program Status */
1144:./.driver/STM32F10x_StdPeriph_Driver/src/stm32f10x_flash.c ****   return status;
 1532              		.loc 1 1144 10
 1533 0078 FB7B     		ldrb	r3, [r7, #15]	@ zero_extendqisi2
1145:./.driver/STM32F10x_StdPeriph_Driver/src/stm32f10x_flash.c **** }
 1534              		.loc 1 1145 1
 1535 007a 1846     		mov	r0, r3
 1536 007c 1037     		adds	r7, r7, #16
 1537              	.LCFI82:
 1538              		.cfi_def_cfa_offset 8
 1539 007e BD46     		mov	sp, r7
 1540              	.LCFI83:
 1541              		.cfi_def_cfa_register 13
 1542              		@ sp needed
 1543 0080 80BD     		pop	{r7, pc}
 1544              	.L81:
 1545 0082 00BF     		.align	2
 1546              	.L80:
 1547 0084 00200240 		.word	1073881088
 1548 0088 23016745 		.word	1164378403
 1549 008c AB89EFCD 		.word	-839939669
 1550 0090 00F8FF1F 		.word	536868864
 1551              		.cfi_endproc
 1552              	.LFE45:
 1554              		.section	.text.FLASH_GetUserOptionByte,"ax",%progbits
 1555              		.align	1
 1556              		.global	FLASH_GetUserOptionByte
 1557              		.syntax unified
 1558              		.thumb
 1559              		.thumb_func
 1561              	FLASH_GetUserOptionByte:
 1562              	.LFB46:
1146:./.driver/STM32F10x_StdPeriph_Driver/src/stm32f10x_flash.c **** 
1147:./.driver/STM32F10x_StdPeriph_Driver/src/stm32f10x_flash.c **** #ifdef STM32F10X_XL
1148:./.driver/STM32F10x_StdPeriph_Driver/src/stm32f10x_flash.c **** /**
1149:./.driver/STM32F10x_StdPeriph_Driver/src/stm32f10x_flash.c ****   * @brief  Configures to boot from Bank1 or Bank2.  
1150:./.driver/STM32F10x_StdPeriph_Driver/src/stm32f10x_flash.c ****   * @note   This function can be used only for STM32F10x_XL density devices.
1151:./.driver/STM32F10x_StdPeriph_Driver/src/stm32f10x_flash.c ****   * @param  FLASH_BOOT: select the FLASH Bank to boot from.
1152:./.driver/STM32F10x_StdPeriph_Driver/src/stm32f10x_flash.c ****   *   This parameter can be one of the following values:
ARM GAS  C:\Users\SAMEER~1.ALM\AppData\Local\Temp\ccT7Y8qk.s 			page 48


1153:./.driver/STM32F10x_StdPeriph_Driver/src/stm32f10x_flash.c ****   *     @arg FLASH_BOOT_Bank1: At startup, if boot pins are set in boot from user Flash
1154:./.driver/STM32F10x_StdPeriph_Driver/src/stm32f10x_flash.c ****   *        position and this parameter is selected the device will boot from Bank1(Default).
1155:./.driver/STM32F10x_StdPeriph_Driver/src/stm32f10x_flash.c ****   *     @arg FLASH_BOOT_Bank2: At startup, if boot pins are set in boot from user Flash
1156:./.driver/STM32F10x_StdPeriph_Driver/src/stm32f10x_flash.c ****   *        position and this parameter is selected the device will boot from Bank2 or Bank1,
1157:./.driver/STM32F10x_StdPeriph_Driver/src/stm32f10x_flash.c ****   *        depending on the activation of the bank. The active banks are checked in
1158:./.driver/STM32F10x_StdPeriph_Driver/src/stm32f10x_flash.c ****   *        the following order: Bank2, followed by Bank1.
1159:./.driver/STM32F10x_StdPeriph_Driver/src/stm32f10x_flash.c ****   *        The active bank is recognized by the value programmed at the base address
1160:./.driver/STM32F10x_StdPeriph_Driver/src/stm32f10x_flash.c ****   *        of the respective bank (corresponding to the initial stack pointer value
1161:./.driver/STM32F10x_StdPeriph_Driver/src/stm32f10x_flash.c ****   *        in the interrupt vector table).
1162:./.driver/STM32F10x_StdPeriph_Driver/src/stm32f10x_flash.c ****   *        For more information, please refer to AN2606 from www.st.com.    
1163:./.driver/STM32F10x_StdPeriph_Driver/src/stm32f10x_flash.c ****   * @retval FLASH Status: The returned value can be: FLASH_ERROR_PG, 
1164:./.driver/STM32F10x_StdPeriph_Driver/src/stm32f10x_flash.c ****   *         FLASH_ERROR_WRP, FLASH_COMPLETE or FLASH_TIMEOUT.
1165:./.driver/STM32F10x_StdPeriph_Driver/src/stm32f10x_flash.c ****   */
1166:./.driver/STM32F10x_StdPeriph_Driver/src/stm32f10x_flash.c **** FLASH_Status FLASH_BootConfig(uint16_t FLASH_BOOT)
1167:./.driver/STM32F10x_StdPeriph_Driver/src/stm32f10x_flash.c **** { 
1168:./.driver/STM32F10x_StdPeriph_Driver/src/stm32f10x_flash.c ****   FLASH_Status status = FLASH_COMPLETE; 
1169:./.driver/STM32F10x_StdPeriph_Driver/src/stm32f10x_flash.c ****   assert_param(IS_FLASH_BOOT(FLASH_BOOT));
1170:./.driver/STM32F10x_StdPeriph_Driver/src/stm32f10x_flash.c ****   /* Authorize the small information block programming */
1171:./.driver/STM32F10x_StdPeriph_Driver/src/stm32f10x_flash.c ****   FLASH->OPTKEYR = FLASH_KEY1;
1172:./.driver/STM32F10x_StdPeriph_Driver/src/stm32f10x_flash.c ****   FLASH->OPTKEYR = FLASH_KEY2;
1173:./.driver/STM32F10x_StdPeriph_Driver/src/stm32f10x_flash.c ****   
1174:./.driver/STM32F10x_StdPeriph_Driver/src/stm32f10x_flash.c ****   /* Wait for last operation to be completed */
1175:./.driver/STM32F10x_StdPeriph_Driver/src/stm32f10x_flash.c ****   status = FLASH_WaitForLastOperation(ProgramTimeout);
1176:./.driver/STM32F10x_StdPeriph_Driver/src/stm32f10x_flash.c ****   
1177:./.driver/STM32F10x_StdPeriph_Driver/src/stm32f10x_flash.c ****   if(status == FLASH_COMPLETE)
1178:./.driver/STM32F10x_StdPeriph_Driver/src/stm32f10x_flash.c ****   {  
1179:./.driver/STM32F10x_StdPeriph_Driver/src/stm32f10x_flash.c ****     /* Enable the Option Bytes Programming operation */
1180:./.driver/STM32F10x_StdPeriph_Driver/src/stm32f10x_flash.c ****     FLASH->CR |= CR_OPTPG_Set; 
1181:./.driver/STM32F10x_StdPeriph_Driver/src/stm32f10x_flash.c **** 
1182:./.driver/STM32F10x_StdPeriph_Driver/src/stm32f10x_flash.c ****     if(FLASH_BOOT == FLASH_BOOT_Bank1)
1183:./.driver/STM32F10x_StdPeriph_Driver/src/stm32f10x_flash.c ****     {
1184:./.driver/STM32F10x_StdPeriph_Driver/src/stm32f10x_flash.c ****       OB->USER |= OB_USER_BFB2;
1185:./.driver/STM32F10x_StdPeriph_Driver/src/stm32f10x_flash.c ****     }
1186:./.driver/STM32F10x_StdPeriph_Driver/src/stm32f10x_flash.c ****     else
1187:./.driver/STM32F10x_StdPeriph_Driver/src/stm32f10x_flash.c ****     {
1188:./.driver/STM32F10x_StdPeriph_Driver/src/stm32f10x_flash.c ****       OB->USER &= (uint16_t)(~(uint16_t)(OB_USER_BFB2));
1189:./.driver/STM32F10x_StdPeriph_Driver/src/stm32f10x_flash.c ****     }
1190:./.driver/STM32F10x_StdPeriph_Driver/src/stm32f10x_flash.c ****     /* Wait for last operation to be completed */
1191:./.driver/STM32F10x_StdPeriph_Driver/src/stm32f10x_flash.c ****     status = FLASH_WaitForLastOperation(ProgramTimeout);
1192:./.driver/STM32F10x_StdPeriph_Driver/src/stm32f10x_flash.c ****     if(status != FLASH_TIMEOUT)
1193:./.driver/STM32F10x_StdPeriph_Driver/src/stm32f10x_flash.c ****     {
1194:./.driver/STM32F10x_StdPeriph_Driver/src/stm32f10x_flash.c ****       /* if the program operation is completed, disable the OPTPG Bit */
1195:./.driver/STM32F10x_StdPeriph_Driver/src/stm32f10x_flash.c ****       FLASH->CR &= CR_OPTPG_Reset;
1196:./.driver/STM32F10x_StdPeriph_Driver/src/stm32f10x_flash.c ****     }
1197:./.driver/STM32F10x_StdPeriph_Driver/src/stm32f10x_flash.c ****   }    
1198:./.driver/STM32F10x_StdPeriph_Driver/src/stm32f10x_flash.c ****   /* Return the Option Byte program Status */
1199:./.driver/STM32F10x_StdPeriph_Driver/src/stm32f10x_flash.c ****   return status;
1200:./.driver/STM32F10x_StdPeriph_Driver/src/stm32f10x_flash.c **** }
1201:./.driver/STM32F10x_StdPeriph_Driver/src/stm32f10x_flash.c **** #endif /* STM32F10X_XL */
1202:./.driver/STM32F10x_StdPeriph_Driver/src/stm32f10x_flash.c **** 
1203:./.driver/STM32F10x_StdPeriph_Driver/src/stm32f10x_flash.c **** /**
1204:./.driver/STM32F10x_StdPeriph_Driver/src/stm32f10x_flash.c ****   * @brief  Returns the FLASH User Option Bytes values.
1205:./.driver/STM32F10x_StdPeriph_Driver/src/stm32f10x_flash.c ****   * @note   This function can be used for all STM32F10x devices.
1206:./.driver/STM32F10x_StdPeriph_Driver/src/stm32f10x_flash.c ****   * @param  None
1207:./.driver/STM32F10x_StdPeriph_Driver/src/stm32f10x_flash.c ****   * @retval The FLASH User Option Bytes values:IWDG_SW(Bit0), RST_STOP(Bit1)
1208:./.driver/STM32F10x_StdPeriph_Driver/src/stm32f10x_flash.c ****   *         and RST_STDBY(Bit2).
1209:./.driver/STM32F10x_StdPeriph_Driver/src/stm32f10x_flash.c ****   */
ARM GAS  C:\Users\SAMEER~1.ALM\AppData\Local\Temp\ccT7Y8qk.s 			page 49


1210:./.driver/STM32F10x_StdPeriph_Driver/src/stm32f10x_flash.c **** uint32_t FLASH_GetUserOptionByte(void)
1211:./.driver/STM32F10x_StdPeriph_Driver/src/stm32f10x_flash.c **** {
 1563              		.loc 1 1211 1
 1564              		.cfi_startproc
 1565              		@ args = 0, pretend = 0, frame = 0
 1566              		@ frame_needed = 1, uses_anonymous_args = 0
 1567              		@ link register save eliminated.
 1568 0000 80B4     		push	{r7}
 1569              	.LCFI84:
 1570              		.cfi_def_cfa_offset 4
 1571              		.cfi_offset 7, -4
 1572 0002 00AF     		add	r7, sp, #0
 1573              	.LCFI85:
 1574              		.cfi_def_cfa_register 7
1212:./.driver/STM32F10x_StdPeriph_Driver/src/stm32f10x_flash.c ****   /* Return the User Option Byte */
1213:./.driver/STM32F10x_StdPeriph_Driver/src/stm32f10x_flash.c ****   return (uint32_t)(FLASH->OBR >> 2);
 1575              		.loc 1 1213 26
 1576 0004 034B     		ldr	r3, .L84
 1577 0006 DB69     		ldr	r3, [r3, #28]
 1578              		.loc 1 1213 10
 1579 0008 9B08     		lsrs	r3, r3, #2
1214:./.driver/STM32F10x_StdPeriph_Driver/src/stm32f10x_flash.c **** }
 1580              		.loc 1 1214 1
 1581 000a 1846     		mov	r0, r3
 1582 000c BD46     		mov	sp, r7
 1583              	.LCFI86:
 1584              		.cfi_def_cfa_register 13
 1585              		@ sp needed
 1586 000e 80BC     		pop	{r7}
 1587              	.LCFI87:
 1588              		.cfi_restore 7
 1589              		.cfi_def_cfa_offset 0
 1590 0010 7047     		bx	lr
 1591              	.L85:
 1592 0012 00BF     		.align	2
 1593              	.L84:
 1594 0014 00200240 		.word	1073881088
 1595              		.cfi_endproc
 1596              	.LFE46:
 1598              		.section	.text.FLASH_GetWriteProtectionOptionByte,"ax",%progbits
 1599              		.align	1
 1600              		.global	FLASH_GetWriteProtectionOptionByte
 1601              		.syntax unified
 1602              		.thumb
 1603              		.thumb_func
 1605              	FLASH_GetWriteProtectionOptionByte:
 1606              	.LFB47:
1215:./.driver/STM32F10x_StdPeriph_Driver/src/stm32f10x_flash.c **** 
1216:./.driver/STM32F10x_StdPeriph_Driver/src/stm32f10x_flash.c **** /**
1217:./.driver/STM32F10x_StdPeriph_Driver/src/stm32f10x_flash.c ****   * @brief  Returns the FLASH Write Protection Option Bytes Register value.
1218:./.driver/STM32F10x_StdPeriph_Driver/src/stm32f10x_flash.c ****   * @note   This function can be used for all STM32F10x devices.
1219:./.driver/STM32F10x_StdPeriph_Driver/src/stm32f10x_flash.c ****   * @param  None
1220:./.driver/STM32F10x_StdPeriph_Driver/src/stm32f10x_flash.c ****   * @retval The FLASH Write Protection  Option Bytes Register value
1221:./.driver/STM32F10x_StdPeriph_Driver/src/stm32f10x_flash.c ****   */
1222:./.driver/STM32F10x_StdPeriph_Driver/src/stm32f10x_flash.c **** uint32_t FLASH_GetWriteProtectionOptionByte(void)
1223:./.driver/STM32F10x_StdPeriph_Driver/src/stm32f10x_flash.c **** {
 1607              		.loc 1 1223 1
ARM GAS  C:\Users\SAMEER~1.ALM\AppData\Local\Temp\ccT7Y8qk.s 			page 50


 1608              		.cfi_startproc
 1609              		@ args = 0, pretend = 0, frame = 0
 1610              		@ frame_needed = 1, uses_anonymous_args = 0
 1611              		@ link register save eliminated.
 1612 0000 80B4     		push	{r7}
 1613              	.LCFI88:
 1614              		.cfi_def_cfa_offset 4
 1615              		.cfi_offset 7, -4
 1616 0002 00AF     		add	r7, sp, #0
 1617              	.LCFI89:
 1618              		.cfi_def_cfa_register 7
1224:./.driver/STM32F10x_StdPeriph_Driver/src/stm32f10x_flash.c ****   /* Return the Flash write protection Register value */
1225:./.driver/STM32F10x_StdPeriph_Driver/src/stm32f10x_flash.c ****   return (uint32_t)(FLASH->WRPR);
 1619              		.loc 1 1225 26
 1620 0004 024B     		ldr	r3, .L88
 1621              		.loc 1 1225 10
 1622 0006 1B6A     		ldr	r3, [r3, #32]
1226:./.driver/STM32F10x_StdPeriph_Driver/src/stm32f10x_flash.c **** }
 1623              		.loc 1 1226 1
 1624 0008 1846     		mov	r0, r3
 1625 000a BD46     		mov	sp, r7
 1626              	.LCFI90:
 1627              		.cfi_def_cfa_register 13
 1628              		@ sp needed
 1629 000c 80BC     		pop	{r7}
 1630              	.LCFI91:
 1631              		.cfi_restore 7
 1632              		.cfi_def_cfa_offset 0
 1633 000e 7047     		bx	lr
 1634              	.L89:
 1635              		.align	2
 1636              	.L88:
 1637 0010 00200240 		.word	1073881088
 1638              		.cfi_endproc
 1639              	.LFE47:
 1641              		.section	.text.FLASH_GetReadOutProtectionStatus,"ax",%progbits
 1642              		.align	1
 1643              		.global	FLASH_GetReadOutProtectionStatus
 1644              		.syntax unified
 1645              		.thumb
 1646              		.thumb_func
 1648              	FLASH_GetReadOutProtectionStatus:
 1649              	.LFB48:
1227:./.driver/STM32F10x_StdPeriph_Driver/src/stm32f10x_flash.c **** 
1228:./.driver/STM32F10x_StdPeriph_Driver/src/stm32f10x_flash.c **** /**
1229:./.driver/STM32F10x_StdPeriph_Driver/src/stm32f10x_flash.c ****   * @brief  Checks whether the FLASH Read Out Protection Status is set or not.
1230:./.driver/STM32F10x_StdPeriph_Driver/src/stm32f10x_flash.c ****   * @note   This function can be used for all STM32F10x devices.
1231:./.driver/STM32F10x_StdPeriph_Driver/src/stm32f10x_flash.c ****   * @param  None
1232:./.driver/STM32F10x_StdPeriph_Driver/src/stm32f10x_flash.c ****   * @retval FLASH ReadOut Protection Status(SET or RESET)
1233:./.driver/STM32F10x_StdPeriph_Driver/src/stm32f10x_flash.c ****   */
1234:./.driver/STM32F10x_StdPeriph_Driver/src/stm32f10x_flash.c **** FlagStatus FLASH_GetReadOutProtectionStatus(void)
1235:./.driver/STM32F10x_StdPeriph_Driver/src/stm32f10x_flash.c **** {
 1650              		.loc 1 1235 1
 1651              		.cfi_startproc
 1652              		@ args = 0, pretend = 0, frame = 8
 1653              		@ frame_needed = 1, uses_anonymous_args = 0
 1654              		@ link register save eliminated.
ARM GAS  C:\Users\SAMEER~1.ALM\AppData\Local\Temp\ccT7Y8qk.s 			page 51


 1655 0000 80B4     		push	{r7}
 1656              	.LCFI92:
 1657              		.cfi_def_cfa_offset 4
 1658              		.cfi_offset 7, -4
 1659 0002 83B0     		sub	sp, sp, #12
 1660              	.LCFI93:
 1661              		.cfi_def_cfa_offset 16
 1662 0004 00AF     		add	r7, sp, #0
 1663              	.LCFI94:
 1664              		.cfi_def_cfa_register 7
1236:./.driver/STM32F10x_StdPeriph_Driver/src/stm32f10x_flash.c ****   FlagStatus readoutstatus = RESET;
 1665              		.loc 1 1236 14
 1666 0006 0023     		movs	r3, #0
 1667 0008 FB71     		strb	r3, [r7, #7]
1237:./.driver/STM32F10x_StdPeriph_Driver/src/stm32f10x_flash.c ****   if ((FLASH->OBR & RDPRT_Mask) != (uint32_t)RESET)
 1668              		.loc 1 1237 13
 1669 000a 084B     		ldr	r3, .L94
 1670 000c DB69     		ldr	r3, [r3, #28]
 1671              		.loc 1 1237 19
 1672 000e 03F00203 		and	r3, r3, #2
 1673              		.loc 1 1237 6
 1674 0012 002B     		cmp	r3, #0
 1675 0014 02D0     		beq	.L91
1238:./.driver/STM32F10x_StdPeriph_Driver/src/stm32f10x_flash.c ****   {
1239:./.driver/STM32F10x_StdPeriph_Driver/src/stm32f10x_flash.c ****     readoutstatus = SET;
 1676              		.loc 1 1239 19
 1677 0016 0123     		movs	r3, #1
 1678 0018 FB71     		strb	r3, [r7, #7]
 1679 001a 01E0     		b	.L92
 1680              	.L91:
1240:./.driver/STM32F10x_StdPeriph_Driver/src/stm32f10x_flash.c ****   }
1241:./.driver/STM32F10x_StdPeriph_Driver/src/stm32f10x_flash.c ****   else
1242:./.driver/STM32F10x_StdPeriph_Driver/src/stm32f10x_flash.c ****   {
1243:./.driver/STM32F10x_StdPeriph_Driver/src/stm32f10x_flash.c ****     readoutstatus = RESET;
 1681              		.loc 1 1243 19
 1682 001c 0023     		movs	r3, #0
 1683 001e FB71     		strb	r3, [r7, #7]
 1684              	.L92:
1244:./.driver/STM32F10x_StdPeriph_Driver/src/stm32f10x_flash.c ****   }
1245:./.driver/STM32F10x_StdPeriph_Driver/src/stm32f10x_flash.c ****   return readoutstatus;
 1685              		.loc 1 1245 10
 1686 0020 FB79     		ldrb	r3, [r7, #7]	@ zero_extendqisi2
1246:./.driver/STM32F10x_StdPeriph_Driver/src/stm32f10x_flash.c **** }
 1687              		.loc 1 1246 1
 1688 0022 1846     		mov	r0, r3
 1689 0024 0C37     		adds	r7, r7, #12
 1690              	.LCFI95:
 1691              		.cfi_def_cfa_offset 4
 1692 0026 BD46     		mov	sp, r7
 1693              	.LCFI96:
 1694              		.cfi_def_cfa_register 13
 1695              		@ sp needed
 1696 0028 80BC     		pop	{r7}
 1697              	.LCFI97:
 1698              		.cfi_restore 7
 1699              		.cfi_def_cfa_offset 0
 1700 002a 7047     		bx	lr
ARM GAS  C:\Users\SAMEER~1.ALM\AppData\Local\Temp\ccT7Y8qk.s 			page 52


 1701              	.L95:
 1702              		.align	2
 1703              	.L94:
 1704 002c 00200240 		.word	1073881088
 1705              		.cfi_endproc
 1706              	.LFE48:
 1708              		.section	.text.FLASH_GetPrefetchBufferStatus,"ax",%progbits
 1709              		.align	1
 1710              		.global	FLASH_GetPrefetchBufferStatus
 1711              		.syntax unified
 1712              		.thumb
 1713              		.thumb_func
 1715              	FLASH_GetPrefetchBufferStatus:
 1716              	.LFB49:
1247:./.driver/STM32F10x_StdPeriph_Driver/src/stm32f10x_flash.c **** 
1248:./.driver/STM32F10x_StdPeriph_Driver/src/stm32f10x_flash.c **** /**
1249:./.driver/STM32F10x_StdPeriph_Driver/src/stm32f10x_flash.c ****   * @brief  Checks whether the FLASH Prefetch Buffer status is set or not.
1250:./.driver/STM32F10x_StdPeriph_Driver/src/stm32f10x_flash.c ****   * @note   This function can be used for all STM32F10x devices.
1251:./.driver/STM32F10x_StdPeriph_Driver/src/stm32f10x_flash.c ****   * @param  None
1252:./.driver/STM32F10x_StdPeriph_Driver/src/stm32f10x_flash.c ****   * @retval FLASH Prefetch Buffer Status (SET or RESET).
1253:./.driver/STM32F10x_StdPeriph_Driver/src/stm32f10x_flash.c ****   */
1254:./.driver/STM32F10x_StdPeriph_Driver/src/stm32f10x_flash.c **** FlagStatus FLASH_GetPrefetchBufferStatus(void)
1255:./.driver/STM32F10x_StdPeriph_Driver/src/stm32f10x_flash.c **** {
 1717              		.loc 1 1255 1
 1718              		.cfi_startproc
 1719              		@ args = 0, pretend = 0, frame = 8
 1720              		@ frame_needed = 1, uses_anonymous_args = 0
 1721              		@ link register save eliminated.
 1722 0000 80B4     		push	{r7}
 1723              	.LCFI98:
 1724              		.cfi_def_cfa_offset 4
 1725              		.cfi_offset 7, -4
 1726 0002 83B0     		sub	sp, sp, #12
 1727              	.LCFI99:
 1728              		.cfi_def_cfa_offset 16
 1729 0004 00AF     		add	r7, sp, #0
 1730              	.LCFI100:
 1731              		.cfi_def_cfa_register 7
1256:./.driver/STM32F10x_StdPeriph_Driver/src/stm32f10x_flash.c ****   FlagStatus bitstatus = RESET;
 1732              		.loc 1 1256 14
 1733 0006 0023     		movs	r3, #0
 1734 0008 FB71     		strb	r3, [r7, #7]
1257:./.driver/STM32F10x_StdPeriph_Driver/src/stm32f10x_flash.c ****   
1258:./.driver/STM32F10x_StdPeriph_Driver/src/stm32f10x_flash.c ****   if ((FLASH->ACR & ACR_PRFTBS_Mask) != (uint32_t)RESET)
 1735              		.loc 1 1258 13
 1736 000a 084B     		ldr	r3, .L100
 1737 000c 1B68     		ldr	r3, [r3]
 1738              		.loc 1 1258 19
 1739 000e 03F02003 		and	r3, r3, #32
 1740              		.loc 1 1258 6
 1741 0012 002B     		cmp	r3, #0
 1742 0014 02D0     		beq	.L97
1259:./.driver/STM32F10x_StdPeriph_Driver/src/stm32f10x_flash.c ****   {
1260:./.driver/STM32F10x_StdPeriph_Driver/src/stm32f10x_flash.c ****     bitstatus = SET;
 1743              		.loc 1 1260 15
 1744 0016 0123     		movs	r3, #1
 1745 0018 FB71     		strb	r3, [r7, #7]
ARM GAS  C:\Users\SAMEER~1.ALM\AppData\Local\Temp\ccT7Y8qk.s 			page 53


 1746 001a 01E0     		b	.L98
 1747              	.L97:
1261:./.driver/STM32F10x_StdPeriph_Driver/src/stm32f10x_flash.c ****   }
1262:./.driver/STM32F10x_StdPeriph_Driver/src/stm32f10x_flash.c ****   else
1263:./.driver/STM32F10x_StdPeriph_Driver/src/stm32f10x_flash.c ****   {
1264:./.driver/STM32F10x_StdPeriph_Driver/src/stm32f10x_flash.c ****     bitstatus = RESET;
 1748              		.loc 1 1264 15
 1749 001c 0023     		movs	r3, #0
 1750 001e FB71     		strb	r3, [r7, #7]
 1751              	.L98:
1265:./.driver/STM32F10x_StdPeriph_Driver/src/stm32f10x_flash.c ****   }
1266:./.driver/STM32F10x_StdPeriph_Driver/src/stm32f10x_flash.c ****   /* Return the new state of FLASH Prefetch Buffer Status (SET or RESET) */
1267:./.driver/STM32F10x_StdPeriph_Driver/src/stm32f10x_flash.c ****   return bitstatus; 
 1752              		.loc 1 1267 10
 1753 0020 FB79     		ldrb	r3, [r7, #7]	@ zero_extendqisi2
1268:./.driver/STM32F10x_StdPeriph_Driver/src/stm32f10x_flash.c **** }
 1754              		.loc 1 1268 1
 1755 0022 1846     		mov	r0, r3
 1756 0024 0C37     		adds	r7, r7, #12
 1757              	.LCFI101:
 1758              		.cfi_def_cfa_offset 4
 1759 0026 BD46     		mov	sp, r7
 1760              	.LCFI102:
 1761              		.cfi_def_cfa_register 13
 1762              		@ sp needed
 1763 0028 80BC     		pop	{r7}
 1764              	.LCFI103:
 1765              		.cfi_restore 7
 1766              		.cfi_def_cfa_offset 0
 1767 002a 7047     		bx	lr
 1768              	.L101:
 1769              		.align	2
 1770              	.L100:
 1771 002c 00200240 		.word	1073881088
 1772              		.cfi_endproc
 1773              	.LFE49:
 1775              		.section	.text.FLASH_ITConfig,"ax",%progbits
 1776              		.align	1
 1777              		.global	FLASH_ITConfig
 1778              		.syntax unified
 1779              		.thumb
 1780              		.thumb_func
 1782              	FLASH_ITConfig:
 1783              	.LFB50:
1269:./.driver/STM32F10x_StdPeriph_Driver/src/stm32f10x_flash.c **** 
1270:./.driver/STM32F10x_StdPeriph_Driver/src/stm32f10x_flash.c **** /**
1271:./.driver/STM32F10x_StdPeriph_Driver/src/stm32f10x_flash.c ****   * @brief  Enables or disables the specified FLASH interrupts.
1272:./.driver/STM32F10x_StdPeriph_Driver/src/stm32f10x_flash.c ****   * @note   This function can be used for all STM32F10x devices.
1273:./.driver/STM32F10x_StdPeriph_Driver/src/stm32f10x_flash.c ****   *         - For STM32F10X_XL devices, enables or disables the specified FLASH interrupts
1274:./.driver/STM32F10x_StdPeriph_Driver/src/stm32f10x_flash.c ****               for Bank1 and Bank2.
1275:./.driver/STM32F10x_StdPeriph_Driver/src/stm32f10x_flash.c ****   *         - For other devices it enables or disables the specified FLASH interrupts for Bank1.
1276:./.driver/STM32F10x_StdPeriph_Driver/src/stm32f10x_flash.c ****   * @param  FLASH_IT: specifies the FLASH interrupt sources to be enabled or disabled.
1277:./.driver/STM32F10x_StdPeriph_Driver/src/stm32f10x_flash.c ****   *   This parameter can be any combination of the following values:
1278:./.driver/STM32F10x_StdPeriph_Driver/src/stm32f10x_flash.c ****   *     @arg FLASH_IT_ERROR: FLASH Error Interrupt
1279:./.driver/STM32F10x_StdPeriph_Driver/src/stm32f10x_flash.c ****   *     @arg FLASH_IT_EOP: FLASH end of operation Interrupt
1280:./.driver/STM32F10x_StdPeriph_Driver/src/stm32f10x_flash.c ****   * @param  NewState: new state of the specified Flash interrupts.
1281:./.driver/STM32F10x_StdPeriph_Driver/src/stm32f10x_flash.c ****   *   This parameter can be: ENABLE or DISABLE.      
ARM GAS  C:\Users\SAMEER~1.ALM\AppData\Local\Temp\ccT7Y8qk.s 			page 54


1282:./.driver/STM32F10x_StdPeriph_Driver/src/stm32f10x_flash.c ****   * @retval None 
1283:./.driver/STM32F10x_StdPeriph_Driver/src/stm32f10x_flash.c ****   */
1284:./.driver/STM32F10x_StdPeriph_Driver/src/stm32f10x_flash.c **** void FLASH_ITConfig(uint32_t FLASH_IT, FunctionalState NewState)
1285:./.driver/STM32F10x_StdPeriph_Driver/src/stm32f10x_flash.c **** {
 1784              		.loc 1 1285 1
 1785              		.cfi_startproc
 1786              		@ args = 0, pretend = 0, frame = 8
 1787              		@ frame_needed = 1, uses_anonymous_args = 0
 1788              		@ link register save eliminated.
 1789 0000 80B4     		push	{r7}
 1790              	.LCFI104:
 1791              		.cfi_def_cfa_offset 4
 1792              		.cfi_offset 7, -4
 1793 0002 83B0     		sub	sp, sp, #12
 1794              	.LCFI105:
 1795              		.cfi_def_cfa_offset 16
 1796 0004 00AF     		add	r7, sp, #0
 1797              	.LCFI106:
 1798              		.cfi_def_cfa_register 7
 1799 0006 7860     		str	r0, [r7, #4]
 1800 0008 0B46     		mov	r3, r1
 1801 000a FB70     		strb	r3, [r7, #3]
1286:./.driver/STM32F10x_StdPeriph_Driver/src/stm32f10x_flash.c **** #ifdef STM32F10X_XL
1287:./.driver/STM32F10x_StdPeriph_Driver/src/stm32f10x_flash.c ****   /* Check the parameters */
1288:./.driver/STM32F10x_StdPeriph_Driver/src/stm32f10x_flash.c ****   assert_param(IS_FLASH_IT(FLASH_IT)); 
1289:./.driver/STM32F10x_StdPeriph_Driver/src/stm32f10x_flash.c ****   assert_param(IS_FUNCTIONAL_STATE(NewState));
1290:./.driver/STM32F10x_StdPeriph_Driver/src/stm32f10x_flash.c **** 
1291:./.driver/STM32F10x_StdPeriph_Driver/src/stm32f10x_flash.c ****   if((FLASH_IT & 0x80000000) != 0x0)
1292:./.driver/STM32F10x_StdPeriph_Driver/src/stm32f10x_flash.c ****   {
1293:./.driver/STM32F10x_StdPeriph_Driver/src/stm32f10x_flash.c ****     if(NewState != DISABLE)
1294:./.driver/STM32F10x_StdPeriph_Driver/src/stm32f10x_flash.c ****     {
1295:./.driver/STM32F10x_StdPeriph_Driver/src/stm32f10x_flash.c ****       /* Enable the interrupt sources */
1296:./.driver/STM32F10x_StdPeriph_Driver/src/stm32f10x_flash.c ****       FLASH->CR2 |= (FLASH_IT & 0x7FFFFFFF);
1297:./.driver/STM32F10x_StdPeriph_Driver/src/stm32f10x_flash.c ****     }
1298:./.driver/STM32F10x_StdPeriph_Driver/src/stm32f10x_flash.c ****     else
1299:./.driver/STM32F10x_StdPeriph_Driver/src/stm32f10x_flash.c ****     {
1300:./.driver/STM32F10x_StdPeriph_Driver/src/stm32f10x_flash.c ****       /* Disable the interrupt sources */
1301:./.driver/STM32F10x_StdPeriph_Driver/src/stm32f10x_flash.c ****       FLASH->CR2 &= ~(uint32_t)(FLASH_IT & 0x7FFFFFFF);
1302:./.driver/STM32F10x_StdPeriph_Driver/src/stm32f10x_flash.c ****     }
1303:./.driver/STM32F10x_StdPeriph_Driver/src/stm32f10x_flash.c ****   }
1304:./.driver/STM32F10x_StdPeriph_Driver/src/stm32f10x_flash.c ****   else
1305:./.driver/STM32F10x_StdPeriph_Driver/src/stm32f10x_flash.c ****   {
1306:./.driver/STM32F10x_StdPeriph_Driver/src/stm32f10x_flash.c ****     if(NewState != DISABLE)
1307:./.driver/STM32F10x_StdPeriph_Driver/src/stm32f10x_flash.c ****     {
1308:./.driver/STM32F10x_StdPeriph_Driver/src/stm32f10x_flash.c ****       /* Enable the interrupt sources */
1309:./.driver/STM32F10x_StdPeriph_Driver/src/stm32f10x_flash.c ****       FLASH->CR |= FLASH_IT;
1310:./.driver/STM32F10x_StdPeriph_Driver/src/stm32f10x_flash.c ****     }
1311:./.driver/STM32F10x_StdPeriph_Driver/src/stm32f10x_flash.c ****     else
1312:./.driver/STM32F10x_StdPeriph_Driver/src/stm32f10x_flash.c ****     {
1313:./.driver/STM32F10x_StdPeriph_Driver/src/stm32f10x_flash.c ****       /* Disable the interrupt sources */
1314:./.driver/STM32F10x_StdPeriph_Driver/src/stm32f10x_flash.c ****       FLASH->CR &= ~(uint32_t)FLASH_IT;
1315:./.driver/STM32F10x_StdPeriph_Driver/src/stm32f10x_flash.c ****     }
1316:./.driver/STM32F10x_StdPeriph_Driver/src/stm32f10x_flash.c ****   }
1317:./.driver/STM32F10x_StdPeriph_Driver/src/stm32f10x_flash.c **** #else
1318:./.driver/STM32F10x_StdPeriph_Driver/src/stm32f10x_flash.c ****   /* Check the parameters */
1319:./.driver/STM32F10x_StdPeriph_Driver/src/stm32f10x_flash.c ****   assert_param(IS_FLASH_IT(FLASH_IT)); 
1320:./.driver/STM32F10x_StdPeriph_Driver/src/stm32f10x_flash.c ****   assert_param(IS_FUNCTIONAL_STATE(NewState));
ARM GAS  C:\Users\SAMEER~1.ALM\AppData\Local\Temp\ccT7Y8qk.s 			page 55


1321:./.driver/STM32F10x_StdPeriph_Driver/src/stm32f10x_flash.c **** 
1322:./.driver/STM32F10x_StdPeriph_Driver/src/stm32f10x_flash.c ****   if(NewState != DISABLE)
 1802              		.loc 1 1322 5
 1803 000c FB78     		ldrb	r3, [r7, #3]	@ zero_extendqisi2
 1804 000e 002B     		cmp	r3, #0
 1805 0010 06D0     		beq	.L103
1323:./.driver/STM32F10x_StdPeriph_Driver/src/stm32f10x_flash.c ****   {
1324:./.driver/STM32F10x_StdPeriph_Driver/src/stm32f10x_flash.c ****     /* Enable the interrupt sources */
1325:./.driver/STM32F10x_StdPeriph_Driver/src/stm32f10x_flash.c ****     FLASH->CR |= FLASH_IT;
 1806              		.loc 1 1325 15
 1807 0012 094B     		ldr	r3, .L106
 1808 0014 1A69     		ldr	r2, [r3, #16]
 1809 0016 0849     		ldr	r1, .L106
 1810 0018 7B68     		ldr	r3, [r7, #4]
 1811 001a 1343     		orrs	r3, r3, r2
 1812 001c 0B61     		str	r3, [r1, #16]
1326:./.driver/STM32F10x_StdPeriph_Driver/src/stm32f10x_flash.c ****   }
1327:./.driver/STM32F10x_StdPeriph_Driver/src/stm32f10x_flash.c ****   else
1328:./.driver/STM32F10x_StdPeriph_Driver/src/stm32f10x_flash.c ****   {
1329:./.driver/STM32F10x_StdPeriph_Driver/src/stm32f10x_flash.c ****     /* Disable the interrupt sources */
1330:./.driver/STM32F10x_StdPeriph_Driver/src/stm32f10x_flash.c ****     FLASH->CR &= ~(uint32_t)FLASH_IT;
1331:./.driver/STM32F10x_StdPeriph_Driver/src/stm32f10x_flash.c ****   }
1332:./.driver/STM32F10x_StdPeriph_Driver/src/stm32f10x_flash.c **** #endif /* STM32F10X_XL */
1333:./.driver/STM32F10x_StdPeriph_Driver/src/stm32f10x_flash.c **** }
 1813              		.loc 1 1333 1
 1814 001e 06E0     		b	.L105
 1815              	.L103:
1330:./.driver/STM32F10x_StdPeriph_Driver/src/stm32f10x_flash.c ****   }
 1816              		.loc 1 1330 15
 1817 0020 054B     		ldr	r3, .L106
 1818 0022 1A69     		ldr	r2, [r3, #16]
1330:./.driver/STM32F10x_StdPeriph_Driver/src/stm32f10x_flash.c ****   }
 1819              		.loc 1 1330 18
 1820 0024 7B68     		ldr	r3, [r7, #4]
 1821 0026 DB43     		mvns	r3, r3
1330:./.driver/STM32F10x_StdPeriph_Driver/src/stm32f10x_flash.c ****   }
 1822              		.loc 1 1330 15
 1823 0028 0349     		ldr	r1, .L106
 1824 002a 1340     		ands	r3, r3, r2
 1825 002c 0B61     		str	r3, [r1, #16]
 1826              	.L105:
 1827              		.loc 1 1333 1
 1828 002e 00BF     		nop
 1829 0030 0C37     		adds	r7, r7, #12
 1830              	.LCFI107:
 1831              		.cfi_def_cfa_offset 4
 1832 0032 BD46     		mov	sp, r7
 1833              	.LCFI108:
 1834              		.cfi_def_cfa_register 13
 1835              		@ sp needed
 1836 0034 80BC     		pop	{r7}
 1837              	.LCFI109:
 1838              		.cfi_restore 7
 1839              		.cfi_def_cfa_offset 0
 1840 0036 7047     		bx	lr
 1841              	.L107:
 1842              		.align	2
ARM GAS  C:\Users\SAMEER~1.ALM\AppData\Local\Temp\ccT7Y8qk.s 			page 56


 1843              	.L106:
 1844 0038 00200240 		.word	1073881088
 1845              		.cfi_endproc
 1846              	.LFE50:
 1848              		.section	.text.FLASH_GetFlagStatus,"ax",%progbits
 1849              		.align	1
 1850              		.global	FLASH_GetFlagStatus
 1851              		.syntax unified
 1852              		.thumb
 1853              		.thumb_func
 1855              	FLASH_GetFlagStatus:
 1856              	.LFB51:
1334:./.driver/STM32F10x_StdPeriph_Driver/src/stm32f10x_flash.c **** 
1335:./.driver/STM32F10x_StdPeriph_Driver/src/stm32f10x_flash.c **** /**
1336:./.driver/STM32F10x_StdPeriph_Driver/src/stm32f10x_flash.c ****   * @brief  Checks whether the specified FLASH flag is set or not.
1337:./.driver/STM32F10x_StdPeriph_Driver/src/stm32f10x_flash.c ****   * @note   This function can be used for all STM32F10x devices.
1338:./.driver/STM32F10x_StdPeriph_Driver/src/stm32f10x_flash.c ****   *         - For STM32F10X_XL devices, this function checks whether the specified 
1339:./.driver/STM32F10x_StdPeriph_Driver/src/stm32f10x_flash.c ****   *           Bank1 or Bank2 flag is set or not.
1340:./.driver/STM32F10x_StdPeriph_Driver/src/stm32f10x_flash.c ****   *         - For other devices, it checks whether the specified Bank1 flag is 
1341:./.driver/STM32F10x_StdPeriph_Driver/src/stm32f10x_flash.c ****   *           set or not.
1342:./.driver/STM32F10x_StdPeriph_Driver/src/stm32f10x_flash.c ****   * @param  FLASH_FLAG: specifies the FLASH flag to check.
1343:./.driver/STM32F10x_StdPeriph_Driver/src/stm32f10x_flash.c ****   *   This parameter can be one of the following values:
1344:./.driver/STM32F10x_StdPeriph_Driver/src/stm32f10x_flash.c ****   *     @arg FLASH_FLAG_BSY: FLASH Busy flag           
1345:./.driver/STM32F10x_StdPeriph_Driver/src/stm32f10x_flash.c ****   *     @arg FLASH_FLAG_PGERR: FLASH Program error flag       
1346:./.driver/STM32F10x_StdPeriph_Driver/src/stm32f10x_flash.c ****   *     @arg FLASH_FLAG_WRPRTERR: FLASH Write protected error flag      
1347:./.driver/STM32F10x_StdPeriph_Driver/src/stm32f10x_flash.c ****   *     @arg FLASH_FLAG_EOP: FLASH End of Operation flag           
1348:./.driver/STM32F10x_StdPeriph_Driver/src/stm32f10x_flash.c ****   *     @arg FLASH_FLAG_OPTERR:  FLASH Option Byte error flag     
1349:./.driver/STM32F10x_StdPeriph_Driver/src/stm32f10x_flash.c ****   * @retval The new state of FLASH_FLAG (SET or RESET).
1350:./.driver/STM32F10x_StdPeriph_Driver/src/stm32f10x_flash.c ****   */
1351:./.driver/STM32F10x_StdPeriph_Driver/src/stm32f10x_flash.c **** FlagStatus FLASH_GetFlagStatus(uint32_t FLASH_FLAG)
1352:./.driver/STM32F10x_StdPeriph_Driver/src/stm32f10x_flash.c **** {
 1857              		.loc 1 1352 1
 1858              		.cfi_startproc
 1859              		@ args = 0, pretend = 0, frame = 16
 1860              		@ frame_needed = 1, uses_anonymous_args = 0
 1861              		@ link register save eliminated.
 1862 0000 80B4     		push	{r7}
 1863              	.LCFI110:
 1864              		.cfi_def_cfa_offset 4
 1865              		.cfi_offset 7, -4
 1866 0002 85B0     		sub	sp, sp, #20
 1867              	.LCFI111:
 1868              		.cfi_def_cfa_offset 24
 1869 0004 00AF     		add	r7, sp, #0
 1870              	.LCFI112:
 1871              		.cfi_def_cfa_register 7
 1872 0006 7860     		str	r0, [r7, #4]
1353:./.driver/STM32F10x_StdPeriph_Driver/src/stm32f10x_flash.c ****   FlagStatus bitstatus = RESET;
 1873              		.loc 1 1353 14
 1874 0008 0023     		movs	r3, #0
 1875 000a FB73     		strb	r3, [r7, #15]
1354:./.driver/STM32F10x_StdPeriph_Driver/src/stm32f10x_flash.c **** 
1355:./.driver/STM32F10x_StdPeriph_Driver/src/stm32f10x_flash.c **** #ifdef STM32F10X_XL
1356:./.driver/STM32F10x_StdPeriph_Driver/src/stm32f10x_flash.c ****   /* Check the parameters */
1357:./.driver/STM32F10x_StdPeriph_Driver/src/stm32f10x_flash.c ****   assert_param(IS_FLASH_GET_FLAG(FLASH_FLAG)) ;
1358:./.driver/STM32F10x_StdPeriph_Driver/src/stm32f10x_flash.c ****   if(FLASH_FLAG == FLASH_FLAG_OPTERR) 
1359:./.driver/STM32F10x_StdPeriph_Driver/src/stm32f10x_flash.c ****   {
ARM GAS  C:\Users\SAMEER~1.ALM\AppData\Local\Temp\ccT7Y8qk.s 			page 57


1360:./.driver/STM32F10x_StdPeriph_Driver/src/stm32f10x_flash.c ****     if((FLASH->OBR & FLASH_FLAG_OPTERR) != (uint32_t)RESET)
1361:./.driver/STM32F10x_StdPeriph_Driver/src/stm32f10x_flash.c ****     {
1362:./.driver/STM32F10x_StdPeriph_Driver/src/stm32f10x_flash.c ****       bitstatus = SET;
1363:./.driver/STM32F10x_StdPeriph_Driver/src/stm32f10x_flash.c ****     }
1364:./.driver/STM32F10x_StdPeriph_Driver/src/stm32f10x_flash.c ****     else
1365:./.driver/STM32F10x_StdPeriph_Driver/src/stm32f10x_flash.c ****     {
1366:./.driver/STM32F10x_StdPeriph_Driver/src/stm32f10x_flash.c ****       bitstatus = RESET;
1367:./.driver/STM32F10x_StdPeriph_Driver/src/stm32f10x_flash.c ****     }
1368:./.driver/STM32F10x_StdPeriph_Driver/src/stm32f10x_flash.c ****   }
1369:./.driver/STM32F10x_StdPeriph_Driver/src/stm32f10x_flash.c ****   else
1370:./.driver/STM32F10x_StdPeriph_Driver/src/stm32f10x_flash.c ****   {
1371:./.driver/STM32F10x_StdPeriph_Driver/src/stm32f10x_flash.c ****     if((FLASH_FLAG & 0x80000000) != 0x0)
1372:./.driver/STM32F10x_StdPeriph_Driver/src/stm32f10x_flash.c ****     {
1373:./.driver/STM32F10x_StdPeriph_Driver/src/stm32f10x_flash.c ****       if((FLASH->SR2 & FLASH_FLAG) != (uint32_t)RESET)
1374:./.driver/STM32F10x_StdPeriph_Driver/src/stm32f10x_flash.c ****       {
1375:./.driver/STM32F10x_StdPeriph_Driver/src/stm32f10x_flash.c ****         bitstatus = SET;
1376:./.driver/STM32F10x_StdPeriph_Driver/src/stm32f10x_flash.c ****       }
1377:./.driver/STM32F10x_StdPeriph_Driver/src/stm32f10x_flash.c ****       else
1378:./.driver/STM32F10x_StdPeriph_Driver/src/stm32f10x_flash.c ****       {
1379:./.driver/STM32F10x_StdPeriph_Driver/src/stm32f10x_flash.c ****         bitstatus = RESET;
1380:./.driver/STM32F10x_StdPeriph_Driver/src/stm32f10x_flash.c ****       }
1381:./.driver/STM32F10x_StdPeriph_Driver/src/stm32f10x_flash.c ****     }
1382:./.driver/STM32F10x_StdPeriph_Driver/src/stm32f10x_flash.c ****     else
1383:./.driver/STM32F10x_StdPeriph_Driver/src/stm32f10x_flash.c ****     {
1384:./.driver/STM32F10x_StdPeriph_Driver/src/stm32f10x_flash.c ****       if((FLASH->SR & FLASH_FLAG) != (uint32_t)RESET)
1385:./.driver/STM32F10x_StdPeriph_Driver/src/stm32f10x_flash.c ****       {
1386:./.driver/STM32F10x_StdPeriph_Driver/src/stm32f10x_flash.c ****         bitstatus = SET;
1387:./.driver/STM32F10x_StdPeriph_Driver/src/stm32f10x_flash.c ****       }
1388:./.driver/STM32F10x_StdPeriph_Driver/src/stm32f10x_flash.c ****       else
1389:./.driver/STM32F10x_StdPeriph_Driver/src/stm32f10x_flash.c ****       {
1390:./.driver/STM32F10x_StdPeriph_Driver/src/stm32f10x_flash.c ****         bitstatus = RESET;
1391:./.driver/STM32F10x_StdPeriph_Driver/src/stm32f10x_flash.c ****       }
1392:./.driver/STM32F10x_StdPeriph_Driver/src/stm32f10x_flash.c ****     }
1393:./.driver/STM32F10x_StdPeriph_Driver/src/stm32f10x_flash.c ****   }
1394:./.driver/STM32F10x_StdPeriph_Driver/src/stm32f10x_flash.c **** #else
1395:./.driver/STM32F10x_StdPeriph_Driver/src/stm32f10x_flash.c ****   /* Check the parameters */
1396:./.driver/STM32F10x_StdPeriph_Driver/src/stm32f10x_flash.c ****   assert_param(IS_FLASH_GET_FLAG(FLASH_FLAG)) ;
1397:./.driver/STM32F10x_StdPeriph_Driver/src/stm32f10x_flash.c ****   if(FLASH_FLAG == FLASH_FLAG_OPTERR) 
 1876              		.loc 1 1397 5
 1877 000c 7B68     		ldr	r3, [r7, #4]
 1878 000e 012B     		cmp	r3, #1
 1879 0010 0BD1     		bne	.L109
1398:./.driver/STM32F10x_StdPeriph_Driver/src/stm32f10x_flash.c ****   {
1399:./.driver/STM32F10x_StdPeriph_Driver/src/stm32f10x_flash.c ****     if((FLASH->OBR & FLASH_FLAG_OPTERR) != (uint32_t)RESET)
 1880              		.loc 1 1399 14
 1881 0012 0E4B     		ldr	r3, .L114
 1882 0014 DB69     		ldr	r3, [r3, #28]
 1883              		.loc 1 1399 20
 1884 0016 03F00103 		and	r3, r3, #1
 1885              		.loc 1 1399 7
 1886 001a 002B     		cmp	r3, #0
 1887 001c 02D0     		beq	.L110
1400:./.driver/STM32F10x_StdPeriph_Driver/src/stm32f10x_flash.c ****     {
1401:./.driver/STM32F10x_StdPeriph_Driver/src/stm32f10x_flash.c ****       bitstatus = SET;
 1888              		.loc 1 1401 17
 1889 001e 0123     		movs	r3, #1
 1890 0020 FB73     		strb	r3, [r7, #15]
ARM GAS  C:\Users\SAMEER~1.ALM\AppData\Local\Temp\ccT7Y8qk.s 			page 58


 1891 0022 0DE0     		b	.L111
 1892              	.L110:
1402:./.driver/STM32F10x_StdPeriph_Driver/src/stm32f10x_flash.c ****     }
1403:./.driver/STM32F10x_StdPeriph_Driver/src/stm32f10x_flash.c ****     else
1404:./.driver/STM32F10x_StdPeriph_Driver/src/stm32f10x_flash.c ****     {
1405:./.driver/STM32F10x_StdPeriph_Driver/src/stm32f10x_flash.c ****       bitstatus = RESET;
 1893              		.loc 1 1405 17
 1894 0024 0023     		movs	r3, #0
 1895 0026 FB73     		strb	r3, [r7, #15]
 1896 0028 0AE0     		b	.L111
 1897              	.L109:
1406:./.driver/STM32F10x_StdPeriph_Driver/src/stm32f10x_flash.c ****     }
1407:./.driver/STM32F10x_StdPeriph_Driver/src/stm32f10x_flash.c ****   }
1408:./.driver/STM32F10x_StdPeriph_Driver/src/stm32f10x_flash.c ****   else
1409:./.driver/STM32F10x_StdPeriph_Driver/src/stm32f10x_flash.c ****   {
1410:./.driver/STM32F10x_StdPeriph_Driver/src/stm32f10x_flash.c ****    if((FLASH->SR & FLASH_FLAG) != (uint32_t)RESET)
 1898              		.loc 1 1410 13
 1899 002a 084B     		ldr	r3, .L114
 1900 002c DA68     		ldr	r2, [r3, #12]
 1901              		.loc 1 1410 18
 1902 002e 7B68     		ldr	r3, [r7, #4]
 1903 0030 1340     		ands	r3, r3, r2
 1904              		.loc 1 1410 6
 1905 0032 002B     		cmp	r3, #0
 1906 0034 02D0     		beq	.L112
1411:./.driver/STM32F10x_StdPeriph_Driver/src/stm32f10x_flash.c ****     {
1412:./.driver/STM32F10x_StdPeriph_Driver/src/stm32f10x_flash.c ****       bitstatus = SET;
 1907              		.loc 1 1412 17
 1908 0036 0123     		movs	r3, #1
 1909 0038 FB73     		strb	r3, [r7, #15]
 1910 003a 01E0     		b	.L111
 1911              	.L112:
1413:./.driver/STM32F10x_StdPeriph_Driver/src/stm32f10x_flash.c ****     }
1414:./.driver/STM32F10x_StdPeriph_Driver/src/stm32f10x_flash.c ****     else
1415:./.driver/STM32F10x_StdPeriph_Driver/src/stm32f10x_flash.c ****     {
1416:./.driver/STM32F10x_StdPeriph_Driver/src/stm32f10x_flash.c ****       bitstatus = RESET;
 1912              		.loc 1 1416 17
 1913 003c 0023     		movs	r3, #0
 1914 003e FB73     		strb	r3, [r7, #15]
 1915              	.L111:
1417:./.driver/STM32F10x_StdPeriph_Driver/src/stm32f10x_flash.c ****     }
1418:./.driver/STM32F10x_StdPeriph_Driver/src/stm32f10x_flash.c ****   }
1419:./.driver/STM32F10x_StdPeriph_Driver/src/stm32f10x_flash.c **** #endif /* STM32F10X_XL */
1420:./.driver/STM32F10x_StdPeriph_Driver/src/stm32f10x_flash.c **** 
1421:./.driver/STM32F10x_StdPeriph_Driver/src/stm32f10x_flash.c ****   /* Return the new state of FLASH_FLAG (SET or RESET) */
1422:./.driver/STM32F10x_StdPeriph_Driver/src/stm32f10x_flash.c ****   return bitstatus;
 1916              		.loc 1 1422 10
 1917 0040 FB7B     		ldrb	r3, [r7, #15]	@ zero_extendqisi2
1423:./.driver/STM32F10x_StdPeriph_Driver/src/stm32f10x_flash.c **** }
 1918              		.loc 1 1423 1
 1919 0042 1846     		mov	r0, r3
 1920 0044 1437     		adds	r7, r7, #20
 1921              	.LCFI113:
 1922              		.cfi_def_cfa_offset 4
 1923 0046 BD46     		mov	sp, r7
 1924              	.LCFI114:
 1925              		.cfi_def_cfa_register 13
ARM GAS  C:\Users\SAMEER~1.ALM\AppData\Local\Temp\ccT7Y8qk.s 			page 59


 1926              		@ sp needed
 1927 0048 80BC     		pop	{r7}
 1928              	.LCFI115:
 1929              		.cfi_restore 7
 1930              		.cfi_def_cfa_offset 0
 1931 004a 7047     		bx	lr
 1932              	.L115:
 1933              		.align	2
 1934              	.L114:
 1935 004c 00200240 		.word	1073881088
 1936              		.cfi_endproc
 1937              	.LFE51:
 1939              		.section	.text.FLASH_ClearFlag,"ax",%progbits
 1940              		.align	1
 1941              		.global	FLASH_ClearFlag
 1942              		.syntax unified
 1943              		.thumb
 1944              		.thumb_func
 1946              	FLASH_ClearFlag:
 1947              	.LFB52:
1424:./.driver/STM32F10x_StdPeriph_Driver/src/stm32f10x_flash.c **** 
1425:./.driver/STM32F10x_StdPeriph_Driver/src/stm32f10x_flash.c **** /**
1426:./.driver/STM32F10x_StdPeriph_Driver/src/stm32f10x_flash.c ****   * @brief  Clears the FLASH's pending flags.
1427:./.driver/STM32F10x_StdPeriph_Driver/src/stm32f10x_flash.c ****   * @note   This function can be used for all STM32F10x devices.
1428:./.driver/STM32F10x_StdPeriph_Driver/src/stm32f10x_flash.c ****   *         - For STM32F10X_XL devices, this function clears Bank1 or Bank2s pending flags
1429:./.driver/STM32F10x_StdPeriph_Driver/src/stm32f10x_flash.c ****   *         - For other devices, it clears Bank1s pending flags.
1430:./.driver/STM32F10x_StdPeriph_Driver/src/stm32f10x_flash.c ****   * @param  FLASH_FLAG: specifies the FLASH flags to clear.
1431:./.driver/STM32F10x_StdPeriph_Driver/src/stm32f10x_flash.c ****   *   This parameter can be any combination of the following values:         
1432:./.driver/STM32F10x_StdPeriph_Driver/src/stm32f10x_flash.c ****   *     @arg FLASH_FLAG_PGERR: FLASH Program error flag       
1433:./.driver/STM32F10x_StdPeriph_Driver/src/stm32f10x_flash.c ****   *     @arg FLASH_FLAG_WRPRTERR: FLASH Write protected error flag      
1434:./.driver/STM32F10x_StdPeriph_Driver/src/stm32f10x_flash.c ****   *     @arg FLASH_FLAG_EOP: FLASH End of Operation flag           
1435:./.driver/STM32F10x_StdPeriph_Driver/src/stm32f10x_flash.c ****   * @retval None
1436:./.driver/STM32F10x_StdPeriph_Driver/src/stm32f10x_flash.c ****   */
1437:./.driver/STM32F10x_StdPeriph_Driver/src/stm32f10x_flash.c **** void FLASH_ClearFlag(uint32_t FLASH_FLAG)
1438:./.driver/STM32F10x_StdPeriph_Driver/src/stm32f10x_flash.c **** {
 1948              		.loc 1 1438 1
 1949              		.cfi_startproc
 1950              		@ args = 0, pretend = 0, frame = 8
 1951              		@ frame_needed = 1, uses_anonymous_args = 0
 1952              		@ link register save eliminated.
 1953 0000 80B4     		push	{r7}
 1954              	.LCFI116:
 1955              		.cfi_def_cfa_offset 4
 1956              		.cfi_offset 7, -4
 1957 0002 83B0     		sub	sp, sp, #12
 1958              	.LCFI117:
 1959              		.cfi_def_cfa_offset 16
 1960 0004 00AF     		add	r7, sp, #0
 1961              	.LCFI118:
 1962              		.cfi_def_cfa_register 7
 1963 0006 7860     		str	r0, [r7, #4]
1439:./.driver/STM32F10x_StdPeriph_Driver/src/stm32f10x_flash.c **** #ifdef STM32F10X_XL
1440:./.driver/STM32F10x_StdPeriph_Driver/src/stm32f10x_flash.c ****   /* Check the parameters */
1441:./.driver/STM32F10x_StdPeriph_Driver/src/stm32f10x_flash.c ****   assert_param(IS_FLASH_CLEAR_FLAG(FLASH_FLAG)) ;
1442:./.driver/STM32F10x_StdPeriph_Driver/src/stm32f10x_flash.c **** 
1443:./.driver/STM32F10x_StdPeriph_Driver/src/stm32f10x_flash.c ****   if((FLASH_FLAG & 0x80000000) != 0x0)
1444:./.driver/STM32F10x_StdPeriph_Driver/src/stm32f10x_flash.c ****   {
ARM GAS  C:\Users\SAMEER~1.ALM\AppData\Local\Temp\ccT7Y8qk.s 			page 60


1445:./.driver/STM32F10x_StdPeriph_Driver/src/stm32f10x_flash.c ****     /* Clear the flags */
1446:./.driver/STM32F10x_StdPeriph_Driver/src/stm32f10x_flash.c ****     FLASH->SR2 = FLASH_FLAG;
1447:./.driver/STM32F10x_StdPeriph_Driver/src/stm32f10x_flash.c ****   }
1448:./.driver/STM32F10x_StdPeriph_Driver/src/stm32f10x_flash.c ****   else
1449:./.driver/STM32F10x_StdPeriph_Driver/src/stm32f10x_flash.c ****   {
1450:./.driver/STM32F10x_StdPeriph_Driver/src/stm32f10x_flash.c ****     /* Clear the flags */
1451:./.driver/STM32F10x_StdPeriph_Driver/src/stm32f10x_flash.c ****     FLASH->SR = FLASH_FLAG;
1452:./.driver/STM32F10x_StdPeriph_Driver/src/stm32f10x_flash.c ****   }  
1453:./.driver/STM32F10x_StdPeriph_Driver/src/stm32f10x_flash.c **** 
1454:./.driver/STM32F10x_StdPeriph_Driver/src/stm32f10x_flash.c **** #else
1455:./.driver/STM32F10x_StdPeriph_Driver/src/stm32f10x_flash.c ****   /* Check the parameters */
1456:./.driver/STM32F10x_StdPeriph_Driver/src/stm32f10x_flash.c ****   assert_param(IS_FLASH_CLEAR_FLAG(FLASH_FLAG)) ;
1457:./.driver/STM32F10x_StdPeriph_Driver/src/stm32f10x_flash.c ****   
1458:./.driver/STM32F10x_StdPeriph_Driver/src/stm32f10x_flash.c ****   /* Clear the flags */
1459:./.driver/STM32F10x_StdPeriph_Driver/src/stm32f10x_flash.c ****   FLASH->SR = FLASH_FLAG;
 1964              		.loc 1 1459 8
 1965 0008 034A     		ldr	r2, .L117
 1966              		.loc 1 1459 13
 1967 000a 7B68     		ldr	r3, [r7, #4]
 1968 000c D360     		str	r3, [r2, #12]
1460:./.driver/STM32F10x_StdPeriph_Driver/src/stm32f10x_flash.c **** #endif /* STM32F10X_XL */
1461:./.driver/STM32F10x_StdPeriph_Driver/src/stm32f10x_flash.c **** }
 1969              		.loc 1 1461 1
 1970 000e 00BF     		nop
 1971 0010 0C37     		adds	r7, r7, #12
 1972              	.LCFI119:
 1973              		.cfi_def_cfa_offset 4
 1974 0012 BD46     		mov	sp, r7
 1975              	.LCFI120:
 1976              		.cfi_def_cfa_register 13
 1977              		@ sp needed
 1978 0014 80BC     		pop	{r7}
 1979              	.LCFI121:
 1980              		.cfi_restore 7
 1981              		.cfi_def_cfa_offset 0
 1982 0016 7047     		bx	lr
 1983              	.L118:
 1984              		.align	2
 1985              	.L117:
 1986 0018 00200240 		.word	1073881088
 1987              		.cfi_endproc
 1988              	.LFE52:
 1990              		.section	.text.FLASH_GetStatus,"ax",%progbits
 1991              		.align	1
 1992              		.global	FLASH_GetStatus
 1993              		.syntax unified
 1994              		.thumb
 1995              		.thumb_func
 1997              	FLASH_GetStatus:
 1998              	.LFB53:
1462:./.driver/STM32F10x_StdPeriph_Driver/src/stm32f10x_flash.c **** 
1463:./.driver/STM32F10x_StdPeriph_Driver/src/stm32f10x_flash.c **** /**
1464:./.driver/STM32F10x_StdPeriph_Driver/src/stm32f10x_flash.c ****   * @brief  Returns the FLASH Status.
1465:./.driver/STM32F10x_StdPeriph_Driver/src/stm32f10x_flash.c ****   * @note   This function can be used for all STM32F10x devices, it is equivalent
1466:./.driver/STM32F10x_StdPeriph_Driver/src/stm32f10x_flash.c ****   *         to FLASH_GetBank1Status function.
1467:./.driver/STM32F10x_StdPeriph_Driver/src/stm32f10x_flash.c ****   * @param  None
1468:./.driver/STM32F10x_StdPeriph_Driver/src/stm32f10x_flash.c ****   * @retval FLASH Status: The returned value can be: FLASH_BUSY, FLASH_ERROR_PG,
ARM GAS  C:\Users\SAMEER~1.ALM\AppData\Local\Temp\ccT7Y8qk.s 			page 61


1469:./.driver/STM32F10x_StdPeriph_Driver/src/stm32f10x_flash.c ****   *         FLASH_ERROR_WRP or FLASH_COMPLETE
1470:./.driver/STM32F10x_StdPeriph_Driver/src/stm32f10x_flash.c ****   */
1471:./.driver/STM32F10x_StdPeriph_Driver/src/stm32f10x_flash.c **** FLASH_Status FLASH_GetStatus(void)
1472:./.driver/STM32F10x_StdPeriph_Driver/src/stm32f10x_flash.c **** {
 1999              		.loc 1 1472 1
 2000              		.cfi_startproc
 2001              		@ args = 0, pretend = 0, frame = 8
 2002              		@ frame_needed = 1, uses_anonymous_args = 0
 2003              		@ link register save eliminated.
 2004 0000 80B4     		push	{r7}
 2005              	.LCFI122:
 2006              		.cfi_def_cfa_offset 4
 2007              		.cfi_offset 7, -4
 2008 0002 83B0     		sub	sp, sp, #12
 2009              	.LCFI123:
 2010              		.cfi_def_cfa_offset 16
 2011 0004 00AF     		add	r7, sp, #0
 2012              	.LCFI124:
 2013              		.cfi_def_cfa_register 7
1473:./.driver/STM32F10x_StdPeriph_Driver/src/stm32f10x_flash.c ****   FLASH_Status flashstatus = FLASH_COMPLETE;
 2014              		.loc 1 1473 16
 2015 0006 0423     		movs	r3, #4
 2016 0008 FB71     		strb	r3, [r7, #7]
1474:./.driver/STM32F10x_StdPeriph_Driver/src/stm32f10x_flash.c ****   
1475:./.driver/STM32F10x_StdPeriph_Driver/src/stm32f10x_flash.c ****   if((FLASH->SR & FLASH_FLAG_BSY) == FLASH_FLAG_BSY) 
 2017              		.loc 1 1475 12
 2018 000a 114B     		ldr	r3, .L125
 2019 000c DB68     		ldr	r3, [r3, #12]
 2020              		.loc 1 1475 17
 2021 000e 03F00103 		and	r3, r3, #1
 2022              		.loc 1 1475 5
 2023 0012 012B     		cmp	r3, #1
 2024 0014 02D1     		bne	.L120
1476:./.driver/STM32F10x_StdPeriph_Driver/src/stm32f10x_flash.c ****   {
1477:./.driver/STM32F10x_StdPeriph_Driver/src/stm32f10x_flash.c ****     flashstatus = FLASH_BUSY;
 2025              		.loc 1 1477 17
 2026 0016 0123     		movs	r3, #1
 2027 0018 FB71     		strb	r3, [r7, #7]
 2028 001a 13E0     		b	.L121
 2029              	.L120:
1478:./.driver/STM32F10x_StdPeriph_Driver/src/stm32f10x_flash.c ****   }
1479:./.driver/STM32F10x_StdPeriph_Driver/src/stm32f10x_flash.c ****   else 
1480:./.driver/STM32F10x_StdPeriph_Driver/src/stm32f10x_flash.c ****   {  
1481:./.driver/STM32F10x_StdPeriph_Driver/src/stm32f10x_flash.c ****     if((FLASH->SR & FLASH_FLAG_PGERR) != 0)
 2030              		.loc 1 1481 14
 2031 001c 0C4B     		ldr	r3, .L125
 2032 001e DB68     		ldr	r3, [r3, #12]
 2033              		.loc 1 1481 19
 2034 0020 03F00403 		and	r3, r3, #4
 2035              		.loc 1 1481 7
 2036 0024 002B     		cmp	r3, #0
 2037 0026 02D0     		beq	.L122
1482:./.driver/STM32F10x_StdPeriph_Driver/src/stm32f10x_flash.c ****     { 
1483:./.driver/STM32F10x_StdPeriph_Driver/src/stm32f10x_flash.c ****       flashstatus = FLASH_ERROR_PG;
 2038              		.loc 1 1483 19
 2039 0028 0223     		movs	r3, #2
 2040 002a FB71     		strb	r3, [r7, #7]
ARM GAS  C:\Users\SAMEER~1.ALM\AppData\Local\Temp\ccT7Y8qk.s 			page 62


 2041 002c 0AE0     		b	.L121
 2042              	.L122:
1484:./.driver/STM32F10x_StdPeriph_Driver/src/stm32f10x_flash.c ****     }
1485:./.driver/STM32F10x_StdPeriph_Driver/src/stm32f10x_flash.c ****     else 
1486:./.driver/STM32F10x_StdPeriph_Driver/src/stm32f10x_flash.c ****     {
1487:./.driver/STM32F10x_StdPeriph_Driver/src/stm32f10x_flash.c ****       if((FLASH->SR & FLASH_FLAG_WRPRTERR) != 0 )
 2043              		.loc 1 1487 16
 2044 002e 084B     		ldr	r3, .L125
 2045 0030 DB68     		ldr	r3, [r3, #12]
 2046              		.loc 1 1487 21
 2047 0032 03F01003 		and	r3, r3, #16
 2048              		.loc 1 1487 9
 2049 0036 002B     		cmp	r3, #0
 2050 0038 02D0     		beq	.L123
1488:./.driver/STM32F10x_StdPeriph_Driver/src/stm32f10x_flash.c ****       {
1489:./.driver/STM32F10x_StdPeriph_Driver/src/stm32f10x_flash.c ****         flashstatus = FLASH_ERROR_WRP;
 2051              		.loc 1 1489 21
 2052 003a 0323     		movs	r3, #3
 2053 003c FB71     		strb	r3, [r7, #7]
 2054 003e 01E0     		b	.L121
 2055              	.L123:
1490:./.driver/STM32F10x_StdPeriph_Driver/src/stm32f10x_flash.c ****       }
1491:./.driver/STM32F10x_StdPeriph_Driver/src/stm32f10x_flash.c ****       else
1492:./.driver/STM32F10x_StdPeriph_Driver/src/stm32f10x_flash.c ****       {
1493:./.driver/STM32F10x_StdPeriph_Driver/src/stm32f10x_flash.c ****         flashstatus = FLASH_COMPLETE;
 2056              		.loc 1 1493 21
 2057 0040 0423     		movs	r3, #4
 2058 0042 FB71     		strb	r3, [r7, #7]
 2059              	.L121:
1494:./.driver/STM32F10x_StdPeriph_Driver/src/stm32f10x_flash.c ****       }
1495:./.driver/STM32F10x_StdPeriph_Driver/src/stm32f10x_flash.c ****     }
1496:./.driver/STM32F10x_StdPeriph_Driver/src/stm32f10x_flash.c ****   }
1497:./.driver/STM32F10x_StdPeriph_Driver/src/stm32f10x_flash.c ****   /* Return the Flash Status */
1498:./.driver/STM32F10x_StdPeriph_Driver/src/stm32f10x_flash.c ****   return flashstatus;
 2060              		.loc 1 1498 10
 2061 0044 FB79     		ldrb	r3, [r7, #7]	@ zero_extendqisi2
1499:./.driver/STM32F10x_StdPeriph_Driver/src/stm32f10x_flash.c **** }
 2062              		.loc 1 1499 1
 2063 0046 1846     		mov	r0, r3
 2064 0048 0C37     		adds	r7, r7, #12
 2065              	.LCFI125:
 2066              		.cfi_def_cfa_offset 4
 2067 004a BD46     		mov	sp, r7
 2068              	.LCFI126:
 2069              		.cfi_def_cfa_register 13
 2070              		@ sp needed
 2071 004c 80BC     		pop	{r7}
 2072              	.LCFI127:
 2073              		.cfi_restore 7
 2074              		.cfi_def_cfa_offset 0
 2075 004e 7047     		bx	lr
 2076              	.L126:
 2077              		.align	2
 2078              	.L125:
 2079 0050 00200240 		.word	1073881088
 2080              		.cfi_endproc
 2081              	.LFE53:
ARM GAS  C:\Users\SAMEER~1.ALM\AppData\Local\Temp\ccT7Y8qk.s 			page 63


 2083              		.section	.text.FLASH_GetBank1Status,"ax",%progbits
 2084              		.align	1
 2085              		.global	FLASH_GetBank1Status
 2086              		.syntax unified
 2087              		.thumb
 2088              		.thumb_func
 2090              	FLASH_GetBank1Status:
 2091              	.LFB54:
1500:./.driver/STM32F10x_StdPeriph_Driver/src/stm32f10x_flash.c **** 
1501:./.driver/STM32F10x_StdPeriph_Driver/src/stm32f10x_flash.c **** /**
1502:./.driver/STM32F10x_StdPeriph_Driver/src/stm32f10x_flash.c ****   * @brief  Returns the FLASH Bank1 Status.
1503:./.driver/STM32F10x_StdPeriph_Driver/src/stm32f10x_flash.c ****   * @note   This function can be used for all STM32F10x devices, it is equivalent
1504:./.driver/STM32F10x_StdPeriph_Driver/src/stm32f10x_flash.c ****   *         to FLASH_GetStatus function.
1505:./.driver/STM32F10x_StdPeriph_Driver/src/stm32f10x_flash.c ****   * @param  None
1506:./.driver/STM32F10x_StdPeriph_Driver/src/stm32f10x_flash.c ****   * @retval FLASH Status: The returned value can be: FLASH_BUSY, FLASH_ERROR_PG,
1507:./.driver/STM32F10x_StdPeriph_Driver/src/stm32f10x_flash.c ****   *         FLASH_ERROR_WRP or FLASH_COMPLETE
1508:./.driver/STM32F10x_StdPeriph_Driver/src/stm32f10x_flash.c ****   */
1509:./.driver/STM32F10x_StdPeriph_Driver/src/stm32f10x_flash.c **** FLASH_Status FLASH_GetBank1Status(void)
1510:./.driver/STM32F10x_StdPeriph_Driver/src/stm32f10x_flash.c **** {
 2092              		.loc 1 1510 1
 2093              		.cfi_startproc
 2094              		@ args = 0, pretend = 0, frame = 8
 2095              		@ frame_needed = 1, uses_anonymous_args = 0
 2096              		@ link register save eliminated.
 2097 0000 80B4     		push	{r7}
 2098              	.LCFI128:
 2099              		.cfi_def_cfa_offset 4
 2100              		.cfi_offset 7, -4
 2101 0002 83B0     		sub	sp, sp, #12
 2102              	.LCFI129:
 2103              		.cfi_def_cfa_offset 16
 2104 0004 00AF     		add	r7, sp, #0
 2105              	.LCFI130:
 2106              		.cfi_def_cfa_register 7
1511:./.driver/STM32F10x_StdPeriph_Driver/src/stm32f10x_flash.c ****   FLASH_Status flashstatus = FLASH_COMPLETE;
 2107              		.loc 1 1511 16
 2108 0006 0423     		movs	r3, #4
 2109 0008 FB71     		strb	r3, [r7, #7]
1512:./.driver/STM32F10x_StdPeriph_Driver/src/stm32f10x_flash.c ****   
1513:./.driver/STM32F10x_StdPeriph_Driver/src/stm32f10x_flash.c ****   if((FLASH->SR & FLASH_FLAG_BANK1_BSY) == FLASH_FLAG_BSY) 
 2110              		.loc 1 1513 12
 2111 000a 114B     		ldr	r3, .L133
 2112 000c DB68     		ldr	r3, [r3, #12]
 2113              		.loc 1 1513 17
 2114 000e 03F00103 		and	r3, r3, #1
 2115              		.loc 1 1513 5
 2116 0012 012B     		cmp	r3, #1
 2117 0014 02D1     		bne	.L128
1514:./.driver/STM32F10x_StdPeriph_Driver/src/stm32f10x_flash.c ****   {
1515:./.driver/STM32F10x_StdPeriph_Driver/src/stm32f10x_flash.c ****     flashstatus = FLASH_BUSY;
 2118              		.loc 1 1515 17
 2119 0016 0123     		movs	r3, #1
 2120 0018 FB71     		strb	r3, [r7, #7]
 2121 001a 13E0     		b	.L129
 2122              	.L128:
1516:./.driver/STM32F10x_StdPeriph_Driver/src/stm32f10x_flash.c ****   }
1517:./.driver/STM32F10x_StdPeriph_Driver/src/stm32f10x_flash.c ****   else 
ARM GAS  C:\Users\SAMEER~1.ALM\AppData\Local\Temp\ccT7Y8qk.s 			page 64


1518:./.driver/STM32F10x_StdPeriph_Driver/src/stm32f10x_flash.c ****   {  
1519:./.driver/STM32F10x_StdPeriph_Driver/src/stm32f10x_flash.c ****     if((FLASH->SR & FLASH_FLAG_BANK1_PGERR) != 0)
 2123              		.loc 1 1519 14
 2124 001c 0C4B     		ldr	r3, .L133
 2125 001e DB68     		ldr	r3, [r3, #12]
 2126              		.loc 1 1519 19
 2127 0020 03F00403 		and	r3, r3, #4
 2128              		.loc 1 1519 7
 2129 0024 002B     		cmp	r3, #0
 2130 0026 02D0     		beq	.L130
1520:./.driver/STM32F10x_StdPeriph_Driver/src/stm32f10x_flash.c ****     { 
1521:./.driver/STM32F10x_StdPeriph_Driver/src/stm32f10x_flash.c ****       flashstatus = FLASH_ERROR_PG;
 2131              		.loc 1 1521 19
 2132 0028 0223     		movs	r3, #2
 2133 002a FB71     		strb	r3, [r7, #7]
 2134 002c 0AE0     		b	.L129
 2135              	.L130:
1522:./.driver/STM32F10x_StdPeriph_Driver/src/stm32f10x_flash.c ****     }
1523:./.driver/STM32F10x_StdPeriph_Driver/src/stm32f10x_flash.c ****     else 
1524:./.driver/STM32F10x_StdPeriph_Driver/src/stm32f10x_flash.c ****     {
1525:./.driver/STM32F10x_StdPeriph_Driver/src/stm32f10x_flash.c ****       if((FLASH->SR & FLASH_FLAG_BANK1_WRPRTERR) != 0 )
 2136              		.loc 1 1525 16
 2137 002e 084B     		ldr	r3, .L133
 2138 0030 DB68     		ldr	r3, [r3, #12]
 2139              		.loc 1 1525 21
 2140 0032 03F01003 		and	r3, r3, #16
 2141              		.loc 1 1525 9
 2142 0036 002B     		cmp	r3, #0
 2143 0038 02D0     		beq	.L131
1526:./.driver/STM32F10x_StdPeriph_Driver/src/stm32f10x_flash.c ****       {
1527:./.driver/STM32F10x_StdPeriph_Driver/src/stm32f10x_flash.c ****         flashstatus = FLASH_ERROR_WRP;
 2144              		.loc 1 1527 21
 2145 003a 0323     		movs	r3, #3
 2146 003c FB71     		strb	r3, [r7, #7]
 2147 003e 01E0     		b	.L129
 2148              	.L131:
1528:./.driver/STM32F10x_StdPeriph_Driver/src/stm32f10x_flash.c ****       }
1529:./.driver/STM32F10x_StdPeriph_Driver/src/stm32f10x_flash.c ****       else
1530:./.driver/STM32F10x_StdPeriph_Driver/src/stm32f10x_flash.c ****       {
1531:./.driver/STM32F10x_StdPeriph_Driver/src/stm32f10x_flash.c ****         flashstatus = FLASH_COMPLETE;
 2149              		.loc 1 1531 21
 2150 0040 0423     		movs	r3, #4
 2151 0042 FB71     		strb	r3, [r7, #7]
 2152              	.L129:
1532:./.driver/STM32F10x_StdPeriph_Driver/src/stm32f10x_flash.c ****       }
1533:./.driver/STM32F10x_StdPeriph_Driver/src/stm32f10x_flash.c ****     }
1534:./.driver/STM32F10x_StdPeriph_Driver/src/stm32f10x_flash.c ****   }
1535:./.driver/STM32F10x_StdPeriph_Driver/src/stm32f10x_flash.c ****   /* Return the Flash Status */
1536:./.driver/STM32F10x_StdPeriph_Driver/src/stm32f10x_flash.c ****   return flashstatus;
 2153              		.loc 1 1536 10
 2154 0044 FB79     		ldrb	r3, [r7, #7]	@ zero_extendqisi2
1537:./.driver/STM32F10x_StdPeriph_Driver/src/stm32f10x_flash.c **** }
 2155              		.loc 1 1537 1
 2156 0046 1846     		mov	r0, r3
 2157 0048 0C37     		adds	r7, r7, #12
 2158              	.LCFI131:
 2159              		.cfi_def_cfa_offset 4
ARM GAS  C:\Users\SAMEER~1.ALM\AppData\Local\Temp\ccT7Y8qk.s 			page 65


 2160 004a BD46     		mov	sp, r7
 2161              	.LCFI132:
 2162              		.cfi_def_cfa_register 13
 2163              		@ sp needed
 2164 004c 80BC     		pop	{r7}
 2165              	.LCFI133:
 2166              		.cfi_restore 7
 2167              		.cfi_def_cfa_offset 0
 2168 004e 7047     		bx	lr
 2169              	.L134:
 2170              		.align	2
 2171              	.L133:
 2172 0050 00200240 		.word	1073881088
 2173              		.cfi_endproc
 2174              	.LFE54:
 2176              		.section	.text.FLASH_WaitForLastOperation,"ax",%progbits
 2177              		.align	1
 2178              		.global	FLASH_WaitForLastOperation
 2179              		.syntax unified
 2180              		.thumb
 2181              		.thumb_func
 2183              	FLASH_WaitForLastOperation:
 2184              	.LFB55:
1538:./.driver/STM32F10x_StdPeriph_Driver/src/stm32f10x_flash.c **** 
1539:./.driver/STM32F10x_StdPeriph_Driver/src/stm32f10x_flash.c **** #ifdef STM32F10X_XL
1540:./.driver/STM32F10x_StdPeriph_Driver/src/stm32f10x_flash.c **** /**
1541:./.driver/STM32F10x_StdPeriph_Driver/src/stm32f10x_flash.c ****   * @brief  Returns the FLASH Bank2 Status.
1542:./.driver/STM32F10x_StdPeriph_Driver/src/stm32f10x_flash.c ****   * @note   This function can be used for STM32F10x_XL density devices.
1543:./.driver/STM32F10x_StdPeriph_Driver/src/stm32f10x_flash.c ****   * @param  None
1544:./.driver/STM32F10x_StdPeriph_Driver/src/stm32f10x_flash.c ****   * @retval FLASH Status: The returned value can be: FLASH_BUSY, FLASH_ERROR_PG,
1545:./.driver/STM32F10x_StdPeriph_Driver/src/stm32f10x_flash.c ****   *        FLASH_ERROR_WRP or FLASH_COMPLETE
1546:./.driver/STM32F10x_StdPeriph_Driver/src/stm32f10x_flash.c ****   */
1547:./.driver/STM32F10x_StdPeriph_Driver/src/stm32f10x_flash.c **** FLASH_Status FLASH_GetBank2Status(void)
1548:./.driver/STM32F10x_StdPeriph_Driver/src/stm32f10x_flash.c **** {
1549:./.driver/STM32F10x_StdPeriph_Driver/src/stm32f10x_flash.c ****   FLASH_Status flashstatus = FLASH_COMPLETE;
1550:./.driver/STM32F10x_StdPeriph_Driver/src/stm32f10x_flash.c ****   
1551:./.driver/STM32F10x_StdPeriph_Driver/src/stm32f10x_flash.c ****   if((FLASH->SR2 & (FLASH_FLAG_BANK2_BSY & 0x7FFFFFFF)) == (FLASH_FLAG_BANK2_BSY & 0x7FFFFFFF)) 
1552:./.driver/STM32F10x_StdPeriph_Driver/src/stm32f10x_flash.c ****   {
1553:./.driver/STM32F10x_StdPeriph_Driver/src/stm32f10x_flash.c ****     flashstatus = FLASH_BUSY;
1554:./.driver/STM32F10x_StdPeriph_Driver/src/stm32f10x_flash.c ****   }
1555:./.driver/STM32F10x_StdPeriph_Driver/src/stm32f10x_flash.c ****   else 
1556:./.driver/STM32F10x_StdPeriph_Driver/src/stm32f10x_flash.c ****   {  
1557:./.driver/STM32F10x_StdPeriph_Driver/src/stm32f10x_flash.c ****     if((FLASH->SR2 & (FLASH_FLAG_BANK2_PGERR & 0x7FFFFFFF)) != 0)
1558:./.driver/STM32F10x_StdPeriph_Driver/src/stm32f10x_flash.c ****     { 
1559:./.driver/STM32F10x_StdPeriph_Driver/src/stm32f10x_flash.c ****       flashstatus = FLASH_ERROR_PG;
1560:./.driver/STM32F10x_StdPeriph_Driver/src/stm32f10x_flash.c ****     }
1561:./.driver/STM32F10x_StdPeriph_Driver/src/stm32f10x_flash.c ****     else 
1562:./.driver/STM32F10x_StdPeriph_Driver/src/stm32f10x_flash.c ****     {
1563:./.driver/STM32F10x_StdPeriph_Driver/src/stm32f10x_flash.c ****       if((FLASH->SR2 & (FLASH_FLAG_BANK2_WRPRTERR & 0x7FFFFFFF)) != 0 )
1564:./.driver/STM32F10x_StdPeriph_Driver/src/stm32f10x_flash.c ****       {
1565:./.driver/STM32F10x_StdPeriph_Driver/src/stm32f10x_flash.c ****         flashstatus = FLASH_ERROR_WRP;
1566:./.driver/STM32F10x_StdPeriph_Driver/src/stm32f10x_flash.c ****       }
1567:./.driver/STM32F10x_StdPeriph_Driver/src/stm32f10x_flash.c ****       else
1568:./.driver/STM32F10x_StdPeriph_Driver/src/stm32f10x_flash.c ****       {
1569:./.driver/STM32F10x_StdPeriph_Driver/src/stm32f10x_flash.c ****         flashstatus = FLASH_COMPLETE;
1570:./.driver/STM32F10x_StdPeriph_Driver/src/stm32f10x_flash.c ****       }
1571:./.driver/STM32F10x_StdPeriph_Driver/src/stm32f10x_flash.c ****     }
ARM GAS  C:\Users\SAMEER~1.ALM\AppData\Local\Temp\ccT7Y8qk.s 			page 66


1572:./.driver/STM32F10x_StdPeriph_Driver/src/stm32f10x_flash.c ****   }
1573:./.driver/STM32F10x_StdPeriph_Driver/src/stm32f10x_flash.c ****   /* Return the Flash Status */
1574:./.driver/STM32F10x_StdPeriph_Driver/src/stm32f10x_flash.c ****   return flashstatus;
1575:./.driver/STM32F10x_StdPeriph_Driver/src/stm32f10x_flash.c **** }
1576:./.driver/STM32F10x_StdPeriph_Driver/src/stm32f10x_flash.c **** #endif /* STM32F10X_XL */
1577:./.driver/STM32F10x_StdPeriph_Driver/src/stm32f10x_flash.c **** /**
1578:./.driver/STM32F10x_StdPeriph_Driver/src/stm32f10x_flash.c ****   * @brief  Waits for a Flash operation to complete or a TIMEOUT to occur.
1579:./.driver/STM32F10x_StdPeriph_Driver/src/stm32f10x_flash.c ****   * @note   This function can be used for all STM32F10x devices, 
1580:./.driver/STM32F10x_StdPeriph_Driver/src/stm32f10x_flash.c ****   *         it is equivalent to FLASH_WaitForLastBank1Operation.
1581:./.driver/STM32F10x_StdPeriph_Driver/src/stm32f10x_flash.c ****   *         - For STM32F10X_XL devices this function waits for a Bank1 Flash operation
1582:./.driver/STM32F10x_StdPeriph_Driver/src/stm32f10x_flash.c ****   *           to complete or a TIMEOUT to occur.
1583:./.driver/STM32F10x_StdPeriph_Driver/src/stm32f10x_flash.c ****   *         - For all other devices it waits for a Flash operation to complete 
1584:./.driver/STM32F10x_StdPeriph_Driver/src/stm32f10x_flash.c ****   *           or a TIMEOUT to occur.
1585:./.driver/STM32F10x_StdPeriph_Driver/src/stm32f10x_flash.c ****   * @param  Timeout: FLASH programming Timeout
1586:./.driver/STM32F10x_StdPeriph_Driver/src/stm32f10x_flash.c ****   * @retval FLASH Status: The returned value can be: FLASH_ERROR_PG,
1587:./.driver/STM32F10x_StdPeriph_Driver/src/stm32f10x_flash.c ****   *         FLASH_ERROR_WRP, FLASH_COMPLETE or FLASH_TIMEOUT.
1588:./.driver/STM32F10x_StdPeriph_Driver/src/stm32f10x_flash.c ****   */
1589:./.driver/STM32F10x_StdPeriph_Driver/src/stm32f10x_flash.c **** FLASH_Status FLASH_WaitForLastOperation(uint32_t Timeout)
1590:./.driver/STM32F10x_StdPeriph_Driver/src/stm32f10x_flash.c **** { 
 2185              		.loc 1 1590 1
 2186              		.cfi_startproc
 2187              		@ args = 0, pretend = 0, frame = 16
 2188              		@ frame_needed = 1, uses_anonymous_args = 0
 2189 0000 80B5     		push	{r7, lr}
 2190              	.LCFI134:
 2191              		.cfi_def_cfa_offset 8
 2192              		.cfi_offset 7, -8
 2193              		.cfi_offset 14, -4
 2194 0002 84B0     		sub	sp, sp, #16
 2195              	.LCFI135:
 2196              		.cfi_def_cfa_offset 24
 2197 0004 00AF     		add	r7, sp, #0
 2198              	.LCFI136:
 2199              		.cfi_def_cfa_register 7
 2200 0006 7860     		str	r0, [r7, #4]
1591:./.driver/STM32F10x_StdPeriph_Driver/src/stm32f10x_flash.c ****   FLASH_Status status = FLASH_COMPLETE;
 2201              		.loc 1 1591 16
 2202 0008 0423     		movs	r3, #4
 2203 000a FB73     		strb	r3, [r7, #15]
1592:./.driver/STM32F10x_StdPeriph_Driver/src/stm32f10x_flash.c ****    
1593:./.driver/STM32F10x_StdPeriph_Driver/src/stm32f10x_flash.c ****   /* Check for the Flash Status */
1594:./.driver/STM32F10x_StdPeriph_Driver/src/stm32f10x_flash.c ****   status = FLASH_GetBank1Status();
 2204              		.loc 1 1594 12
 2205 000c FFF7FEFF 		bl	FLASH_GetBank1Status
 2206 0010 0346     		mov	r3, r0
 2207 0012 FB73     		strb	r3, [r7, #15]
1595:./.driver/STM32F10x_StdPeriph_Driver/src/stm32f10x_flash.c ****   /* Wait for a Flash operation to complete or a TIMEOUT to occur */
