ARM GAS  C:\Users\SAMEER~1.ALM\AppData\Local\Temp\ccfCdVir.s 			page 1


   1              		.cpu cortex-m3
   2              		.arch armv7-m
   3              		.fpu softvfp
   4              		.eabi_attribute 20, 1
   5              		.eabi_attribute 21, 1
   6              		.eabi_attribute 23, 3
   7              		.eabi_attribute 24, 1
   8              		.eabi_attribute 25, 1
   9              		.eabi_attribute 26, 1
  10              		.eabi_attribute 30, 6
  11              		.eabi_attribute 34, 1
  12              		.eabi_attribute 18, 4
  13              		.file	"structs.c"
  14              		.text
  15              	.Ltext0:
  16              		.cfi_sections	.debug_frame
  17              		.section	.text.clc_sum_16bit,"ax",%progbits
  18              		.align	1
  19              		.global	clc_sum_16bit
  20              		.syntax unified
  21              		.thumb
  22              		.thumb_func
  24              	clc_sum_16bit:
  25              	.LFB33:
  26              		.file 1 "./basic/structs.c"
   1:./basic/structs.c **** /**
   2:./basic/structs.c ****  * @brief structs.c
   3:./basic/structs.c ****  *
   4:./basic/structs.c ****  * @param student: Sameer Almaldein
   5:./basic/structs.c ****  * @param ID: 679699
   6:./basic/structs.c ****  * @param University TU-Chemnitz
   7:./basic/structs.c ****  * @param Master : ASE(Automotive Software Engineering )
   8:./basic/structs.c ****  */ 
   9:./basic/structs.c ****  
  10:./basic/structs.c ****  //********************************************************************************************
  11:./basic/structs.c **** //
  12:./basic/structs.c **** //   header files
  13:./basic/structs.c **** //
  14:./basic/structs.c **** //********************************************************************************************
  15:./basic/structs.c **** #include "init.h"
  16:./basic/structs.c **** 
  17:./basic/structs.c **** //********************************************************************************************
  18:./basic/structs.c **** //
  19:./basic/structs.c **** //   global variables
  20:./basic/structs.c **** //
  21:./basic/structs.c **** //********************************************************************************************
  22:./basic/structs.c **** 
  23:./basic/structs.c **** //********************************************************************************************
  24:./basic/structs.c **** //
  25:./basic/structs.c **** //  average Methods' definitions
  26:./basic/structs.c **** //
  27:./basic/structs.c **** //********************************************************************************************
  28:./basic/structs.c **** /**
  29:./basic/structs.c ****  * @brief calculates the sum of array of 16bit 
  30:./basic/structs.c ****  * @details this method the sum of an array of words 
  31:./basic/structs.c ****  *           which it is used in handling aquired data from adc
  32:./basic/structs.c ****  * @param ptmp pointer to the array of words
ARM GAS  C:\Users\SAMEER~1.ALM\AppData\Local\Temp\ccfCdVir.s 			page 2


  33:./basic/structs.c ****  * @param len  length of the array
  34:./basic/structs.c ****  * @return uint16_t 
  35:./basic/structs.c ****  */
  36:./basic/structs.c **** uint16_t clc_sum_16bit(uint16_t * ptmp,uint8_t len)
  37:./basic/structs.c **** {
  27              		.loc 1 37 1
  28              		.cfi_startproc
  29              		@ args = 0, pretend = 0, frame = 16
  30              		@ frame_needed = 1, uses_anonymous_args = 0
  31              		@ link register save eliminated.
  32 0000 80B4     		push	{r7}
  33              	.LCFI0:
  34              		.cfi_def_cfa_offset 4
  35              		.cfi_offset 7, -4
  36 0002 85B0     		sub	sp, sp, #20
  37              	.LCFI1:
  38              		.cfi_def_cfa_offset 24
  39 0004 00AF     		add	r7, sp, #0
  40              	.LCFI2:
  41              		.cfi_def_cfa_register 7
  42 0006 7860     		str	r0, [r7, #4]
  43 0008 0B46     		mov	r3, r1
  44 000a FB70     		strb	r3, [r7, #3]
  38:./basic/structs.c **** 	uint16_t sum=0;
  45              		.loc 1 38 11
  46 000c 0023     		movs	r3, #0
  47 000e FB81     		strh	r3, [r7, #14]	@ movhi
  39:./basic/structs.c **** 	uint8_t i=0;
  48              		.loc 1 39 10
  49 0010 0023     		movs	r3, #0
  50 0012 7B73     		strb	r3, [r7, #13]
  40:./basic/structs.c **** 	for(i=0;i<len;i++)
  51              		.loc 1 40 7
  52 0014 0023     		movs	r3, #0
  53 0016 7B73     		strb	r3, [r7, #13]
  54              		.loc 1 40 2
  55 0018 0AE0     		b	.L2
  56              	.L3:
  41:./basic/structs.c **** 	sum+=ptmp[i];
  57              		.loc 1 41 11 discriminator 3
  58 001a 7B7B     		ldrb	r3, [r7, #13]	@ zero_extendqisi2
  59 001c 5B00     		lsls	r3, r3, #1
  60 001e 7A68     		ldr	r2, [r7, #4]
  61 0020 1344     		add	r3, r3, r2
  62 0022 1A88     		ldrh	r2, [r3]
  63              		.loc 1 41 5 discriminator 3
  64 0024 FB89     		ldrh	r3, [r7, #14]	@ movhi
  65 0026 1344     		add	r3, r3, r2
  66 0028 FB81     		strh	r3, [r7, #14]	@ movhi
  40:./basic/structs.c **** 	for(i=0;i<len;i++)
  67              		.loc 1 40 17 discriminator 3
  68 002a 7B7B     		ldrb	r3, [r7, #13]	@ zero_extendqisi2
  69 002c 0133     		adds	r3, r3, #1
  70 002e 7B73     		strb	r3, [r7, #13]
  71              	.L2:
  40:./basic/structs.c **** 	for(i=0;i<len;i++)
  72              		.loc 1 40 2 discriminator 1
ARM GAS  C:\Users\SAMEER~1.ALM\AppData\Local\Temp\ccfCdVir.s 			page 3


  73 0030 7A7B     		ldrb	r2, [r7, #13]	@ zero_extendqisi2
  74 0032 FB78     		ldrb	r3, [r7, #3]	@ zero_extendqisi2
  75 0034 9A42     		cmp	r2, r3
  76 0036 F0D3     		bcc	.L3
  42:./basic/structs.c **** 	return sum;
  77              		.loc 1 42 9
  78 0038 FB89     		ldrh	r3, [r7, #14]
  43:./basic/structs.c **** }
  79              		.loc 1 43 1
  80 003a 1846     		mov	r0, r3
  81 003c 1437     		adds	r7, r7, #20
  82              	.LCFI3:
  83              		.cfi_def_cfa_offset 4
  84 003e BD46     		mov	sp, r7
  85              	.LCFI4:
  86              		.cfi_def_cfa_register 13
  87              		@ sp needed
  88 0040 80BC     		pop	{r7}
  89              	.LCFI5:
  90              		.cfi_restore 7
  91              		.cfi_def_cfa_offset 0
  92 0042 7047     		bx	lr
  93              		.cfi_endproc
  94              	.LFE33:
  96              		.section	.text.clc_avg_16bit,"ax",%progbits
  97              		.align	1
  98              		.global	clc_avg_16bit
  99              		.syntax unified
 100              		.thumb
 101              		.thumb_func
 103              	clc_avg_16bit:
 104              	.LFB34:
  44:./basic/structs.c **** //--------------------------------------------------------------------------------------------
  45:./basic/structs.c **** /**
  46:./basic/structs.c ****  * @brief   calculates the average  of an array of words
  47:./basic/structs.c ****  * @details this method returns the average of an array of words 
  48:./basic/structs.c ****  *           which is very useful in get the average result for 
  49:./basic/structs.c ****  * 			 a set of aquired data from adc
  50:./basic/structs.c ****  * @param ptmp pointer to the array of words
  51:./basic/structs.c ****  * @param len  length of the array
  52:./basic/structs.c ****  * @return uint16_t 
  53:./basic/structs.c ****  */
  54:./basic/structs.c **** uint16_t clc_avg_16bit(uint16_t * ptmp,uint8_t len)
  55:./basic/structs.c **** {
 105              		.loc 1 55 1
 106              		.cfi_startproc
 107              		@ args = 0, pretend = 0, frame = 16
 108              		@ frame_needed = 1, uses_anonymous_args = 0
 109              		@ link register save eliminated.
 110 0000 80B4     		push	{r7}
 111              	.LCFI6:
 112              		.cfi_def_cfa_offset 4
 113              		.cfi_offset 7, -4
 114 0002 85B0     		sub	sp, sp, #20
 115              	.LCFI7:
 116              		.cfi_def_cfa_offset 24
 117 0004 00AF     		add	r7, sp, #0
ARM GAS  C:\Users\SAMEER~1.ALM\AppData\Local\Temp\ccfCdVir.s 			page 4


 118              	.LCFI8:
 119              		.cfi_def_cfa_register 7
 120 0006 7860     		str	r0, [r7, #4]
 121 0008 0B46     		mov	r3, r1
 122 000a FB70     		strb	r3, [r7, #3]
  56:./basic/structs.c **** 	uint32_t sum=0;
 123              		.loc 1 56 11
 124 000c 0023     		movs	r3, #0
 125 000e FB60     		str	r3, [r7, #12]
  57:./basic/structs.c **** 	uint8_t i=0;
 126              		.loc 1 57 10
 127 0010 0023     		movs	r3, #0
 128 0012 FB72     		strb	r3, [r7, #11]
  58:./basic/structs.c **** 	for(i=0;i<len;i++)
 129              		.loc 1 58 7
 130 0014 0023     		movs	r3, #0
 131 0016 FB72     		strb	r3, [r7, #11]
 132              		.loc 1 58 2
 133 0018 0BE0     		b	.L6
 134              	.L7:
  59:./basic/structs.c **** 	sum+=ptmp[i];	
 135              		.loc 1 59 11 discriminator 3
 136 001a FB7A     		ldrb	r3, [r7, #11]	@ zero_extendqisi2
 137 001c 5B00     		lsls	r3, r3, #1
 138 001e 7A68     		ldr	r2, [r7, #4]
 139 0020 1344     		add	r3, r3, r2
 140 0022 1B88     		ldrh	r3, [r3]
 141 0024 1A46     		mov	r2, r3
 142              		.loc 1 59 5 discriminator 3
 143 0026 FB68     		ldr	r3, [r7, #12]
 144 0028 1344     		add	r3, r3, r2
 145 002a FB60     		str	r3, [r7, #12]
  58:./basic/structs.c **** 	for(i=0;i<len;i++)
 146              		.loc 1 58 17 discriminator 3
 147 002c FB7A     		ldrb	r3, [r7, #11]	@ zero_extendqisi2
 148 002e 0133     		adds	r3, r3, #1
 149 0030 FB72     		strb	r3, [r7, #11]
 150              	.L6:
  58:./basic/structs.c **** 	for(i=0;i<len;i++)
 151              		.loc 1 58 2 discriminator 1
 152 0032 FA7A     		ldrb	r2, [r7, #11]	@ zero_extendqisi2
 153 0034 FB78     		ldrb	r3, [r7, #3]	@ zero_extendqisi2
 154 0036 9A42     		cmp	r2, r3
 155 0038 EFD3     		bcc	.L7
  60:./basic/structs.c **** 	return sum/len;
 156              		.loc 1 60 12
 157 003a FB78     		ldrb	r3, [r7, #3]	@ zero_extendqisi2
 158 003c FA68     		ldr	r2, [r7, #12]
 159 003e B2FBF3F3 		udiv	r3, r2, r3
 160 0042 9BB2     		uxth	r3, r3
  61:./basic/structs.c **** }
 161              		.loc 1 61 1
 162 0044 1846     		mov	r0, r3
 163 0046 1437     		adds	r7, r7, #20
 164              	.LCFI9:
 165              		.cfi_def_cfa_offset 4
 166 0048 BD46     		mov	sp, r7
ARM GAS  C:\Users\SAMEER~1.ALM\AppData\Local\Temp\ccfCdVir.s 			page 5


 167              	.LCFI10:
 168              		.cfi_def_cfa_register 13
 169              		@ sp needed
 170 004a 80BC     		pop	{r7}
 171              	.LCFI11:
 172              		.cfi_restore 7
 173              		.cfi_def_cfa_offset 0
 174 004c 7047     		bx	lr
 175              		.cfi_endproc
 176              	.LFE34:
 178              		.section	.text.clc_avg_32bit,"ax",%progbits
 179              		.align	1
 180              		.global	clc_avg_32bit
 181              		.syntax unified
 182              		.thumb
 183              		.thumb_func
 185              	clc_avg_32bit:
 186              	.LFB35:
  62:./basic/structs.c **** //---------------------------------------------------------------------------------------------
  63:./basic/structs.c **** /**
  64:./basic/structs.c ****  * @brief   calculates the average  of an array of double words
  65:./basic/structs.c ****  * @details this method returns the average of an array of words 
  66:./basic/structs.c ****  * @param ptmp pointer to the array of words
  67:./basic/structs.c ****  * @param len  length of the array
  68:./basic/structs.c ****  * @return uint32_t 
  69:./basic/structs.c ****  */
  70:./basic/structs.c **** uint32_t clc_avg_32bit(uint32_t * ptmp,uint8_t len)
  71:./basic/structs.c **** {
 187              		.loc 1 71 1
 188              		.cfi_startproc
 189              		@ args = 0, pretend = 0, frame = 16
 190              		@ frame_needed = 1, uses_anonymous_args = 0
 191              		@ link register save eliminated.
 192 0000 80B4     		push	{r7}
 193              	.LCFI12:
 194              		.cfi_def_cfa_offset 4
 195              		.cfi_offset 7, -4
 196 0002 85B0     		sub	sp, sp, #20
 197              	.LCFI13:
 198              		.cfi_def_cfa_offset 24
 199 0004 00AF     		add	r7, sp, #0
 200              	.LCFI14:
 201              		.cfi_def_cfa_register 7
 202 0006 7860     		str	r0, [r7, #4]
 203 0008 0B46     		mov	r3, r1
 204 000a FB70     		strb	r3, [r7, #3]
  72:./basic/structs.c **** 	uint32_t sum=0;
 205              		.loc 1 72 11
 206 000c 0023     		movs	r3, #0
 207 000e FB60     		str	r3, [r7, #12]
  73:./basic/structs.c **** 	uint8_t i=0;
 208              		.loc 1 73 10
 209 0010 0023     		movs	r3, #0
 210 0012 FB72     		strb	r3, [r7, #11]
  74:./basic/structs.c **** 	for(i=0;i<len;i++)
 211              		.loc 1 74 7
 212 0014 0023     		movs	r3, #0
ARM GAS  C:\Users\SAMEER~1.ALM\AppData\Local\Temp\ccfCdVir.s 			page 6


 213 0016 FB72     		strb	r3, [r7, #11]
 214              		.loc 1 74 2
 215 0018 0AE0     		b	.L10
 216              	.L11:
  75:./basic/structs.c **** 	sum+=ptmp[i];	
 217              		.loc 1 75 11 discriminator 3
 218 001a FB7A     		ldrb	r3, [r7, #11]	@ zero_extendqisi2
 219 001c 9B00     		lsls	r3, r3, #2
 220 001e 7A68     		ldr	r2, [r7, #4]
 221 0020 1344     		add	r3, r3, r2
 222 0022 1B68     		ldr	r3, [r3]
 223              		.loc 1 75 5 discriminator 3
 224 0024 FA68     		ldr	r2, [r7, #12]
 225 0026 1344     		add	r3, r3, r2
 226 0028 FB60     		str	r3, [r7, #12]
  74:./basic/structs.c **** 	for(i=0;i<len;i++)
 227              		.loc 1 74 17 discriminator 3
 228 002a FB7A     		ldrb	r3, [r7, #11]	@ zero_extendqisi2
 229 002c 0133     		adds	r3, r3, #1
 230 002e FB72     		strb	r3, [r7, #11]
 231              	.L10:
  74:./basic/structs.c **** 	for(i=0;i<len;i++)
 232              		.loc 1 74 2 discriminator 1
 233 0030 FA7A     		ldrb	r2, [r7, #11]	@ zero_extendqisi2
 234 0032 FB78     		ldrb	r3, [r7, #3]	@ zero_extendqisi2
 235 0034 9A42     		cmp	r2, r3
 236 0036 F0D3     		bcc	.L11
  76:./basic/structs.c **** 	return sum/len;
 237              		.loc 1 76 12
 238 0038 FB78     		ldrb	r3, [r7, #3]	@ zero_extendqisi2
 239 003a FA68     		ldr	r2, [r7, #12]
 240 003c B2FBF3F3 		udiv	r3, r2, r3
  77:./basic/structs.c **** }
 241              		.loc 1 77 1
 242 0040 1846     		mov	r0, r3
 243 0042 1437     		adds	r7, r7, #20
 244              	.LCFI15:
 245              		.cfi_def_cfa_offset 4
 246 0044 BD46     		mov	sp, r7
 247              	.LCFI16:
 248              		.cfi_def_cfa_register 13
 249              		@ sp needed
 250 0046 80BC     		pop	{r7}
 251              	.LCFI17:
 252              		.cfi_restore 7
 253              		.cfi_def_cfa_offset 0
 254 0048 7047     		bx	lr
 255              		.cfi_endproc
 256              	.LFE35:
 258              		.section	.text.avg_real,"ax",%progbits
 259              		.align	1
 260              		.global	avg_real
 261              		.syntax unified
 262              		.thumb
 263              		.thumb_func
 265              	avg_real:
 266              	.LFB36:
ARM GAS  C:\Users\SAMEER~1.ALM\AppData\Local\Temp\ccfCdVir.s 			page 7


  78:./basic/structs.c **** //-------------------------------------------------------------------------------------------------
  79:./basic/structs.c **** //********************************************************************************************
  80:./basic/structs.c **** //
  81:./basic/structs.c **** //  real Methods' definitions
  82:./basic/structs.c **** //  this special methods allow to deal directly with real_t instead of using float
  83:./basic/structs.c **** //  suitable solution for low-performance old avr microcontrollers
  84:./basic/structs.c **** //
  85:./basic/structs.c **** //********************************************************************************************
  86:./basic/structs.c **** /**
  87:./basic/structs.c ****  * @brief    calculates the average of two real numbers
  88:./basic/structs.c ****  * @details  this method allow to get the average of two real_t numbers instead of using float type
  89:./basic/structs.c ****  * 			 more convenient solution for low-performance old avr microcontrollers
  90:./basic/structs.c ****  * @param a  first real number
  91:./basic/structs.c ****  * @param b  second real number 
  92:./basic/structs.c ****  * @return real_t 
  93:./basic/structs.c ****  */
  94:./basic/structs.c **** real_t avg_real(real_t a,real_t b)
  95:./basic/structs.c **** {	
 267              		.loc 1 95 1
 268              		.cfi_startproc
 269              		@ args = 12, pretend = 8, frame = 32
 270              		@ frame_needed = 1, uses_anonymous_args = 0
 271              		@ link register save eliminated.
 272 0000 82B0     		sub	sp, sp, #8
 273              	.LCFI18:
 274              		.cfi_def_cfa_offset 8
 275 0002 80B4     		push	{r7}
 276              	.LCFI19:
 277              		.cfi_def_cfa_offset 12
 278              		.cfi_offset 7, -12
 279 0004 89B0     		sub	sp, sp, #36
 280              	.LCFI20:
 281              		.cfi_def_cfa_offset 48
 282 0006 00AF     		add	r7, sp, #0
 283              	.LCFI21:
 284              		.cfi_def_cfa_register 7
 285 0008 F860     		str	r0, [r7, #12]
 286 000a 381D     		adds	r0, r7, #4
 287 000c 80E80600 		stm	r0, {r1, r2}
 288 0010 FB62     		str	r3, [r7, #44]
  96:./basic/structs.c **** 	real_t c;
  97:./basic/structs.c **** 	int16_t d1=0,d2=0,d3=0;
 289              		.loc 1 97 10
 290 0012 0023     		movs	r3, #0
 291 0014 BB83     		strh	r3, [r7, #28]	@ movhi
 292              		.loc 1 97 15
 293 0016 0023     		movs	r3, #0
 294 0018 7B83     		strh	r3, [r7, #26]	@ movhi
 295              		.loc 1 97 20
 296 001a 0023     		movs	r3, #0
 297 001c FB83     		strh	r3, [r7, #30]	@ movhi
  98:./basic/structs.c **** 	c.val=0;
 298              		.loc 1 98 7
 299 001e 0023     		movs	r3, #0
 300 0020 3B61     		str	r3, [r7, #16]
  99:./basic/structs.c **** 	d1=a.integer*10+a.decimal;
 301              		.loc 1 99 6
ARM GAS  C:\Users\SAMEER~1.ALM\AppData\Local\Temp\ccfCdVir.s 			page 8


 302 0022 FB88     		ldrh	r3, [r7, #6]
 303              		.loc 1 99 17
 304 0024 1A46     		mov	r2, r3	@ movhi
 305 0026 9200     		lsls	r2, r2, #2
 306 0028 1344     		add	r3, r3, r2
 307 002a 5B00     		lsls	r3, r3, #1
 308 002c 9AB2     		uxth	r2, r3
 309              		.loc 1 99 19
 310 002e 3B79     		ldrb	r3, [r7, #4]	@ zero_extendqisi2
 311 0030 9BB2     		uxth	r3, r3
 312              		.loc 1 99 17
 313 0032 1344     		add	r3, r3, r2
 314 0034 9BB2     		uxth	r3, r3
 315              		.loc 1 99 4
 316 0036 BB83     		strh	r3, [r7, #28]	@ movhi
 100:./basic/structs.c **** 	d2=b.integer*10+b.decimal;
 317              		.loc 1 100 6
 318 0038 FB8D     		ldrh	r3, [r7, #46]
 319              		.loc 1 100 17
 320 003a 1A46     		mov	r2, r3	@ movhi
 321 003c 9200     		lsls	r2, r2, #2
 322 003e 1344     		add	r3, r3, r2
 323 0040 5B00     		lsls	r3, r3, #1
 324 0042 9AB2     		uxth	r2, r3
 325              		.loc 1 100 19
 326 0044 97F82C30 		ldrb	r3, [r7, #44]	@ zero_extendqisi2
 327 0048 9BB2     		uxth	r3, r3
 328              		.loc 1 100 17
 329 004a 1344     		add	r3, r3, r2
 330 004c 9BB2     		uxth	r3, r3
 331              		.loc 1 100 4
 332 004e 7B83     		strh	r3, [r7, #26]	@ movhi
 101:./basic/structs.c **** 	d1=(a.sig==1)?-d1:d1;
 333              		.loc 1 101 7
 334 0050 3B7A     		ldrb	r3, [r7, #8]	@ zero_extendqisi2
 335              		.loc 1 101 4
 336 0052 012B     		cmp	r3, #1
 337 0054 04D1     		bne	.L14
 338              		.loc 1 101 4 is_stmt 0 discriminator 1
 339 0056 BB8B     		ldrh	r3, [r7, #28]
 340 0058 5B42     		rsbs	r3, r3, #0
 341 005a 9BB2     		uxth	r3, r3
 342 005c 1BB2     		sxth	r3, r3
 343 005e 01E0     		b	.L15
 344              	.L14:
 345              		.loc 1 101 4 discriminator 2
 346 0060 B7F91C30 		ldrsh	r3, [r7, #28]
 347              	.L15:
 348              		.loc 1 101 4 discriminator 4
 349 0064 BB83     		strh	r3, [r7, #28]	@ movhi
 102:./basic/structs.c **** 	d2=(b.sig==1)?-d2:d2;
 350              		.loc 1 102 7 is_stmt 1 discriminator 4
 351 0066 97F83030 		ldrb	r3, [r7, #48]	@ zero_extendqisi2
 352              		.loc 1 102 4 discriminator 4
 353 006a 012B     		cmp	r3, #1
 354 006c 04D1     		bne	.L16
 355              		.loc 1 102 4 is_stmt 0 discriminator 1
ARM GAS  C:\Users\SAMEER~1.ALM\AppData\Local\Temp\ccfCdVir.s 			page 9


 356 006e 7B8B     		ldrh	r3, [r7, #26]
 357 0070 5B42     		rsbs	r3, r3, #0
 358 0072 9BB2     		uxth	r3, r3
 359 0074 1BB2     		sxth	r3, r3
 360 0076 01E0     		b	.L17
 361              	.L16:
 362              		.loc 1 102 4 discriminator 2
 363 0078 B7F91A30 		ldrsh	r3, [r7, #26]
 364              	.L17:
 365              		.loc 1 102 4 discriminator 4
 366 007c 7B83     		strh	r3, [r7, #26]	@ movhi
 103:./basic/structs.c **** 	d3=d1+d2;
 367              		.loc 1 103 7 is_stmt 1 discriminator 4
 368 007e BA8B     		ldrh	r2, [r7, #28]
 369 0080 7B8B     		ldrh	r3, [r7, #26]
 370 0082 1344     		add	r3, r3, r2
 371 0084 9BB2     		uxth	r3, r3
 372              		.loc 1 103 4 discriminator 4
 373 0086 FB83     		strh	r3, [r7, #30]	@ movhi
 104:./basic/structs.c **** 	c.sig=0;
 374              		.loc 1 104 7 discriminator 4
 375 0088 0023     		movs	r3, #0
 376 008a 3B75     		strb	r3, [r7, #20]
 105:./basic/structs.c **** 	if(d3<0)
 377              		.loc 1 105 4 discriminator 4
 378 008c B7F91E30 		ldrsh	r3, [r7, #30]
 379 0090 002B     		cmp	r3, #0
 380 0092 05DA     		bge	.L18
 106:./basic/structs.c **** 	{
 107:./basic/structs.c **** 	 c.sig=1;
 381              		.loc 1 107 8
 382 0094 0123     		movs	r3, #1
 383 0096 3B75     		strb	r3, [r7, #20]
 108:./basic/structs.c **** 	 d3*=-1;
 384              		.loc 1 108 5
 385 0098 FB8B     		ldrh	r3, [r7, #30]
 386 009a 5B42     		rsbs	r3, r3, #0
 387 009c 9BB2     		uxth	r3, r3
 388 009e FB83     		strh	r3, [r7, #30]	@ movhi
 389              	.L18:
 109:./basic/structs.c **** 	}
 110:./basic/structs.c **** 	c.integer=d3/20;
 390              		.loc 1 110 11
 391 00a0 B7F91E30 		ldrsh	r3, [r7, #30]
 392 00a4 124A     		ldr	r2, .L20
 393 00a6 82FB0312 		smull	r1, r2, r2, r3
 394 00aa D210     		asrs	r2, r2, #3
 395 00ac DB17     		asrs	r3, r3, #31
 396 00ae D31A     		subs	r3, r2, r3
 397 00b0 1BB2     		sxth	r3, r3
 398 00b2 9BB2     		uxth	r3, r3
 399 00b4 7B82     		strh	r3, [r7, #18]	@ movhi
 111:./basic/structs.c **** 	c.decimal=(d3-c.integer*20)/2;
 400              		.loc 1 111 15
 401 00b6 B7F91E20 		ldrsh	r2, [r7, #30]
 402              		.loc 1 111 17
 403 00ba 7B8A     		ldrh	r3, [r7, #18]
ARM GAS  C:\Users\SAMEER~1.ALM\AppData\Local\Temp\ccfCdVir.s 			page 10


 404 00bc 1946     		mov	r1, r3
 405              		.loc 1 111 25
 406 00be 6FF01303 		mvn	r3, #19
 407 00c2 01FB03F3 		mul	r3, r1, r3
 408              		.loc 1 111 15
 409 00c6 1344     		add	r3, r3, r2
 410              		.loc 1 111 29
 411 00c8 DA0F     		lsrs	r2, r3, #31
 412 00ca 1344     		add	r3, r3, r2
 413 00cc 5B10     		asrs	r3, r3, #1
 414              		.loc 1 111 11
 415 00ce DBB2     		uxtb	r3, r3
 416 00d0 3B74     		strb	r3, [r7, #16]
 112:./basic/structs.c ****    return c;
 417              		.loc 1 112 11
 418 00d2 FB68     		ldr	r3, [r7, #12]
 419 00d4 1A46     		mov	r2, r3
 420 00d6 07F11003 		add	r3, r7, #16
 421 00da 93E80300 		ldm	r3, {r0, r1}
 422 00de 82E80300 		stm	r2, {r0, r1}
 113:./basic/structs.c **** }
 423              		.loc 1 113 1
 424 00e2 F868     		ldr	r0, [r7, #12]
 425 00e4 2437     		adds	r7, r7, #36
 426              	.LCFI22:
 427              		.cfi_def_cfa_offset 12
 428 00e6 BD46     		mov	sp, r7
 429              	.LCFI23:
 430              		.cfi_def_cfa_register 13
 431              		@ sp needed
 432 00e8 80BC     		pop	{r7}
 433              	.LCFI24:
 434              		.cfi_restore 7
 435              		.cfi_def_cfa_offset 8
 436 00ea 02B0     		add	sp, sp, #8
 437              	.LCFI25:
 438              		.cfi_def_cfa_offset 0
 439 00ec 7047     		bx	lr
 440              	.L21:
 441 00ee 00BF     		.align	2
 442              	.L20:
 443 00f0 67666666 		.word	1717986919
 444              		.cfi_endproc
 445              	.LFE36:
 447              		.section	.text.cmp_real,"ax",%progbits
 448              		.align	1
 449              		.global	cmp_real
 450              		.syntax unified
 451              		.thumb
 452              		.thumb_func
 454              	cmp_real:
 455              	.LFB37:
 114:./basic/structs.c **** //-------------------------------------------------------------------------------------------------
 115:./basic/structs.c **** /**
 116:./basic/structs.c ****  * @brief  compares between two real numbers
 117:./basic/structs.c ****  * @details this method allow to compare two real_t numbers instead of using float type
 118:./basic/structs.c ****  * 			 more convenient solution for low-performance old avr microcontrollers  			 
ARM GAS  C:\Users\SAMEER~1.ALM\AppData\Local\Temp\ccfCdVir.s 			page 11


 119:./basic/structs.c ****  * @param  a  first real number
 120:./basic/structs.c ****  * @param  b  second real number
 121:./basic/structs.c ****  * @retval 0  a == b 
 122:./basic/structs.c ****  * @retval 1  a >  b 
 123:./basic/structs.c ****  * @retval 2  a < b 
 124:./basic/structs.c ****  * @return real_t 
 125:./basic/structs.c ****  */
 126:./basic/structs.c **** uint8_t cmp_real(real_t a,real_t b)
 127:./basic/structs.c **** {
 456              		.loc 1 127 1
 457              		.cfi_startproc
 458              		@ args = 0, pretend = 0, frame = 24
 459              		@ frame_needed = 1, uses_anonymous_args = 0
 460              		@ link register save eliminated.
 461 0000 90B4     		push	{r4, r7}
 462              	.LCFI26:
 463              		.cfi_def_cfa_offset 8
 464              		.cfi_offset 4, -8
 465              		.cfi_offset 7, -4
 466 0002 86B0     		sub	sp, sp, #24
 467              	.LCFI27:
 468              		.cfi_def_cfa_offset 32
 469 0004 00AF     		add	r7, sp, #0
 470              	.LCFI28:
 471              		.cfi_def_cfa_register 7
 472 0006 07F10804 		add	r4, r7, #8
 473 000a 84E80300 		stm	r4, {r0, r1}
 474 000e 3946     		mov	r1, r7
 475 0010 81E80C00 		stm	r1, {r2, r3}
 128:./basic/structs.c **** int16_t d1=0,d2=0;
 476              		.loc 1 128 9
 477 0014 0023     		movs	r3, #0
 478 0016 FB82     		strh	r3, [r7, #22]	@ movhi
 479              		.loc 1 128 14
 480 0018 0023     		movs	r3, #0
 481 001a BB82     		strh	r3, [r7, #20]	@ movhi
 129:./basic/structs.c **** d1=a.integer*10+a.decimal;
 482              		.loc 1 129 5
 483 001c 7B89     		ldrh	r3, [r7, #10]
 484              		.loc 1 129 16
 485 001e 1A46     		mov	r2, r3	@ movhi
 486 0020 9200     		lsls	r2, r2, #2
 487 0022 1344     		add	r3, r3, r2
 488 0024 5B00     		lsls	r3, r3, #1
 489 0026 9AB2     		uxth	r2, r3
 490              		.loc 1 129 18
 491 0028 3B7A     		ldrb	r3, [r7, #8]	@ zero_extendqisi2
 492 002a 9BB2     		uxth	r3, r3
 493              		.loc 1 129 16
 494 002c 1344     		add	r3, r3, r2
 495 002e 9BB2     		uxth	r3, r3
 496              		.loc 1 129 3
 497 0030 FB82     		strh	r3, [r7, #22]	@ movhi
 130:./basic/structs.c **** d2=b.integer*10+b.decimal;
 498              		.loc 1 130 5
 499 0032 7B88     		ldrh	r3, [r7, #2]
 500              		.loc 1 130 16
ARM GAS  C:\Users\SAMEER~1.ALM\AppData\Local\Temp\ccfCdVir.s 			page 12


 501 0034 1A46     		mov	r2, r3	@ movhi
 502 0036 9200     		lsls	r2, r2, #2
 503 0038 1344     		add	r3, r3, r2
 504 003a 5B00     		lsls	r3, r3, #1
 505 003c 9AB2     		uxth	r2, r3
 506              		.loc 1 130 18
 507 003e 3B78     		ldrb	r3, [r7]	@ zero_extendqisi2
 508 0040 9BB2     		uxth	r3, r3
 509              		.loc 1 130 16
 510 0042 1344     		add	r3, r3, r2
 511 0044 9BB2     		uxth	r3, r3
 512              		.loc 1 130 3
 513 0046 BB82     		strh	r3, [r7, #20]	@ movhi
 131:./basic/structs.c **** d1=(a.sig==1)?-d1:d1;
 514              		.loc 1 131 6
 515 0048 3B7B     		ldrb	r3, [r7, #12]	@ zero_extendqisi2
 516              		.loc 1 131 3
 517 004a 012B     		cmp	r3, #1
 518 004c 04D1     		bne	.L23
 519              		.loc 1 131 3 is_stmt 0 discriminator 1
 520 004e FB8A     		ldrh	r3, [r7, #22]
 521 0050 5B42     		rsbs	r3, r3, #0
 522 0052 9BB2     		uxth	r3, r3
 523 0054 1BB2     		sxth	r3, r3
 524 0056 01E0     		b	.L24
 525              	.L23:
 526              		.loc 1 131 3 discriminator 2
 527 0058 B7F91630 		ldrsh	r3, [r7, #22]
 528              	.L24:
 529              		.loc 1 131 3 discriminator 4
 530 005c FB82     		strh	r3, [r7, #22]	@ movhi
 132:./basic/structs.c **** d2=(b.sig==1)?-d2:d2;
 531              		.loc 1 132 6 is_stmt 1 discriminator 4
 532 005e 3B79     		ldrb	r3, [r7, #4]	@ zero_extendqisi2
 533              		.loc 1 132 3 discriminator 4
 534 0060 012B     		cmp	r3, #1
 535 0062 04D1     		bne	.L25
 536              		.loc 1 132 3 is_stmt 0 discriminator 1
 537 0064 BB8A     		ldrh	r3, [r7, #20]
 538 0066 5B42     		rsbs	r3, r3, #0
 539 0068 9BB2     		uxth	r3, r3
 540 006a 1BB2     		sxth	r3, r3
 541 006c 01E0     		b	.L26
 542              	.L25:
 543              		.loc 1 132 3 discriminator 2
 544 006e B7F91430 		ldrsh	r3, [r7, #20]
 545              	.L26:
 546              		.loc 1 132 3 discriminator 4
 547 0072 BB82     		strh	r3, [r7, #20]	@ movhi
 133:./basic/structs.c ****  if(d1>d2)
 548              		.loc 1 133 4 is_stmt 1 discriminator 4
 549 0074 B7F91620 		ldrsh	r2, [r7, #22]
 550 0078 B7F91430 		ldrsh	r3, [r7, #20]
 551 007c 9A42     		cmp	r2, r3
 552 007e 01DD     		ble	.L27
 134:./basic/structs.c ****   return 1;
 553              		.loc 1 134 10
ARM GAS  C:\Users\SAMEER~1.ALM\AppData\Local\Temp\ccfCdVir.s 			page 13


 554 0080 0123     		movs	r3, #1
 555 0082 08E0     		b	.L28
 556              	.L27:
 135:./basic/structs.c ****  if(d1<d2)
 557              		.loc 1 135 4
 558 0084 B7F91620 		ldrsh	r2, [r7, #22]
 559 0088 B7F91430 		ldrsh	r3, [r7, #20]
 560 008c 9A42     		cmp	r2, r3
 561 008e 01DA     		bge	.L29
 136:./basic/structs.c ****   return 2;
 562              		.loc 1 136 10
 563 0090 0223     		movs	r3, #2
 564 0092 00E0     		b	.L28
 565              	.L29:
 137:./basic/structs.c ****  
 138:./basic/structs.c ****  return 0;
 566              		.loc 1 138 9
 567 0094 0023     		movs	r3, #0
 568              	.L28:
 139:./basic/structs.c ****  
 140:./basic/structs.c **** }
 569              		.loc 1 140 1
 570 0096 1846     		mov	r0, r3
 571 0098 1837     		adds	r7, r7, #24
 572              	.LCFI29:
 573              		.cfi_def_cfa_offset 8
 574 009a BD46     		mov	sp, r7
 575              	.LCFI30:
 576              		.cfi_def_cfa_register 13
 577              		@ sp needed
 578 009c 90BC     		pop	{r4, r7}
 579              	.LCFI31:
 580              		.cfi_restore 7
 581              		.cfi_restore 4
 582              		.cfi_def_cfa_offset 0
 583 009e 7047     		bx	lr
 584              		.cfi_endproc
 585              	.LFE37:
 587              		.section	.text.add_real,"ax",%progbits
 588              		.align	1
 589              		.global	add_real
 590              		.syntax unified
 591              		.thumb
 592              		.thumb_func
 594              	add_real:
 595              	.LFB38:
 141:./basic/structs.c **** //--------------------------------------------------------------------------------------------
 142:./basic/structs.c **** /**
 143:./basic/structs.c ****  * @brief    calculates the addition of two real numbers
 144:./basic/structs.c ****  * @details  this method allow to add two real_t numbers instead of using float type
 145:./basic/structs.c ****  * 			 more convenient solution for low-performance old avr microcontrollers
 146:./basic/structs.c ****  * @param a  first real number
 147:./basic/structs.c ****  * @param b  second real number 
 148:./basic/structs.c ****  * @return real_t 
 149:./basic/structs.c ****  */
 150:./basic/structs.c **** real_t add_real(real_t a ,real_t b)
 151:./basic/structs.c **** {
ARM GAS  C:\Users\SAMEER~1.ALM\AppData\Local\Temp\ccfCdVir.s 			page 14


 596              		.loc 1 151 1
 597              		.cfi_startproc
 598              		@ args = 12, pretend = 8, frame = 32
 599              		@ frame_needed = 1, uses_anonymous_args = 0
 600              		@ link register save eliminated.
 601 0000 82B0     		sub	sp, sp, #8
 602              	.LCFI32:
 603              		.cfi_def_cfa_offset 8
 604 0002 80B4     		push	{r7}
 605              	.LCFI33:
 606              		.cfi_def_cfa_offset 12
 607              		.cfi_offset 7, -12
 608 0004 89B0     		sub	sp, sp, #36
 609              	.LCFI34:
 610              		.cfi_def_cfa_offset 48
 611 0006 00AF     		add	r7, sp, #0
 612              	.LCFI35:
 613              		.cfi_def_cfa_register 7
 614 0008 F860     		str	r0, [r7, #12]
 615 000a 381D     		adds	r0, r7, #4
 616 000c 80E80600 		stm	r0, {r1, r2}
 617 0010 FB62     		str	r3, [r7, #44]
 152:./basic/structs.c **** 	real_t c;
 153:./basic/structs.c **** 	c.val=0;
 618              		.loc 1 153 7
 619 0012 0023     		movs	r3, #0
 620 0014 3B61     		str	r3, [r7, #16]
 154:./basic/structs.c **** 	int16_t d1=0,d2=0,d3=0;
 621              		.loc 1 154 10
 622 0016 0023     		movs	r3, #0
 623 0018 BB83     		strh	r3, [r7, #28]	@ movhi
 624              		.loc 1 154 15
 625 001a 0023     		movs	r3, #0
 626 001c 7B83     		strh	r3, [r7, #26]	@ movhi
 627              		.loc 1 154 20
 628 001e 0023     		movs	r3, #0
 629 0020 FB83     		strh	r3, [r7, #30]	@ movhi
 155:./basic/structs.c **** 	d1=a.integer*10+a.decimal;
 630              		.loc 1 155 6
 631 0022 FB88     		ldrh	r3, [r7, #6]
 632              		.loc 1 155 17
 633 0024 1A46     		mov	r2, r3	@ movhi
 634 0026 9200     		lsls	r2, r2, #2
 635 0028 1344     		add	r3, r3, r2
 636 002a 5B00     		lsls	r3, r3, #1
 637 002c 9AB2     		uxth	r2, r3
 638              		.loc 1 155 19
 639 002e 3B79     		ldrb	r3, [r7, #4]	@ zero_extendqisi2
 640 0030 9BB2     		uxth	r3, r3
 641              		.loc 1 155 17
 642 0032 1344     		add	r3, r3, r2
 643 0034 9BB2     		uxth	r3, r3
 644              		.loc 1 155 4
 645 0036 BB83     		strh	r3, [r7, #28]	@ movhi
 156:./basic/structs.c **** 	d2=b.integer*10+b.decimal;
 646              		.loc 1 156 6
 647 0038 FB8D     		ldrh	r3, [r7, #46]
ARM GAS  C:\Users\SAMEER~1.ALM\AppData\Local\Temp\ccfCdVir.s 			page 15


 648              		.loc 1 156 17
 649 003a 1A46     		mov	r2, r3	@ movhi
 650 003c 9200     		lsls	r2, r2, #2
 651 003e 1344     		add	r3, r3, r2
 652 0040 5B00     		lsls	r3, r3, #1
 653 0042 9AB2     		uxth	r2, r3
 654              		.loc 1 156 19
 655 0044 97F82C30 		ldrb	r3, [r7, #44]	@ zero_extendqisi2
 656 0048 9BB2     		uxth	r3, r3
 657              		.loc 1 156 17
 658 004a 1344     		add	r3, r3, r2
 659 004c 9BB2     		uxth	r3, r3
 660              		.loc 1 156 4
 661 004e 7B83     		strh	r3, [r7, #26]	@ movhi
 157:./basic/structs.c **** 	d1=(a.sig==1)?-d1:d1;
 662              		.loc 1 157 7
 663 0050 3B7A     		ldrb	r3, [r7, #8]	@ zero_extendqisi2
 664              		.loc 1 157 4
 665 0052 012B     		cmp	r3, #1
 666 0054 04D1     		bne	.L31
 667              		.loc 1 157 4 is_stmt 0 discriminator 1
 668 0056 BB8B     		ldrh	r3, [r7, #28]
 669 0058 5B42     		rsbs	r3, r3, #0
 670 005a 9BB2     		uxth	r3, r3
 671 005c 1BB2     		sxth	r3, r3
 672 005e 01E0     		b	.L32
 673              	.L31:
 674              		.loc 1 157 4 discriminator 2
 675 0060 B7F91C30 		ldrsh	r3, [r7, #28]
 676              	.L32:
 677              		.loc 1 157 4 discriminator 4
 678 0064 BB83     		strh	r3, [r7, #28]	@ movhi
 158:./basic/structs.c **** 	d2=(b.sig==1)?-d2:d2;
 679              		.loc 1 158 7 is_stmt 1 discriminator 4
 680 0066 97F83030 		ldrb	r3, [r7, #48]	@ zero_extendqisi2
 681              		.loc 1 158 4 discriminator 4
 682 006a 012B     		cmp	r3, #1
 683 006c 04D1     		bne	.L33
 684              		.loc 1 158 4 is_stmt 0 discriminator 1
 685 006e 7B8B     		ldrh	r3, [r7, #26]
 686 0070 5B42     		rsbs	r3, r3, #0
 687 0072 9BB2     		uxth	r3, r3
 688 0074 1BB2     		sxth	r3, r3
 689 0076 01E0     		b	.L34
 690              	.L33:
 691              		.loc 1 158 4 discriminator 2
 692 0078 B7F91A30 		ldrsh	r3, [r7, #26]
 693              	.L34:
 694              		.loc 1 158 4 discriminator 4
 695 007c 7B83     		strh	r3, [r7, #26]	@ movhi
 159:./basic/structs.c **** 	d3=d1+d2;
 696              		.loc 1 159 7 is_stmt 1 discriminator 4
 697 007e BA8B     		ldrh	r2, [r7, #28]
 698 0080 7B8B     		ldrh	r3, [r7, #26]
 699 0082 1344     		add	r3, r3, r2
 700 0084 9BB2     		uxth	r3, r3
 701              		.loc 1 159 4 discriminator 4
ARM GAS  C:\Users\SAMEER~1.ALM\AppData\Local\Temp\ccfCdVir.s 			page 16


 702 0086 FB83     		strh	r3, [r7, #30]	@ movhi
 160:./basic/structs.c **** 	c.sig=0;
 703              		.loc 1 160 7 discriminator 4
 704 0088 0023     		movs	r3, #0
 705 008a 3B75     		strb	r3, [r7, #20]
 161:./basic/structs.c **** 	if(d3<0)
 706              		.loc 1 161 4 discriminator 4
 707 008c B7F91E30 		ldrsh	r3, [r7, #30]
 708 0090 002B     		cmp	r3, #0
 709 0092 05DA     		bge	.L35
 162:./basic/structs.c **** 	{
 163:./basic/structs.c **** 	 c.sig=1;
 710              		.loc 1 163 8
 711 0094 0123     		movs	r3, #1
 712 0096 3B75     		strb	r3, [r7, #20]
 164:./basic/structs.c **** 	 d3*=-1;
 713              		.loc 1 164 5
 714 0098 FB8B     		ldrh	r3, [r7, #30]
 715 009a 5B42     		rsbs	r3, r3, #0
 716 009c 9BB2     		uxth	r3, r3
 717 009e FB83     		strh	r3, [r7, #30]	@ movhi
 718              	.L35:
 165:./basic/structs.c **** 	}
 166:./basic/structs.c **** 	c.integer=d3/10;
 719              		.loc 1 166 11
 720 00a0 B7F91E30 		ldrsh	r3, [r7, #30]
 721 00a4 134A     		ldr	r2, .L37
 722 00a6 82FB0312 		smull	r1, r2, r2, r3
 723 00aa 9210     		asrs	r2, r2, #2
 724 00ac DB17     		asrs	r3, r3, #31
 725 00ae D31A     		subs	r3, r2, r3
 726 00b0 1BB2     		sxth	r3, r3
 727 00b2 9BB2     		uxth	r3, r3
 728 00b4 7B82     		strh	r3, [r7, #18]	@ movhi
 167:./basic/structs.c **** 	c.decimal=d3%10;
 729              		.loc 1 167 11
 730 00b6 B7F91E20 		ldrsh	r2, [r7, #30]
 731 00ba 0E4B     		ldr	r3, .L37
 732 00bc 83FB0213 		smull	r1, r3, r3, r2
 733 00c0 9910     		asrs	r1, r3, #2
 734 00c2 D317     		asrs	r3, r2, #31
 735 00c4 C91A     		subs	r1, r1, r3
 736 00c6 0B46     		mov	r3, r1
 737 00c8 9B00     		lsls	r3, r3, #2
 738 00ca 0B44     		add	r3, r3, r1
 739 00cc 5B00     		lsls	r3, r3, #1
 740 00ce D31A     		subs	r3, r2, r3
 741 00d0 1BB2     		sxth	r3, r3
 742 00d2 DBB2     		uxtb	r3, r3
 743 00d4 3B74     		strb	r3, [r7, #16]
 168:./basic/structs.c **** 	return c;
 744              		.loc 1 168 9
 745 00d6 FB68     		ldr	r3, [r7, #12]
 746 00d8 1A46     		mov	r2, r3
 747 00da 07F11003 		add	r3, r7, #16
 748 00de 93E80300 		ldm	r3, {r0, r1}
 749 00e2 82E80300 		stm	r2, {r0, r1}
ARM GAS  C:\Users\SAMEER~1.ALM\AppData\Local\Temp\ccfCdVir.s 			page 17


 169:./basic/structs.c **** }
 750              		.loc 1 169 1
 751 00e6 F868     		ldr	r0, [r7, #12]
 752 00e8 2437     		adds	r7, r7, #36
 753              	.LCFI36:
 754              		.cfi_def_cfa_offset 12
 755 00ea BD46     		mov	sp, r7
 756              	.LCFI37:
 757              		.cfi_def_cfa_register 13
 758              		@ sp needed
 759 00ec 80BC     		pop	{r7}
 760              	.LCFI38:
 761              		.cfi_restore 7
 762              		.cfi_def_cfa_offset 8
 763 00ee 02B0     		add	sp, sp, #8
 764              	.LCFI39:
 765              		.cfi_def_cfa_offset 0
 766 00f0 7047     		bx	lr
 767              	.L38:
 768 00f2 00BF     		.align	2
 769              	.L37:
 770 00f4 67666666 		.word	1717986919
 771              		.cfi_endproc
 772              	.LFE38:
 774              		.section	.text.sub_real,"ax",%progbits
 775              		.align	1
 776              		.global	sub_real
 777              		.syntax unified
 778              		.thumb
 779              		.thumb_func
 781              	sub_real:
 782              	.LFB39:
 170:./basic/structs.c **** //--------------------------------------------------------------------------------------------
 171:./basic/structs.c **** /**
 172:./basic/structs.c ****  * @brief    calculates the subtraction of two real numbers
 173:./basic/structs.c ****  * @details  this method allows to substract two real_t numbers instead of using float type
 174:./basic/structs.c ****  * 			 more convenient solution for low-performance old avr microcontrollers
 175:./basic/structs.c ****  * @param a  first real number
 176:./basic/structs.c ****  * @param b  second real number 
 177:./basic/structs.c ****  * @return real_t 
 178:./basic/structs.c ****  */
 179:./basic/structs.c **** real_t sub_real(real_t a ,real_t b)
 180:./basic/structs.c **** {
 783              		.loc 1 180 1
 784              		.cfi_startproc
 785              		@ args = 12, pretend = 8, frame = 16
 786              		@ frame_needed = 1, uses_anonymous_args = 0
 787 0000 82B0     		sub	sp, sp, #8
 788              	.LCFI40:
 789              		.cfi_def_cfa_offset 8
 790 0002 80B5     		push	{r7, lr}
 791              	.LCFI41:
 792              		.cfi_def_cfa_offset 16
 793              		.cfi_offset 7, -16
 794              		.cfi_offset 14, -12
 795 0004 86B0     		sub	sp, sp, #24
 796              	.LCFI42:
ARM GAS  C:\Users\SAMEER~1.ALM\AppData\Local\Temp\ccfCdVir.s 			page 18


 797              		.cfi_def_cfa_offset 40
 798 0006 02AF     		add	r7, sp, #8
 799              	.LCFI43:
 800              		.cfi_def_cfa 7, 32
 801 0008 F860     		str	r0, [r7, #12]
 802 000a 381D     		adds	r0, r7, #4
 803 000c 80E80600 		stm	r0, {r1, r2}
 804 0010 FB61     		str	r3, [r7, #28]
 181:./basic/structs.c **** 	//b.integer=0-b.integer;
 182:./basic/structs.c **** 	b.sig=1;
 805              		.loc 1 182 7
 806 0012 0123     		movs	r3, #1
 807 0014 87F82030 		strb	r3, [r7, #32]
 183:./basic/structs.c **** 	return add_real(a,b);
 808              		.loc 1 183 9
 809 0018 F868     		ldr	r0, [r7, #12]
 810 001a 3B6A     		ldr	r3, [r7, #32]
 811 001c 0093     		str	r3, [sp]
 812 001e FB69     		ldr	r3, [r7, #28]
 813 0020 3A1D     		adds	r2, r7, #4
 814 0022 06CA     		ldm	r2, {r1, r2}
 815 0024 FFF7FEFF 		bl	add_real
 184:./basic/structs.c **** }
 816              		.loc 1 184 1
 817 0028 F868     		ldr	r0, [r7, #12]
 818 002a 1037     		adds	r7, r7, #16
 819              	.LCFI44:
 820              		.cfi_def_cfa_offset 16
 821 002c BD46     		mov	sp, r7
 822              	.LCFI45:
 823              		.cfi_def_cfa_register 13
 824              		@ sp needed
 825 002e BDE88040 		pop	{r7, lr}
 826              	.LCFI46:
 827              		.cfi_restore 14
 828              		.cfi_restore 7
 829              		.cfi_def_cfa_offset 8
 830 0032 02B0     		add	sp, sp, #8
 831              	.LCFI47:
 832              		.cfi_def_cfa_offset 0
 833 0034 7047     		bx	lr
 834              		.cfi_endproc
 835              	.LFE39:
 837              		.section	.text.inc_real,"ax",%progbits
 838              		.align	1
 839              		.global	inc_real
 840              		.syntax unified
 841              		.thumb
 842              		.thumb_func
 844              	inc_real:
 845              	.LFB40:
 185:./basic/structs.c **** //--------------------------------------------------------------------------------------------
 186:./basic/structs.c **** /**
 187:./basic/structs.c ****  * @brief      increments a real number
 188:./basic/structs.c ****  * @details    this method allows to increment an real_t number instead of using float type
 189:./basic/structs.c ****  * 			   more convenient solution for low-performance old avr microcontrollers
 190:./basic/structs.c ****  * @param ptr  a pointer to  real number (pass by reference)
ARM GAS  C:\Users\SAMEER~1.ALM\AppData\Local\Temp\ccfCdVir.s 			page 19


 191:./basic/structs.c ****  * @return real_t 
 192:./basic/structs.c ****  */
 193:./basic/structs.c **** void inc_real(real_t * ptr)
 194:./basic/structs.c **** {
 846              		.loc 1 194 1
 847              		.cfi_startproc
 848              		@ args = 0, pretend = 0, frame = 24
 849              		@ frame_needed = 1, uses_anonymous_args = 0
 850 0000 90B5     		push	{r4, r7, lr}
 851              	.LCFI48:
 852              		.cfi_def_cfa_offset 12
 853              		.cfi_offset 4, -12
 854              		.cfi_offset 7, -8
 855              		.cfi_offset 14, -4
 856 0002 89B0     		sub	sp, sp, #36
 857              	.LCFI49:
 858              		.cfi_def_cfa_offset 48
 859 0004 02AF     		add	r7, sp, #8
 860              	.LCFI50:
 861              		.cfi_def_cfa 7, 40
 862 0006 F860     		str	r0, [r7, #12]
 195:./basic/structs.c **** 	real_t a;
 196:./basic/structs.c **** 	a.val=0;	
 863              		.loc 1 196 7
 864 0008 0023     		movs	r3, #0
 865 000a 3B61     		str	r3, [r7, #16]
 197:./basic/structs.c **** 	a.decimal=1;
 866              		.loc 1 197 11
 867 000c 0123     		movs	r3, #1
 868 000e 3B74     		strb	r3, [r7, #16]
 198:./basic/structs.c **** 	*ptr=add_real((real_t)*ptr,a);
 869              		.loc 1 198 7
 870 0010 FC68     		ldr	r4, [r7, #12]
 871 0012 3846     		mov	r0, r7
 872 0014 FA68     		ldr	r2, [r7, #12]
 873 0016 7B69     		ldr	r3, [r7, #20]
 874 0018 0093     		str	r3, [sp]
 875 001a 3B69     		ldr	r3, [r7, #16]
 876 001c 06CA     		ldm	r2, {r1, r2}
 877 001e FFF7FEFF 		bl	add_real
 878 0022 2246     		mov	r2, r4
 879 0024 3B46     		mov	r3, r7
 880 0026 93E80300 		ldm	r3, {r0, r1}
 881 002a 82E80300 		stm	r2, {r0, r1}
 199:./basic/structs.c **** 
 200:./basic/structs.c **** }
 882              		.loc 1 200 1
 883 002e 00BF     		nop
 884 0030 1C37     		adds	r7, r7, #28
 885              	.LCFI51:
 886              		.cfi_def_cfa_offset 12
 887 0032 BD46     		mov	sp, r7
 888              	.LCFI52:
 889              		.cfi_def_cfa_register 13
 890              		@ sp needed
 891 0034 90BD     		pop	{r4, r7, pc}
 892              		.cfi_endproc
ARM GAS  C:\Users\SAMEER~1.ALM\AppData\Local\Temp\ccfCdVir.s 			page 20


 893              	.LFE40:
 895              		.section	.text.dec_real,"ax",%progbits
 896              		.align	1
 897              		.global	dec_real
 898              		.syntax unified
 899              		.thumb
 900              		.thumb_func
 902              	dec_real:
 903              	.LFB41:
 201:./basic/structs.c **** //--------------------------------------------------------------------------------------------
 202:./basic/structs.c **** /**
 203:./basic/structs.c ****  * @brief    decrements a real number
 204:./basic/structs.c ****  * @details  this method allows to decrement an real_t number instead of using float type
 205:./basic/structs.c ****  * 			 more convenient solution for low-performance old avr microcontrollers
 206:./basic/structs.c ****  * @param ptr  a pointer to  real number (pass by reference)
 207:./basic/structs.c ****  
 208:./basic/structs.c ****  * @return real_t 
 209:./basic/structs.c ****  */
 210:./basic/structs.c **** void dec_real(real_t * ptr)
 211:./basic/structs.c **** {
 904              		.loc 1 211 1
 905              		.cfi_startproc
 906              		@ args = 0, pretend = 0, frame = 24
 907              		@ frame_needed = 1, uses_anonymous_args = 0
 908 0000 90B5     		push	{r4, r7, lr}
 909              	.LCFI53:
 910              		.cfi_def_cfa_offset 12
 911              		.cfi_offset 4, -12
 912              		.cfi_offset 7, -8
 913              		.cfi_offset 14, -4
 914 0002 89B0     		sub	sp, sp, #36
 915              	.LCFI54:
 916              		.cfi_def_cfa_offset 48
 917 0004 02AF     		add	r7, sp, #8
 918              	.LCFI55:
 919              		.cfi_def_cfa 7, 40
 920 0006 F860     		str	r0, [r7, #12]
 212:./basic/structs.c **** real_t a={0};
 921              		.loc 1 212 8
 922 0008 07F11003 		add	r3, r7, #16
 923 000c 0022     		movs	r2, #0
 924 000e 1A60     		str	r2, [r3]
 925 0010 5A60     		str	r2, [r3, #4]
 213:./basic/structs.c **** a.integer=0;
 926              		.loc 1 213 10
 927 0012 0023     		movs	r3, #0
 928 0014 7B82     		strh	r3, [r7, #18]	@ movhi
 214:./basic/structs.c **** a.sig=0;
 929              		.loc 1 214 6
 930 0016 0023     		movs	r3, #0
 931 0018 3B75     		strb	r3, [r7, #20]
 215:./basic/structs.c **** a.decimal=1;
 932              		.loc 1 215 10
 933 001a 0123     		movs	r3, #1
 934 001c 3B74     		strb	r3, [r7, #16]
 216:./basic/structs.c **** *ptr=sub_real((real_t)*ptr,a);
 935              		.loc 1 216 6
ARM GAS  C:\Users\SAMEER~1.ALM\AppData\Local\Temp\ccfCdVir.s 			page 21


 936 001e FC68     		ldr	r4, [r7, #12]
 937 0020 3846     		mov	r0, r7
 938 0022 FA68     		ldr	r2, [r7, #12]
 939 0024 7B69     		ldr	r3, [r7, #20]
 940 0026 0093     		str	r3, [sp]
 941 0028 3B69     		ldr	r3, [r7, #16]
 942 002a 06CA     		ldm	r2, {r1, r2}
 943 002c FFF7FEFF 		bl	sub_real
 944 0030 2246     		mov	r2, r4
 945 0032 3B46     		mov	r3, r7
 946 0034 93E80300 		ldm	r3, {r0, r1}
 947 0038 82E80300 		stm	r2, {r0, r1}
 217:./basic/structs.c **** }
 948              		.loc 1 217 1
 949 003c 00BF     		nop
 950 003e 1C37     		adds	r7, r7, #28
 951              	.LCFI56:
 952              		.cfi_def_cfa_offset 12
 953 0040 BD46     		mov	sp, r7
 954              	.LCFI57:
 955              		.cfi_def_cfa_register 13
 956              		@ sp needed
 957 0042 90BD     		pop	{r4, r7, pc}
 958              		.cfi_endproc
 959              	.LFE41:
 961              		.section	.text.reverse_byte,"ax",%progbits
 962              		.align	1
 963              		.global	reverse_byte
 964              		.syntax unified
 965              		.thumb
 966              		.thumb_func
 968              	reverse_byte:
 969              	.LFB42:
 218:./basic/structs.c **** //--------------------------------------------------------------------------------------------
 219:./basic/structs.c **** //********************************************************************************************
 220:./basic/structs.c **** //
 221:./basic/structs.c **** //  conversion Methods' definitions
 222:./basic/structs.c **** //
 223:./basic/structs.c **** //********************************************************************************************
 224:./basic/structs.c **** /**
 225:./basic/structs.c ****  * @brief 	  reverses a data of byte-size length
 226:./basic/structs.c ****  * @details   reverses a data of byte size length from big  endigan to little endigan or vice versa
 227:./basic/structs.c ****  * @param val the byte data to be reversed
 228:./basic/structs.c ****  * @return uint8_t 
 229:./basic/structs.c ****  */
 230:./basic/structs.c **** uint8_t reverse_byte(uint8_t val)
 231:./basic/structs.c **** {
 970              		.loc 1 231 1
 971              		.cfi_startproc
 972              		@ args = 0, pretend = 0, frame = 16
 973              		@ frame_needed = 1, uses_anonymous_args = 0
 974              		@ link register save eliminated.
 975 0000 80B4     		push	{r7}
 976              	.LCFI58:
 977              		.cfi_def_cfa_offset 4
 978              		.cfi_offset 7, -4
 979 0002 85B0     		sub	sp, sp, #20
ARM GAS  C:\Users\SAMEER~1.ALM\AppData\Local\Temp\ccfCdVir.s 			page 22


 980              	.LCFI59:
 981              		.cfi_def_cfa_offset 24
 982 0004 00AF     		add	r7, sp, #0
 983              	.LCFI60:
 984              		.cfi_def_cfa_register 7
 985 0006 0346     		mov	r3, r0
 986 0008 FB71     		strb	r3, [r7, #7]
 232:./basic/structs.c **** 	BYTE_BITS byt;
 233:./basic/structs.c **** 	Big_BYTE_BITS rv_byt;
 234:./basic/structs.c **** 	byt.byte=val;
 987              		.loc 1 234 10
 988 000a FB79     		ldrb	r3, [r7, #7]
 989 000c 3B73     		strb	r3, [r7, #12]
 235:./basic/structs.c **** 	rv_byt.bit0=byt.bit0;
 990              		.loc 1 235 17
 991 000e 3B7B     		ldrb	r3, [r7, #12]
 992 0010 C3F30003 		ubfx	r3, r3, #0, #1
 993 0014 DAB2     		uxtb	r2, r3
 994              		.loc 1 235 13
 995 0016 3B7A     		ldrb	r3, [r7, #8]
 996 0018 62F3C713 		bfi	r3, r2, #7, #1
 997 001c 3B72     		strb	r3, [r7, #8]
 236:./basic/structs.c **** 	rv_byt.bit1=byt.bit1;
 998              		.loc 1 236 17
 999 001e 3B7B     		ldrb	r3, [r7, #12]
 1000 0020 C3F34003 		ubfx	r3, r3, #1, #1
 1001 0024 DAB2     		uxtb	r2, r3
 1002              		.loc 1 236 13
 1003 0026 3B7A     		ldrb	r3, [r7, #8]
 1004 0028 62F38613 		bfi	r3, r2, #6, #1
 1005 002c 3B72     		strb	r3, [r7, #8]
 237:./basic/structs.c **** 	rv_byt.bit2=byt.bit2;
 1006              		.loc 1 237 17
 1007 002e 3B7B     		ldrb	r3, [r7, #12]
 1008 0030 C3F38003 		ubfx	r3, r3, #2, #1
 1009 0034 DAB2     		uxtb	r2, r3
 1010              		.loc 1 237 13
 1011 0036 3B7A     		ldrb	r3, [r7, #8]
 1012 0038 62F34513 		bfi	r3, r2, #5, #1
 1013 003c 3B72     		strb	r3, [r7, #8]
 238:./basic/structs.c **** 	rv_byt.bit3=byt.bit3;
 1014              		.loc 1 238 17
 1015 003e 3B7B     		ldrb	r3, [r7, #12]
 1016 0040 C3F3C003 		ubfx	r3, r3, #3, #1
 1017 0044 DAB2     		uxtb	r2, r3
 1018              		.loc 1 238 13
 1019 0046 3B7A     		ldrb	r3, [r7, #8]
 1020 0048 62F30413 		bfi	r3, r2, #4, #1
 1021 004c 3B72     		strb	r3, [r7, #8]
 239:./basic/structs.c **** 	rv_byt.bit4=byt.bit4;
 1022              		.loc 1 239 17
 1023 004e 3B7B     		ldrb	r3, [r7, #12]
 1024 0050 C3F30013 		ubfx	r3, r3, #4, #1
 1025 0054 DAB2     		uxtb	r2, r3
 1026              		.loc 1 239 13
 1027 0056 3B7A     		ldrb	r3, [r7, #8]
 1028 0058 62F3C303 		bfi	r3, r2, #3, #1
ARM GAS  C:\Users\SAMEER~1.ALM\AppData\Local\Temp\ccfCdVir.s 			page 23


 1029 005c 3B72     		strb	r3, [r7, #8]
 240:./basic/structs.c **** 	rv_byt.bit5=byt.bit5;
 1030              		.loc 1 240 17
 1031 005e 3B7B     		ldrb	r3, [r7, #12]
 1032 0060 C3F34013 		ubfx	r3, r3, #5, #1
 1033 0064 DAB2     		uxtb	r2, r3
 1034              		.loc 1 240 13
 1035 0066 3B7A     		ldrb	r3, [r7, #8]
 1036 0068 62F38203 		bfi	r3, r2, #2, #1
 1037 006c 3B72     		strb	r3, [r7, #8]
 241:./basic/structs.c **** 	rv_byt.bit6=byt.bit6;
 1038              		.loc 1 241 17
 1039 006e 3B7B     		ldrb	r3, [r7, #12]
 1040 0070 C3F38013 		ubfx	r3, r3, #6, #1
 1041 0074 DAB2     		uxtb	r2, r3
 1042              		.loc 1 241 13
 1043 0076 3B7A     		ldrb	r3, [r7, #8]
 1044 0078 62F34103 		bfi	r3, r2, #1, #1
 1045 007c 3B72     		strb	r3, [r7, #8]
 242:./basic/structs.c **** 	rv_byt.bit7=byt.bit7;
 1046              		.loc 1 242 17
 1047 007e 3B7B     		ldrb	r3, [r7, #12]
 1048 0080 C3F3C013 		ubfx	r3, r3, #7, #1
 1049 0084 DAB2     		uxtb	r2, r3
 1050              		.loc 1 242 13
 1051 0086 3B7A     		ldrb	r3, [r7, #8]
 1052 0088 62F30003 		bfi	r3, r2, #0, #1
 1053 008c 3B72     		strb	r3, [r7, #8]
 243:./basic/structs.c **** 	return rv_byt.byte;
 1054              		.loc 1 243 15
 1055 008e 3B7A     		ldrb	r3, [r7, #8]	@ zero_extendqisi2
 244:./basic/structs.c **** }
 1056              		.loc 1 244 1
 1057 0090 1846     		mov	r0, r3
 1058 0092 1437     		adds	r7, r7, #20
 1059              	.LCFI61:
 1060              		.cfi_def_cfa_offset 4
 1061 0094 BD46     		mov	sp, r7
 1062              	.LCFI62:
 1063              		.cfi_def_cfa_register 13
 1064              		@ sp needed
 1065 0096 80BC     		pop	{r7}
 1066              	.LCFI63:
 1067              		.cfi_restore 7
 1068              		.cfi_def_cfa_offset 0
 1069 0098 7047     		bx	lr
 1070              		.cfi_endproc
 1071              	.LFE42:
 1073              		.section	.text.reverse_word,"ax",%progbits
 1074              		.align	1
 1075              		.global	reverse_word
 1076              		.syntax unified
 1077              		.thumb
 1078              		.thumb_func
 1080              	reverse_word:
 1081              	.LFB43:
 245:./basic/structs.c **** //--------------------------------------------------------------------------------------------
ARM GAS  C:\Users\SAMEER~1.ALM\AppData\Local\Temp\ccfCdVir.s 			page 24


 246:./basic/structs.c **** /**
 247:./basic/structs.c ****  * @brief 	  reverses a data of word-size length
 248:./basic/structs.c ****  * @details   reverses a data of word size length from big  endigan to little endigan or vice versa
 249:./basic/structs.c ****  * @param val the byte data to be reversed
 250:./basic/structs.c ****  * @return uint8_t 
 251:./basic/structs.c ****  */
 252:./basic/structs.c **** uint16_t reverse_word(uint16_t val)
 253:./basic/structs.c **** {
 1082              		.loc 1 253 1
 1083              		.cfi_startproc
 1084              		@ args = 0, pretend = 0, frame = 16
 1085              		@ frame_needed = 1, uses_anonymous_args = 0
 1086              		@ link register save eliminated.
 1087 0000 80B4     		push	{r7}
 1088              	.LCFI64:
 1089              		.cfi_def_cfa_offset 4
 1090              		.cfi_offset 7, -4
 1091 0002 85B0     		sub	sp, sp, #20
 1092              	.LCFI65:
 1093              		.cfi_def_cfa_offset 24
 1094 0004 00AF     		add	r7, sp, #0
 1095              	.LCFI66:
 1096              		.cfi_def_cfa_register 7
 1097 0006 0346     		mov	r3, r0
 1098 0008 FB80     		strh	r3, [r7, #6]	@ movhi
 254:./basic/structs.c **** 	WORD_BYTES byt;
 255:./basic/structs.c **** 	Big_WORD_BYTES rv_byt;
 256:./basic/structs.c **** 	byt.word=val;
 1099              		.loc 1 256 10
 1100 000a FB88     		ldrh	r3, [r7, #6]	@ movhi
 1101 000c BB81     		strh	r3, [r7, #12]	@ movhi
 257:./basic/structs.c **** 	rv_byt.bits.bit0=byt.bits.bit0;
 1102              		.loc 1 257 27
 1103 000e 3B7B     		ldrb	r3, [r7, #12]
 1104 0010 C3F30003 		ubfx	r3, r3, #0, #1
 1105 0014 DAB2     		uxtb	r2, r3
 1106              		.loc 1 257 18
 1107 0016 7B7A     		ldrb	r3, [r7, #9]
 1108 0018 62F3C713 		bfi	r3, r2, #7, #1
 1109 001c 7B72     		strb	r3, [r7, #9]
 258:./basic/structs.c **** 	rv_byt.bits.bit1=byt.bits.bit1;
 1110              		.loc 1 258 27
 1111 001e 3B7B     		ldrb	r3, [r7, #12]
 1112 0020 C3F34003 		ubfx	r3, r3, #1, #1
 1113 0024 DAB2     		uxtb	r2, r3
 1114              		.loc 1 258 18
 1115 0026 7B7A     		ldrb	r3, [r7, #9]
 1116 0028 62F38613 		bfi	r3, r2, #6, #1
 1117 002c 7B72     		strb	r3, [r7, #9]
 259:./basic/structs.c **** 	rv_byt.bits.bit2=byt.bits.bit2;
 1118              		.loc 1 259 27
 1119 002e 3B7B     		ldrb	r3, [r7, #12]
 1120 0030 C3F38003 		ubfx	r3, r3, #2, #1
 1121 0034 DAB2     		uxtb	r2, r3
 1122              		.loc 1 259 18
 1123 0036 7B7A     		ldrb	r3, [r7, #9]
 1124 0038 62F34513 		bfi	r3, r2, #5, #1
ARM GAS  C:\Users\SAMEER~1.ALM\AppData\Local\Temp\ccfCdVir.s 			page 25


 1125 003c 7B72     		strb	r3, [r7, #9]
 260:./basic/structs.c **** 	rv_byt.bits.bit3=byt.bits.bit3;
 1126              		.loc 1 260 27
 1127 003e 3B7B     		ldrb	r3, [r7, #12]
 1128 0040 C3F3C003 		ubfx	r3, r3, #3, #1
 1129 0044 DAB2     		uxtb	r2, r3
 1130              		.loc 1 260 18
 1131 0046 7B7A     		ldrb	r3, [r7, #9]
 1132 0048 62F30413 		bfi	r3, r2, #4, #1
 1133 004c 7B72     		strb	r3, [r7, #9]
 261:./basic/structs.c **** 	rv_byt.bits.bit4=byt.bits.bit4;
 1134              		.loc 1 261 27
 1135 004e 3B7B     		ldrb	r3, [r7, #12]
 1136 0050 C3F30013 		ubfx	r3, r3, #4, #1
 1137 0054 DAB2     		uxtb	r2, r3
 1138              		.loc 1 261 18
 1139 0056 7B7A     		ldrb	r3, [r7, #9]
 1140 0058 62F3C303 		bfi	r3, r2, #3, #1
 1141 005c 7B72     		strb	r3, [r7, #9]
 262:./basic/structs.c **** 	rv_byt.bits.bit5=byt.bits.bit5;
 1142              		.loc 1 262 27
 1143 005e 3B7B     		ldrb	r3, [r7, #12]
 1144 0060 C3F34013 		ubfx	r3, r3, #5, #1
 1145 0064 DAB2     		uxtb	r2, r3
 1146              		.loc 1 262 18
 1147 0066 7B7A     		ldrb	r3, [r7, #9]
 1148 0068 62F38203 		bfi	r3, r2, #2, #1
 1149 006c 7B72     		strb	r3, [r7, #9]
 263:./basic/structs.c **** 	rv_byt.bits.bit6=byt.bits.bit6;
 1150              		.loc 1 263 27
 1151 006e 3B7B     		ldrb	r3, [r7, #12]
 1152 0070 C3F38013 		ubfx	r3, r3, #6, #1
 1153 0074 DAB2     		uxtb	r2, r3
 1154              		.loc 1 263 18
 1155 0076 7B7A     		ldrb	r3, [r7, #9]
 1156 0078 62F34103 		bfi	r3, r2, #1, #1
 1157 007c 7B72     		strb	r3, [r7, #9]
 264:./basic/structs.c **** 	rv_byt.bits.bit7=byt.bits.bit7;
 1158              		.loc 1 264 27
 1159 007e 3B7B     		ldrb	r3, [r7, #12]
 1160 0080 C3F3C013 		ubfx	r3, r3, #7, #1
 1161 0084 DAB2     		uxtb	r2, r3
 1162              		.loc 1 264 18
 1163 0086 7B7A     		ldrb	r3, [r7, #9]
 1164 0088 62F30003 		bfi	r3, r2, #0, #1
 1165 008c 7B72     		strb	r3, [r7, #9]
 265:./basic/structs.c **** 	rv_byt.bits.bit8=byt.bits.bit8;
 1166              		.loc 1 265 27
 1167 008e 7B7B     		ldrb	r3, [r7, #13]
 1168 0090 C3F30003 		ubfx	r3, r3, #0, #1
 1169 0094 DAB2     		uxtb	r2, r3
 1170              		.loc 1 265 18
 1171 0096 3B7A     		ldrb	r3, [r7, #8]
 1172 0098 62F3C713 		bfi	r3, r2, #7, #1
 1173 009c 3B72     		strb	r3, [r7, #8]
 266:./basic/structs.c **** 	rv_byt.bits.bit9=byt.bits.bit9;
 1174              		.loc 1 266 27
ARM GAS  C:\Users\SAMEER~1.ALM\AppData\Local\Temp\ccfCdVir.s 			page 26


 1175 009e 7B7B     		ldrb	r3, [r7, #13]
 1176 00a0 C3F34003 		ubfx	r3, r3, #1, #1
 1177 00a4 DAB2     		uxtb	r2, r3
 1178              		.loc 1 266 18
 1179 00a6 3B7A     		ldrb	r3, [r7, #8]
 1180 00a8 62F38613 		bfi	r3, r2, #6, #1
 1181 00ac 3B72     		strb	r3, [r7, #8]
 267:./basic/structs.c **** 	rv_byt.bits.bit10=byt.bits.bit10;
 1182              		.loc 1 267 28
 1183 00ae 7B7B     		ldrb	r3, [r7, #13]
 1184 00b0 C3F38003 		ubfx	r3, r3, #2, #1
 1185 00b4 DAB2     		uxtb	r2, r3
 1186              		.loc 1 267 19
 1187 00b6 3B7A     		ldrb	r3, [r7, #8]
 1188 00b8 62F34513 		bfi	r3, r2, #5, #1
 1189 00bc 3B72     		strb	r3, [r7, #8]
 268:./basic/structs.c **** 	rv_byt.bits.bit11=byt.bits.bit11;
 1190              		.loc 1 268 28
 1191 00be 7B7B     		ldrb	r3, [r7, #13]
 1192 00c0 C3F3C003 		ubfx	r3, r3, #3, #1
 1193 00c4 DAB2     		uxtb	r2, r3
 1194              		.loc 1 268 19
 1195 00c6 3B7A     		ldrb	r3, [r7, #8]
 1196 00c8 62F30413 		bfi	r3, r2, #4, #1
 1197 00cc 3B72     		strb	r3, [r7, #8]
 269:./basic/structs.c **** 	rv_byt.bits.bit12=byt.bits.bit12;
 1198              		.loc 1 269 28
 1199 00ce 7B7B     		ldrb	r3, [r7, #13]
 1200 00d0 C3F30013 		ubfx	r3, r3, #4, #1
 1201 00d4 DAB2     		uxtb	r2, r3
 1202              		.loc 1 269 19
 1203 00d6 3B7A     		ldrb	r3, [r7, #8]
 1204 00d8 62F3C303 		bfi	r3, r2, #3, #1
 1205 00dc 3B72     		strb	r3, [r7, #8]
 270:./basic/structs.c **** 	rv_byt.bits.bit13=byt.bits.bit13;
 1206              		.loc 1 270 28
 1207 00de 7B7B     		ldrb	r3, [r7, #13]
 1208 00e0 C3F34013 		ubfx	r3, r3, #5, #1
 1209 00e4 DAB2     		uxtb	r2, r3
 1210              		.loc 1 270 19
 1211 00e6 3B7A     		ldrb	r3, [r7, #8]
 1212 00e8 62F38203 		bfi	r3, r2, #2, #1
 1213 00ec 3B72     		strb	r3, [r7, #8]
 271:./basic/structs.c **** 	rv_byt.bits.bit14=byt.bits.bit14;
 1214              		.loc 1 271 28
 1215 00ee 7B7B     		ldrb	r3, [r7, #13]
 1216 00f0 C3F38013 		ubfx	r3, r3, #6, #1
 1217 00f4 DAB2     		uxtb	r2, r3
 1218              		.loc 1 271 19
 1219 00f6 3B7A     		ldrb	r3, [r7, #8]
 1220 00f8 62F34103 		bfi	r3, r2, #1, #1
 1221 00fc 3B72     		strb	r3, [r7, #8]
 272:./basic/structs.c **** 	rv_byt.bits.bit15=byt.bits.bit15;
 1222              		.loc 1 272 28
 1223 00fe 7B7B     		ldrb	r3, [r7, #13]
 1224 0100 C3F3C013 		ubfx	r3, r3, #7, #1
 1225 0104 DAB2     		uxtb	r2, r3
ARM GAS  C:\Users\SAMEER~1.ALM\AppData\Local\Temp\ccfCdVir.s 			page 27


 1226              		.loc 1 272 19
 1227 0106 3B7A     		ldrb	r3, [r7, #8]
 1228 0108 62F30003 		bfi	r3, r2, #0, #1
 1229 010c 3B72     		strb	r3, [r7, #8]
 273:./basic/structs.c **** 
 274:./basic/structs.c **** 	return rv_byt.word;
 1230              		.loc 1 274 15
 1231 010e 3B89     		ldrh	r3, [r7, #8]
 275:./basic/structs.c **** }
 1232              		.loc 1 275 1
 1233 0110 1846     		mov	r0, r3
 1234 0112 1437     		adds	r7, r7, #20
 1235              	.LCFI67:
 1236              		.cfi_def_cfa_offset 4
 1237 0114 BD46     		mov	sp, r7
 1238              	.LCFI68:
 1239              		.cfi_def_cfa_register 13
 1240              		@ sp needed
 1241 0116 80BC     		pop	{r7}
 1242              	.LCFI69:
 1243              		.cfi_restore 7
 1244              		.cfi_def_cfa_offset 0
 1245 0118 7047     		bx	lr
 1246              		.cfi_endproc
 1247              	.LFE43:
 1249              		.section	.text.reverse_dword,"ax",%progbits
 1250              		.align	1
 1251              		.global	reverse_dword
 1252              		.syntax unified
 1253              		.thumb
 1254              		.thumb_func
 1256              	reverse_dword:
 1257              	.LFB44:
 276:./basic/structs.c **** //--------------------------------------------------------------------------------------------
 277:./basic/structs.c **** /**
 278:./basic/structs.c ****  * @brief 	  reverses a data of double word-size length
 279:./basic/structs.c ****  * @details   reverses a data of double word-size length from big  endigan to little endigan or vic
 280:./basic/structs.c ****  * @param val the byte data to be reversed
 281:./basic/structs.c ****  * @return uint8_t 
 282:./basic/structs.c ****  */
 283:./basic/structs.c **** uint32_t reverse_dword(uint32_t val)
 284:./basic/structs.c **** {
 1258              		.loc 1 284 1
 1259              		.cfi_startproc
 1260              		@ args = 0, pretend = 0, frame = 16
 1261              		@ frame_needed = 1, uses_anonymous_args = 0
 1262              		@ link register save eliminated.
 1263 0000 80B4     		push	{r7}
 1264              	.LCFI70:
 1265              		.cfi_def_cfa_offset 4
 1266              		.cfi_offset 7, -4
 1267 0002 85B0     		sub	sp, sp, #20
 1268              	.LCFI71:
 1269              		.cfi_def_cfa_offset 24
 1270 0004 00AF     		add	r7, sp, #0
 1271              	.LCFI72:
 1272              		.cfi_def_cfa_register 7
ARM GAS  C:\Users\SAMEER~1.ALM\AppData\Local\Temp\ccfCdVir.s 			page 28


 1273 0006 7860     		str	r0, [r7, #4]
 285:./basic/structs.c **** 	DWORD_BYTES byt;
 286:./basic/structs.c **** 	Big_DWORD_BYTES rv_byt;
 287:./basic/structs.c **** 	byt.dword=val;
 1274              		.loc 1 287 11
 1275 0008 7B68     		ldr	r3, [r7, #4]
 1276 000a FB60     		str	r3, [r7, #12]
 288:./basic/structs.c **** 	rv_byt.bits.bit0=byt.bits.bit0;
 1277              		.loc 1 288 27
 1278 000c 3B7B     		ldrb	r3, [r7, #12]
 1279 000e C3F30003 		ubfx	r3, r3, #0, #1
 1280 0012 DAB2     		uxtb	r2, r3
 1281              		.loc 1 288 18
 1282 0014 FB7A     		ldrb	r3, [r7, #11]
 1283 0016 62F3C713 		bfi	r3, r2, #7, #1
 1284 001a FB72     		strb	r3, [r7, #11]
 289:./basic/structs.c **** 	rv_byt.bits.bit1=byt.bits.bit1;
 1285              		.loc 1 289 27
 1286 001c 3B7B     		ldrb	r3, [r7, #12]
 1287 001e C3F34003 		ubfx	r3, r3, #1, #1
 1288 0022 DAB2     		uxtb	r2, r3
 1289              		.loc 1 289 18
 1290 0024 FB7A     		ldrb	r3, [r7, #11]
 1291 0026 62F38613 		bfi	r3, r2, #6, #1
 1292 002a FB72     		strb	r3, [r7, #11]
 290:./basic/structs.c **** 	rv_byt.bits.bit2=byt.bits.bit2;
 1293              		.loc 1 290 27
 1294 002c 3B7B     		ldrb	r3, [r7, #12]
 1295 002e C3F38003 		ubfx	r3, r3, #2, #1
 1296 0032 DAB2     		uxtb	r2, r3
 1297              		.loc 1 290 18
 1298 0034 FB7A     		ldrb	r3, [r7, #11]
 1299 0036 62F34513 		bfi	r3, r2, #5, #1
 1300 003a FB72     		strb	r3, [r7, #11]
 291:./basic/structs.c **** 	rv_byt.bits.bit3=byt.bits.bit3;
 1301              		.loc 1 291 27
 1302 003c 3B7B     		ldrb	r3, [r7, #12]
 1303 003e C3F3C003 		ubfx	r3, r3, #3, #1
 1304 0042 DAB2     		uxtb	r2, r3
 1305              		.loc 1 291 18
 1306 0044 FB7A     		ldrb	r3, [r7, #11]
 1307 0046 62F30413 		bfi	r3, r2, #4, #1
 1308 004a FB72     		strb	r3, [r7, #11]
 292:./basic/structs.c **** 	rv_byt.bits.bit4=byt.bits.bit4;
 1309              		.loc 1 292 27
 1310 004c 3B7B     		ldrb	r3, [r7, #12]
 1311 004e C3F30013 		ubfx	r3, r3, #4, #1
 1312 0052 DAB2     		uxtb	r2, r3
 1313              		.loc 1 292 18
 1314 0054 FB7A     		ldrb	r3, [r7, #11]
 1315 0056 62F3C303 		bfi	r3, r2, #3, #1
 1316 005a FB72     		strb	r3, [r7, #11]
 293:./basic/structs.c **** 	rv_byt.bits.bit5=byt.bits.bit5;
 1317              		.loc 1 293 27
 1318 005c 3B7B     		ldrb	r3, [r7, #12]
 1319 005e C3F34013 		ubfx	r3, r3, #5, #1
 1320 0062 DAB2     		uxtb	r2, r3
ARM GAS  C:\Users\SAMEER~1.ALM\AppData\Local\Temp\ccfCdVir.s 			page 29


 1321              		.loc 1 293 18
 1322 0064 FB7A     		ldrb	r3, [r7, #11]
 1323 0066 62F38203 		bfi	r3, r2, #2, #1
 1324 006a FB72     		strb	r3, [r7, #11]
 294:./basic/structs.c **** 	rv_byt.bits.bit6=byt.bits.bit6;
 1325              		.loc 1 294 27
 1326 006c 3B7B     		ldrb	r3, [r7, #12]
 1327 006e C3F38013 		ubfx	r3, r3, #6, #1
 1328 0072 DAB2     		uxtb	r2, r3
 1329              		.loc 1 294 18
 1330 0074 FB7A     		ldrb	r3, [r7, #11]
 1331 0076 62F34103 		bfi	r3, r2, #1, #1
 1332 007a FB72     		strb	r3, [r7, #11]
 295:./basic/structs.c **** 	rv_byt.bits.bit7=byt.bits.bit7;
 1333              		.loc 1 295 27
 1334 007c 3B7B     		ldrb	r3, [r7, #12]
 1335 007e C3F3C013 		ubfx	r3, r3, #7, #1
 1336 0082 DAB2     		uxtb	r2, r3
 1337              		.loc 1 295 18
 1338 0084 FB7A     		ldrb	r3, [r7, #11]
 1339 0086 62F30003 		bfi	r3, r2, #0, #1
 1340 008a FB72     		strb	r3, [r7, #11]
 296:./basic/structs.c **** 	rv_byt.bits.bit8=byt.bits.bit8;
 1341              		.loc 1 296 27
 1342 008c 7B7B     		ldrb	r3, [r7, #13]
 1343 008e C3F30003 		ubfx	r3, r3, #0, #1
 1344 0092 DAB2     		uxtb	r2, r3
 1345              		.loc 1 296 18
 1346 0094 BB7A     		ldrb	r3, [r7, #10]
 1347 0096 62F3C713 		bfi	r3, r2, #7, #1
 1348 009a BB72     		strb	r3, [r7, #10]
 297:./basic/structs.c **** 	rv_byt.bits.bit9=byt.bits.bit9;
 1349              		.loc 1 297 27
 1350 009c 7B7B     		ldrb	r3, [r7, #13]
 1351 009e C3F34003 		ubfx	r3, r3, #1, #1
 1352 00a2 DAB2     		uxtb	r2, r3
 1353              		.loc 1 297 18
 1354 00a4 BB7A     		ldrb	r3, [r7, #10]
 1355 00a6 62F38613 		bfi	r3, r2, #6, #1
 1356 00aa BB72     		strb	r3, [r7, #10]
 298:./basic/structs.c **** 	rv_byt.bits.bit10=byt.bits.bit10;
 1357              		.loc 1 298 28
 1358 00ac 7B7B     		ldrb	r3, [r7, #13]
 1359 00ae C3F38003 		ubfx	r3, r3, #2, #1
 1360 00b2 DAB2     		uxtb	r2, r3
 1361              		.loc 1 298 19
 1362 00b4 BB7A     		ldrb	r3, [r7, #10]
 1363 00b6 62F34513 		bfi	r3, r2, #5, #1
 1364 00ba BB72     		strb	r3, [r7, #10]
 299:./basic/structs.c **** 	rv_byt.bits.bit11=byt.bits.bit11;
 1365              		.loc 1 299 28
 1366 00bc 7B7B     		ldrb	r3, [r7, #13]
 1367 00be C3F3C003 		ubfx	r3, r3, #3, #1
 1368 00c2 DAB2     		uxtb	r2, r3
 1369              		.loc 1 299 19
 1370 00c4 BB7A     		ldrb	r3, [r7, #10]
 1371 00c6 62F30413 		bfi	r3, r2, #4, #1
ARM GAS  C:\Users\SAMEER~1.ALM\AppData\Local\Temp\ccfCdVir.s 			page 30


 1372 00ca BB72     		strb	r3, [r7, #10]
 300:./basic/structs.c **** 	rv_byt.bits.bit12=byt.bits.bit12;
 1373              		.loc 1 300 28
 1374 00cc 7B7B     		ldrb	r3, [r7, #13]
 1375 00ce C3F30013 		ubfx	r3, r3, #4, #1
 1376 00d2 DAB2     		uxtb	r2, r3
 1377              		.loc 1 300 19
 1378 00d4 BB7A     		ldrb	r3, [r7, #10]
 1379 00d6 62F3C303 		bfi	r3, r2, #3, #1
 1380 00da BB72     		strb	r3, [r7, #10]
 301:./basic/structs.c **** 	rv_byt.bits.bit13=byt.bits.bit13;
 1381              		.loc 1 301 28
 1382 00dc 7B7B     		ldrb	r3, [r7, #13]
 1383 00de C3F34013 		ubfx	r3, r3, #5, #1
 1384 00e2 DAB2     		uxtb	r2, r3
 1385              		.loc 1 301 19
 1386 00e4 BB7A     		ldrb	r3, [r7, #10]
 1387 00e6 62F38203 		bfi	r3, r2, #2, #1
 1388 00ea BB72     		strb	r3, [r7, #10]
 302:./basic/structs.c **** 	rv_byt.bits.bit14=byt.bits.bit14;
 1389              		.loc 1 302 28
 1390 00ec 7B7B     		ldrb	r3, [r7, #13]
 1391 00ee C3F38013 		ubfx	r3, r3, #6, #1
 1392 00f2 DAB2     		uxtb	r2, r3
 1393              		.loc 1 302 19
 1394 00f4 BB7A     		ldrb	r3, [r7, #10]
 1395 00f6 62F34103 		bfi	r3, r2, #1, #1
 1396 00fa BB72     		strb	r3, [r7, #10]
 303:./basic/structs.c **** 	rv_byt.bits.bit15=byt.bits.bit15;	
 1397              		.loc 1 303 28
 1398 00fc 7B7B     		ldrb	r3, [r7, #13]
 1399 00fe C3F3C013 		ubfx	r3, r3, #7, #1
 1400 0102 DAB2     		uxtb	r2, r3
 1401              		.loc 1 303 19
 1402 0104 BB7A     		ldrb	r3, [r7, #10]
 1403 0106 62F30003 		bfi	r3, r2, #0, #1
 1404 010a BB72     		strb	r3, [r7, #10]
 304:./basic/structs.c **** 	rv_byt.bits.bit16=byt.bits.bit16;
 1405              		.loc 1 304 28
 1406 010c BB7B     		ldrb	r3, [r7, #14]
 1407 010e C3F30003 		ubfx	r3, r3, #0, #1
 1408 0112 DAB2     		uxtb	r2, r3
 1409              		.loc 1 304 19
 1410 0114 7B7A     		ldrb	r3, [r7, #9]
 1411 0116 62F3C713 		bfi	r3, r2, #7, #1
 1412 011a 7B72     		strb	r3, [r7, #9]
 305:./basic/structs.c **** 	rv_byt.bits.bit17=byt.bits.bit17;
 1413              		.loc 1 305 28
 1414 011c BB7B     		ldrb	r3, [r7, #14]
 1415 011e C3F34003 		ubfx	r3, r3, #1, #1
 1416 0122 DAB2     		uxtb	r2, r3
 1417              		.loc 1 305 19
 1418 0124 7B7A     		ldrb	r3, [r7, #9]
 1419 0126 62F38613 		bfi	r3, r2, #6, #1
 1420 012a 7B72     		strb	r3, [r7, #9]
 306:./basic/structs.c **** 	rv_byt.bits.bit18=byt.bits.bit18;
 1421              		.loc 1 306 28
ARM GAS  C:\Users\SAMEER~1.ALM\AppData\Local\Temp\ccfCdVir.s 			page 31


 1422 012c BB7B     		ldrb	r3, [r7, #14]
 1423 012e C3F38003 		ubfx	r3, r3, #2, #1
 1424 0132 DAB2     		uxtb	r2, r3
 1425              		.loc 1 306 19
 1426 0134 7B7A     		ldrb	r3, [r7, #9]
 1427 0136 62F34513 		bfi	r3, r2, #5, #1
 1428 013a 7B72     		strb	r3, [r7, #9]
 307:./basic/structs.c **** 	rv_byt.bits.bit19=byt.bits.bit19;
 1429              		.loc 1 307 28
 1430 013c BB7B     		ldrb	r3, [r7, #14]
 1431 013e C3F3C003 		ubfx	r3, r3, #3, #1
 1432 0142 DAB2     		uxtb	r2, r3
 1433              		.loc 1 307 19
 1434 0144 7B7A     		ldrb	r3, [r7, #9]
 1435 0146 62F30413 		bfi	r3, r2, #4, #1
 1436 014a 7B72     		strb	r3, [r7, #9]
 308:./basic/structs.c **** 	rv_byt.bits.bit20=byt.bits.bit20;
 1437              		.loc 1 308 28
 1438 014c BB7B     		ldrb	r3, [r7, #14]
 1439 014e C3F30013 		ubfx	r3, r3, #4, #1
 1440 0152 DAB2     		uxtb	r2, r3
 1441              		.loc 1 308 19
 1442 0154 7B7A     		ldrb	r3, [r7, #9]
 1443 0156 62F3C303 		bfi	r3, r2, #3, #1
 1444 015a 7B72     		strb	r3, [r7, #9]
 309:./basic/structs.c **** 	rv_byt.bits.bit21=byt.bits.bit21;
 1445              		.loc 1 309 28
 1446 015c BB7B     		ldrb	r3, [r7, #14]
 1447 015e C3F34013 		ubfx	r3, r3, #5, #1
 1448 0162 DAB2     		uxtb	r2, r3
 1449              		.loc 1 309 19
 1450 0164 7B7A     		ldrb	r3, [r7, #9]
 1451 0166 62F38203 		bfi	r3, r2, #2, #1
 1452 016a 7B72     		strb	r3, [r7, #9]
 310:./basic/structs.c **** 	rv_byt.bits.bit22=byt.bits.bit22;
 1453              		.loc 1 310 28
 1454 016c BB7B     		ldrb	r3, [r7, #14]
 1455 016e C3F38013 		ubfx	r3, r3, #6, #1
 1456 0172 DAB2     		uxtb	r2, r3
 1457              		.loc 1 310 19
 1458 0174 7B7A     		ldrb	r3, [r7, #9]
 1459 0176 62F34103 		bfi	r3, r2, #1, #1
 1460 017a 7B72     		strb	r3, [r7, #9]
 311:./basic/structs.c **** 	rv_byt.bits.bit23=byt.bits.bit23;
 1461              		.loc 1 311 28
 1462 017c BB7B     		ldrb	r3, [r7, #14]
 1463 017e C3F3C013 		ubfx	r3, r3, #7, #1
 1464 0182 DAB2     		uxtb	r2, r3
 1465              		.loc 1 311 19
 1466 0184 7B7A     		ldrb	r3, [r7, #9]
 1467 0186 62F30003 		bfi	r3, r2, #0, #1
 1468 018a 7B72     		strb	r3, [r7, #9]
 312:./basic/structs.c **** 	rv_byt.bits.bit24=byt.bits.bit24;
 1469              		.loc 1 312 28
 1470 018c FB7B     		ldrb	r3, [r7, #15]
 1471 018e C3F30003 		ubfx	r3, r3, #0, #1
 1472 0192 DAB2     		uxtb	r2, r3
ARM GAS  C:\Users\SAMEER~1.ALM\AppData\Local\Temp\ccfCdVir.s 			page 32


 1473              		.loc 1 312 19
 1474 0194 3B7A     		ldrb	r3, [r7, #8]
 1475 0196 62F3C713 		bfi	r3, r2, #7, #1
 1476 019a 3B72     		strb	r3, [r7, #8]
 313:./basic/structs.c **** 	rv_byt.bits.bit25=byt.bits.bit25;
 1477              		.loc 1 313 28
 1478 019c FB7B     		ldrb	r3, [r7, #15]
 1479 019e C3F34003 		ubfx	r3, r3, #1, #1
 1480 01a2 DAB2     		uxtb	r2, r3
 1481              		.loc 1 313 19
 1482 01a4 3B7A     		ldrb	r3, [r7, #8]
 1483 01a6 62F38613 		bfi	r3, r2, #6, #1
 1484 01aa 3B72     		strb	r3, [r7, #8]
 314:./basic/structs.c **** 	rv_byt.bits.bit26=byt.bits.bit26;
 1485              		.loc 1 314 28
 1486 01ac FB7B     		ldrb	r3, [r7, #15]
 1487 01ae C3F38003 		ubfx	r3, r3, #2, #1
 1488 01b2 DAB2     		uxtb	r2, r3
 1489              		.loc 1 314 19
 1490 01b4 3B7A     		ldrb	r3, [r7, #8]
 1491 01b6 62F34513 		bfi	r3, r2, #5, #1
 1492 01ba 3B72     		strb	r3, [r7, #8]
 315:./basic/structs.c **** 	rv_byt.bits.bit27=byt.bits.bit27;
 1493              		.loc 1 315 28
 1494 01bc FB7B     		ldrb	r3, [r7, #15]
 1495 01be C3F3C003 		ubfx	r3, r3, #3, #1
 1496 01c2 DAB2     		uxtb	r2, r3
 1497              		.loc 1 315 19
 1498 01c4 3B7A     		ldrb	r3, [r7, #8]
 1499 01c6 62F30413 		bfi	r3, r2, #4, #1
 1500 01ca 3B72     		strb	r3, [r7, #8]
 316:./basic/structs.c **** 	rv_byt.bits.bit28=byt.bits.bit28;
 1501              		.loc 1 316 28
 1502 01cc FB7B     		ldrb	r3, [r7, #15]
 1503 01ce C3F30013 		ubfx	r3, r3, #4, #1
 1504 01d2 DAB2     		uxtb	r2, r3
 1505              		.loc 1 316 19
 1506 01d4 3B7A     		ldrb	r3, [r7, #8]
 1507 01d6 62F3C303 		bfi	r3, r2, #3, #1
 1508 01da 3B72     		strb	r3, [r7, #8]
 317:./basic/structs.c **** 	rv_byt.bits.bit29=byt.bits.bit29;
 1509              		.loc 1 317 28
 1510 01dc FB7B     		ldrb	r3, [r7, #15]
 1511 01de C3F34013 		ubfx	r3, r3, #5, #1
 1512 01e2 DAB2     		uxtb	r2, r3
 1513              		.loc 1 317 19
 1514 01e4 3B7A     		ldrb	r3, [r7, #8]
 1515 01e6 62F38203 		bfi	r3, r2, #2, #1
 1516 01ea 3B72     		strb	r3, [r7, #8]
 318:./basic/structs.c **** 	rv_byt.bits.bit30=byt.bits.bit30;
 1517              		.loc 1 318 28
 1518 01ec FB7B     		ldrb	r3, [r7, #15]
 1519 01ee C3F38013 		ubfx	r3, r3, #6, #1
 1520 01f2 DAB2     		uxtb	r2, r3
 1521              		.loc 1 318 19
 1522 01f4 3B7A     		ldrb	r3, [r7, #8]
 1523 01f6 62F34103 		bfi	r3, r2, #1, #1
ARM GAS  C:\Users\SAMEER~1.ALM\AppData\Local\Temp\ccfCdVir.s 			page 33


 1524 01fa 3B72     		strb	r3, [r7, #8]
 319:./basic/structs.c **** 	rv_byt.bits.bit31=byt.bits.bit31;
 1525              		.loc 1 319 28
 1526 01fc FB7B     		ldrb	r3, [r7, #15]
 1527 01fe C3F3C013 		ubfx	r3, r3, #7, #1
 1528 0202 DAB2     		uxtb	r2, r3
 1529              		.loc 1 319 19
 1530 0204 3B7A     		ldrb	r3, [r7, #8]
 1531 0206 62F30003 		bfi	r3, r2, #0, #1
 1532 020a 3B72     		strb	r3, [r7, #8]
 320:./basic/structs.c **** 	
 321:./basic/structs.c **** 	return rv_byt.dword;
 1533              		.loc 1 321 15
 1534 020c BB68     		ldr	r3, [r7, #8]
 322:./basic/structs.c **** }
 1535              		.loc 1 322 1
 1536 020e 1846     		mov	r0, r3
 1537 0210 1437     		adds	r7, r7, #20
 1538              	.LCFI73:
 1539              		.cfi_def_cfa_offset 4
 1540 0212 BD46     		mov	sp, r7
 1541              	.LCFI74:
 1542              		.cfi_def_cfa_register 13
 1543              		@ sp needed
 1544 0214 80BC     		pop	{r7}
 1545              	.LCFI75:
 1546              		.cfi_restore 7
 1547              		.cfi_def_cfa_offset 0
 1548 0216 7047     		bx	lr
 1549              		.cfi_endproc
 1550              	.LFE44:
 1552              		.section	.text.bcd_to_bin,"ax",%progbits
 1553              		.align	1
 1554              		.global	bcd_to_bin
 1555              		.syntax unified
 1556              		.thumb
 1557              		.thumb_func
 1559              	bcd_to_bin:
 1560              	.LFB45:
 323:./basic/structs.c **** //--------------------------------------------------------------------------------------------
 324:./basic/structs.c **** /**
 325:./basic/structs.c ****  * @brief 	  converts a bcd number to a binary number
 326:./basic/structs.c ****  * @details   converts a bcd number to a binary number very powerful method
 327:./basic/structs.c ****  * 			  for displaying data on BCD
 328:./basic/structs.c ****  * @param bcd the byte data to be reversed
 329:./basic/structs.c ****  * @return uint16_t 
 330:./basic/structs.c ****  */
 331:./basic/structs.c **** uint16_t bcd_to_bin(uint8_t bcd)
 332:./basic/structs.c **** {
 1561              		.loc 1 332 1
 1562              		.cfi_startproc
 1563              		@ args = 0, pretend = 0, frame = 16
 1564              		@ frame_needed = 1, uses_anonymous_args = 0
 1565              		@ link register save eliminated.
 1566 0000 80B4     		push	{r7}
 1567              	.LCFI76:
 1568              		.cfi_def_cfa_offset 4
ARM GAS  C:\Users\SAMEER~1.ALM\AppData\Local\Temp\ccfCdVir.s 			page 34


 1569              		.cfi_offset 7, -4
 1570 0002 85B0     		sub	sp, sp, #20
 1571              	.LCFI77:
 1572              		.cfi_def_cfa_offset 24
 1573 0004 00AF     		add	r7, sp, #0
 1574              	.LCFI78:
 1575              		.cfi_def_cfa_register 7
 1576 0006 0346     		mov	r3, r0
 1577 0008 FB71     		strb	r3, [r7, #7]
 333:./basic/structs.c **** 	bcd_t bcd_val;
 334:./basic/structs.c **** 	uint16_t bin_val=0;
 1578              		.loc 1 334 11
 1579 000a 0023     		movs	r3, #0
 1580 000c FB81     		strh	r3, [r7, #14]	@ movhi
 335:./basic/structs.c **** 	bcd_val.byte=bcd;
 1581              		.loc 1 335 14
 1582 000e FB79     		ldrb	r3, [r7, #7]
 1583 0010 3B73     		strb	r3, [r7, #12]
 336:./basic/structs.c **** 	
 337:./basic/structs.c **** 	bin_val=bcd_val.high_nibble*10;
 1584              		.loc 1 337 17
 1585 0012 3B7B     		ldrb	r3, [r7, #12]
 1586 0014 C3F30313 		ubfx	r3, r3, #4, #4
 1587 0018 DBB2     		uxtb	r3, r3
 1588              		.loc 1 337 9
 1589 001a 9BB2     		uxth	r3, r3
 1590 001c 1A46     		mov	r2, r3	@ movhi
 1591 001e 9200     		lsls	r2, r2, #2
 1592 0020 1344     		add	r3, r3, r2
 1593 0022 5B00     		lsls	r3, r3, #1
 1594 0024 FB81     		strh	r3, [r7, #14]	@ movhi
 338:./basic/structs.c **** 	bin_val+=bcd_val.low_nibble;
 1595              		.loc 1 338 18
 1596 0026 3B7B     		ldrb	r3, [r7, #12]
 1597 0028 C3F30303 		ubfx	r3, r3, #0, #4
 1598 002c DBB2     		uxtb	r3, r3
 1599 002e 9AB2     		uxth	r2, r3
 1600              		.loc 1 338 9
 1601 0030 FB89     		ldrh	r3, [r7, #14]	@ movhi
 1602 0032 1344     		add	r3, r3, r2
 1603 0034 FB81     		strh	r3, [r7, #14]	@ movhi
 339:./basic/structs.c **** 	return bin_val;	
 1604              		.loc 1 339 9
 1605 0036 FB89     		ldrh	r3, [r7, #14]
 340:./basic/structs.c **** }
 1606              		.loc 1 340 1
 1607 0038 1846     		mov	r0, r3
 1608 003a 1437     		adds	r7, r7, #20
 1609              	.LCFI79:
 1610              		.cfi_def_cfa_offset 4
 1611 003c BD46     		mov	sp, r7
 1612              	.LCFI80:
 1613              		.cfi_def_cfa_register 13
 1614              		@ sp needed
 1615 003e 80BC     		pop	{r7}
 1616              	.LCFI81:
 1617              		.cfi_restore 7
ARM GAS  C:\Users\SAMEER~1.ALM\AppData\Local\Temp\ccfCdVir.s 			page 35


 1618              		.cfi_def_cfa_offset 0
 1619 0040 7047     		bx	lr
 1620              		.cfi_endproc
 1621              	.LFE45:
 1623              		.section	.text.bin_to_bcd,"ax",%progbits
 1624              		.align	1
 1625              		.global	bin_to_bcd
 1626              		.syntax unified
 1627              		.thumb
 1628              		.thumb_func
 1630              	bin_to_bcd:
 1631              	.LFB46:
 341:./basic/structs.c **** //--------------------------------------------------------------------------------------------
 342:./basic/structs.c **** /**
 343:./basic/structs.c ****  * @brief 	  converts a binary number to a bcd number
 344:./basic/structs.c ****  * @details   converts a binary number to a bcd number very powerful method
 345:./basic/structs.c ****  * 			  for displaying data on BCD
 346:./basic/structs.c ****  * @param bcd the byte data to be reversed
 347:./basic/structs.c ****  * @return uint16_t 
 348:./basic/structs.c ****  */
 349:./basic/structs.c **** uint8_t bin_to_bcd(uint16_t bin_val)
 350:./basic/structs.c **** {
 1632              		.loc 1 350 1
 1633              		.cfi_startproc
 1634              		@ args = 0, pretend = 0, frame = 16
 1635              		@ frame_needed = 1, uses_anonymous_args = 0
 1636              		@ link register save eliminated.
 1637 0000 80B4     		push	{r7}
 1638              	.LCFI82:
 1639              		.cfi_def_cfa_offset 4
 1640              		.cfi_offset 7, -4
 1641 0002 85B0     		sub	sp, sp, #20
 1642              	.LCFI83:
 1643              		.cfi_def_cfa_offset 24
 1644 0004 00AF     		add	r7, sp, #0
 1645              	.LCFI84:
 1646              		.cfi_def_cfa_register 7
 1647 0006 0346     		mov	r3, r0
 1648 0008 FB80     		strh	r3, [r7, #6]	@ movhi
 351:./basic/structs.c **** 	bcd_t bcd_val;
 352:./basic/structs.c **** 	bcd_val.high_nibble=bin_val/10;
 1649              		.loc 1 352 29
 1650 000a FB88     		ldrh	r3, [r7, #6]
 1651 000c 114A     		ldr	r2, .L53
 1652 000e A2FB0323 		umull	r2, r3, r2, r3
 1653 0012 DB08     		lsrs	r3, r3, #3
 1654 0014 9BB2     		uxth	r3, r3
 1655 0016 03F00F03 		and	r3, r3, #15
 1656 001a DAB2     		uxtb	r2, r3
 1657              		.loc 1 352 21
 1658 001c 3B7B     		ldrb	r3, [r7, #12]
 1659 001e 62F30713 		bfi	r3, r2, #4, #4
 1660 0022 3B73     		strb	r3, [r7, #12]
 353:./basic/structs.c **** 	bcd_val.low_nibble=bin_val%10;
 1661              		.loc 1 353 28
 1662 0024 FA88     		ldrh	r2, [r7, #6]
 1663 0026 0B4B     		ldr	r3, .L53
ARM GAS  C:\Users\SAMEER~1.ALM\AppData\Local\Temp\ccfCdVir.s 			page 36


 1664 0028 A3FB0213 		umull	r1, r3, r3, r2
 1665 002c D908     		lsrs	r1, r3, #3
 1666 002e 0B46     		mov	r3, r1
 1667 0030 9B00     		lsls	r3, r3, #2
 1668 0032 0B44     		add	r3, r3, r1
 1669 0034 5B00     		lsls	r3, r3, #1
 1670 0036 D31A     		subs	r3, r2, r3
 1671 0038 9BB2     		uxth	r3, r3
 1672 003a 03F00F03 		and	r3, r3, #15
 1673 003e DAB2     		uxtb	r2, r3
 1674              		.loc 1 353 20
 1675 0040 3B7B     		ldrb	r3, [r7, #12]
 1676 0042 62F30303 		bfi	r3, r2, #0, #4
 1677 0046 3B73     		strb	r3, [r7, #12]
 354:./basic/structs.c **** 	return bcd_val.byte;
 1678              		.loc 1 354 16
 1679 0048 3B7B     		ldrb	r3, [r7, #12]	@ zero_extendqisi2
 355:./basic/structs.c **** 	
 356:./basic/structs.c **** }
 1680              		.loc 1 356 1
 1681 004a 1846     		mov	r0, r3
 1682 004c 1437     		adds	r7, r7, #20
 1683              	.LCFI85:
 1684              		.cfi_def_cfa_offset 4
 1685 004e BD46     		mov	sp, r7
 1686              	.LCFI86:
 1687              		.cfi_def_cfa_register 13
 1688              		@ sp needed
 1689 0050 80BC     		pop	{r7}
 1690              	.LCFI87:
 1691              		.cfi_restore 7
 1692              		.cfi_def_cfa_offset 0
 1693 0052 7047     		bx	lr
 1694              	.L54:
 1695              		.align	2
 1696              	.L53:
 1697 0054 CDCCCCCC 		.word	-858993459
 1698              		.cfi_endproc
 1699              	.LFE46:
 1701              		.global	__aeabi_dcmplt
 1702              		.global	__aeabi_ddiv
 1703              		.global	__aeabi_dadd
 1704              		.global	__aeabi_d2uiz
 1705              		.global	__aeabi_ui2d
 1706              		.global	__aeabi_dsub
 1707              		.global	__aeabi_d2f
 1708              		.global	__aeabi_fcmplt
 1709              		.global	__aeabi_fmul
 1710              		.global	__aeabi_f2uiz
 1711              		.section	.text.float_to_real,"ax",%progbits
 1712              		.align	1
 1713              		.global	float_to_real
 1714              		.syntax unified
 1715              		.thumb
 1716              		.thumb_func
 1718              	float_to_real:
 1719              	.LFB47:
ARM GAS  C:\Users\SAMEER~1.ALM\AppData\Local\Temp\ccfCdVir.s 			page 37


 357:./basic/structs.c **** //--------------------------------------------------------------------------------------------
 358:./basic/structs.c **** /**
 359:./basic/structs.c ****  * @brief  converts a float number to real_t number
 360:./basic/structs.c ****  * @details this methods help to converts a float number to real_t number
 361:./basic/structs.c ****  * 		    which is very uesfull for display on LCD Display or to send/receive on a bus network
 362:./basic/structs.c ****  * @param number  a float number
 363:./basic/structs.c ****  * @param digits  number of decimal digits (resolution)
 364:./basic/structs.c ****  * @return real_t 
 365:./basic/structs.c ****  */
 366:./basic/structs.c **** lreal_t float_to_real(double number,uint8_t digits)
 367:./basic/structs.c **** {
 1720              		.loc 1 367 1
 1721              		.cfi_startproc
 1722              		@ args = 4, pretend = 0, frame = 56
 1723              		@ frame_needed = 1, uses_anonymous_args = 0
 1724 0000 B0B5     		push	{r4, r5, r7, lr}
 1725              	.LCFI88:
 1726              		.cfi_def_cfa_offset 16
 1727              		.cfi_offset 4, -16
 1728              		.cfi_offset 5, -12
 1729              		.cfi_offset 7, -8
 1730              		.cfi_offset 14, -4
 1731 0002 8EB0     		sub	sp, sp, #56
 1732              	.LCFI89:
 1733              		.cfi_def_cfa_offset 72
 1734 0004 00AF     		add	r7, sp, #0
 1735              	.LCFI90:
 1736              		.cfi_def_cfa_register 7
 1737 0006 F860     		str	r0, [r7, #12]
 1738 0008 C7E90023 		strd	r2, [r7]
 368:./basic/structs.c **** 	lreal_t r={0};
 1739              		.loc 1 368 10
 1740 000c 07F11403 		add	r3, r7, #20
 1741 0010 0022     		movs	r2, #0
 1742 0012 1A60     		str	r2, [r3]
 1743 0014 5A60     		str	r2, [r3, #4]
 1744 0016 9A60     		str	r2, [r3, #8]
 369:./basic/structs.c ****     //r.val=0;	
 370:./basic/structs.c **** 	r.decimal=0;
 1745              		.loc 1 370 11
 1746 0018 0023     		movs	r3, #0
 1747 001a 7B61     		str	r3, [r7, #20]
 371:./basic/structs.c **** 	r.integer=0;
 1748              		.loc 1 371 11
 1749 001c 0023     		movs	r3, #0
 1750 001e BB61     		str	r3, [r7, #24]
 372:./basic/structs.c **** 	r.sig=0;
 1751              		.loc 1 372 7
 1752 0020 0023     		movs	r3, #0
 1753 0022 3B77     		strb	r3, [r7, #28]
 373:./basic/structs.c **** 	r.zero=0;
 1754              		.loc 1 373 8
 1755 0024 0023     		movs	r3, #0
 1756 0026 7B77     		strb	r3, [r7, #29]
 374:./basic/structs.c **** 
 375:./basic/structs.c **** 	if(number<0)
 1757              		.loc 1 375 4
ARM GAS  C:\Users\SAMEER~1.ALM\AppData\Local\Temp\ccfCdVir.s 			page 38


 1758 0028 4FF00002 		mov	r2, #0
 1759 002c 4FF00003 		mov	r3, #0
 1760 0030 D7E90001 		ldrd	r0, [r7]
 1761 0034 FFF7FEFF 		bl	__aeabi_dcmplt
 1762 0038 0346     		mov	r3, r0
 1763 003a 002B     		cmp	r3, #0
 1764 003c 07D0     		beq	.L56
 376:./basic/structs.c **** 	 {
 377:./basic/structs.c **** 		 r.sig=1;
 1765              		.loc 1 377 9
 1766 003e 0123     		movs	r3, #1
 1767 0040 3B77     		strb	r3, [r7, #28]
 378:./basic/structs.c **** 		 number=-number;
 1768              		.loc 1 378 10
 1769 0042 3C68     		ldr	r4, [r7]
 1770 0044 7B68     		ldr	r3, [r7, #4]
 1771 0046 83F00045 		eor	r5, r3, #-2147483648
 1772 004a C7E90045 		strd	r4, [r7]
 1773              	.L56:
 379:./basic/structs.c **** 	 }
 380:./basic/structs.c **** 
 381:./basic/structs.c **** 	// Round correctly so that print(1.999, 2) prints as "2.00"
 382:./basic/structs.c **** 	double rounding = 0.5f;
 1774              		.loc 1 382 9
 1775 004e 4FF00002 		mov	r2, #0
 1776 0052 374B     		ldr	r3, .L67
 1777 0054 C7E90C23 		strd	r2, [r7, #48]
 1778              	.LBB2:
 383:./basic/structs.c **** 	for (uint8_t i=0; i<digits; i++)
 1779              		.loc 1 383 15
 1780 0058 0023     		movs	r3, #0
 1781 005a 87F82F30 		strb	r3, [r7, #47]
 1782              		.loc 1 383 2
 1783 005e 0FE0     		b	.L58
 1784              	.L59:
 384:./basic/structs.c **** 	rounding /= 10.0;
 1785              		.loc 1 384 11 discriminator 3
 1786 0060 4FF00002 		mov	r2, #0
 1787 0064 334B     		ldr	r3, .L67+4
 1788 0066 D7E90C01 		ldrd	r0, [r7, #48]
 1789 006a FFF7FEFF 		bl	__aeabi_ddiv
 1790 006e 0246     		mov	r2, r0
 1791 0070 0B46     		mov	r3, r1
 1792 0072 C7E90C23 		strd	r2, [r7, #48]
 383:./basic/structs.c **** 	for (uint8_t i=0; i<digits; i++)
 1793              		.loc 1 383 31 discriminator 3
 1794 0076 97F82F30 		ldrb	r3, [r7, #47]	@ zero_extendqisi2
 1795 007a 0133     		adds	r3, r3, #1
 1796 007c 87F82F30 		strb	r3, [r7, #47]
 1797              	.L58:
 383:./basic/structs.c **** 	for (uint8_t i=0; i<digits; i++)
 1798              		.loc 1 383 2 discriminator 1
 1799 0080 97F82F20 		ldrb	r2, [r7, #47]	@ zero_extendqisi2
 1800 0084 97F84830 		ldrb	r3, [r7, #72]	@ zero_extendqisi2
 1801 0088 9A42     		cmp	r2, r3
 1802 008a E9D3     		bcc	.L59
 1803              	.LBE2:
ARM GAS  C:\Users\SAMEER~1.ALM\AppData\Local\Temp\ccfCdVir.s 			page 39


 385:./basic/structs.c **** 	number += rounding;//number += 0.05f;
 1804              		.loc 1 385 9
 1805 008c D7E90C23 		ldrd	r2, [r7, #48]
 1806 0090 D7E90001 		ldrd	r0, [r7]
 1807 0094 FFF7FEFF 		bl	__aeabi_dadd
 1808 0098 0246     		mov	r2, r0
 1809 009a 0B46     		mov	r3, r1
 1810 009c C7E90023 		strd	r2, [r7]
 386:./basic/structs.c **** 
 387:./basic/structs.c **** 	// Extract the integer part of the number and print it
 388:./basic/structs.c **** 	unsigned long int_part = (unsigned long)number;
 1811              		.loc 1 388 16
 1812 00a0 D7E90001 		ldrd	r0, [r7]
 1813 00a4 FFF7FEFF 		bl	__aeabi_d2uiz
 1814 00a8 0346     		mov	r3, r0
 1815 00aa 3B62     		str	r3, [r7, #32]
 389:./basic/structs.c ****     float reminder = number - int_part;	
 1816              		.loc 1 389 29
 1817 00ac 386A     		ldr	r0, [r7, #32]
 1818 00ae FFF7FEFF 		bl	__aeabi_ui2d
 1819 00b2 0246     		mov	r2, r0
 1820 00b4 0B46     		mov	r3, r1
 1821 00b6 D7E90001 		ldrd	r0, [r7]
 1822 00ba FFF7FEFF 		bl	__aeabi_dsub
 1823 00be 0246     		mov	r2, r0
 1824 00c0 0B46     		mov	r3, r1
 1825              		.loc 1 389 11
 1826 00c2 1046     		mov	r0, r2
 1827 00c4 1946     		mov	r1, r3
 1828 00c6 FFF7FEFF 		bl	__aeabi_d2f
 1829 00ca 0346     		mov	r3, r0
 1830 00cc BB62     		str	r3, [r7, #40]	@ float
 390:./basic/structs.c **** 
 391:./basic/structs.c **** 	if(reminder<0.1f)
 1831              		.loc 1 391 4
 1832 00ce 1A49     		ldr	r1, .L67+8
 1833 00d0 B86A     		ldr	r0, [r7, #40]	@ float
 1834 00d2 FFF7FEFF 		bl	__aeabi_fcmplt
 1835 00d6 0346     		mov	r3, r0
 1836 00d8 002B     		cmp	r3, #0
 1837 00da 01D0     		beq	.L60
 392:./basic/structs.c **** 		r.zero=1;
 1838              		.loc 1 392 9
 1839 00dc 0123     		movs	r3, #1
 1840 00de 7B77     		strb	r3, [r7, #29]
 1841              	.L60:
 1842              	.LBB3:
 393:./basic/structs.c **** 	// Extract digits from the remainder one at a time
 394:./basic/structs.c **** 	for (uint8_t i=0; i<digits; i++) //while (digits-- > 0)
 1843              		.loc 1 394 15
 1844 00e0 0023     		movs	r3, #0
 1845 00e2 87F82730 		strb	r3, [r7, #39]
 1846              		.loc 1 394 2
 1847 00e6 0AE0     		b	.L62
 1848              	.L63:
 395:./basic/structs.c **** 	   reminder *=10.0f;
 1849              		.loc 1 395 14 discriminator 3
ARM GAS  C:\Users\SAMEER~1.ALM\AppData\Local\Temp\ccfCdVir.s 			page 40


 1850 00e8 1449     		ldr	r1, .L67+12
 1851 00ea B86A     		ldr	r0, [r7, #40]	@ float
 1852 00ec FFF7FEFF 		bl	__aeabi_fmul
 1853 00f0 0346     		mov	r3, r0
 1854 00f2 BB62     		str	r3, [r7, #40]	@ float
 394:./basic/structs.c **** 	   reminder *=10.0f;
 1855              		.loc 1 394 31 discriminator 3
 1856 00f4 97F82730 		ldrb	r3, [r7, #39]	@ zero_extendqisi2
 1857 00f8 0133     		adds	r3, r3, #1
 1858 00fa 87F82730 		strb	r3, [r7, #39]
 1859              	.L62:
 394:./basic/structs.c **** 	   reminder *=10.0f;
 1860              		.loc 1 394 2 discriminator 1
 1861 00fe 97F82720 		ldrb	r2, [r7, #39]	@ zero_extendqisi2
 1862 0102 97F84830 		ldrb	r3, [r7, #72]	@ zero_extendqisi2
 1863 0106 9A42     		cmp	r2, r3
 1864 0108 EED3     		bcc	.L63
 1865              	.LBE3:
 396:./basic/structs.c **** 	//reminder+= 0.5f;
 397:./basic/structs.c **** 
 398:./basic/structs.c **** 	r.integer=int_part;		
 1866              		.loc 1 398 11
 1867 010a 3B6A     		ldr	r3, [r7, #32]
 1868 010c BB61     		str	r3, [r7, #24]
 399:./basic/structs.c **** 	r.decimal=reminder;	 
 1869              		.loc 1 399 11
 1870 010e B86A     		ldr	r0, [r7, #40]	@ float
 1871 0110 FFF7FEFF 		bl	__aeabi_f2uiz
 1872 0114 0346     		mov	r3, r0
 1873 0116 7B61     		str	r3, [r7, #20]
 400:./basic/structs.c **** 		
 401:./basic/structs.c **** 	return r;	
 1874              		.loc 1 401 9
 1875 0118 FB68     		ldr	r3, [r7, #12]
 1876 011a 1C46     		mov	r4, r3
 1877 011c 07F11403 		add	r3, r7, #20
 1878 0120 93E80700 		ldm	r3, {r0, r1, r2}
 1879 0124 84E80700 		stm	r4, {r0, r1, r2}
 402:./basic/structs.c **** }
 1880              		.loc 1 402 1
 1881 0128 F868     		ldr	r0, [r7, #12]
 1882 012a 3837     		adds	r7, r7, #56
 1883              	.LCFI91:
 1884              		.cfi_def_cfa_offset 16
 1885 012c BD46     		mov	sp, r7
 1886              	.LCFI92:
 1887              		.cfi_def_cfa_register 13
 1888              		@ sp needed
 1889 012e B0BD     		pop	{r4, r5, r7, pc}
 1890              	.L68:
 1891              		.align	2
 1892              	.L67:
 1893 0130 0000E03F 		.word	1071644672
 1894 0134 00002440 		.word	1076101120
 1895 0138 CDCCCC3D 		.word	1036831949
 1896 013c 00002041 		.word	1092616192
 1897              		.cfi_endproc
ARM GAS  C:\Users\SAMEER~1.ALM\AppData\Local\Temp\ccfCdVir.s 			page 41


 1898              	.LFE47:
 1900              		.global	__aeabi_ui2f
 1901              		.global	__aeabi_fdiv
 1902              		.global	__aeabi_fadd
 1903              		.section	.text.real_to_float,"ax",%progbits
 1904              		.align	1
 1905              		.global	real_to_float
 1906              		.syntax unified
 1907              		.thumb
 1908              		.thumb_func
 1910              	real_to_float:
 1911              	.LFB48:
 403:./basic/structs.c **** //--------------------------------------------------------------------------------------------
 404:./basic/structs.c **** /**
 405:./basic/structs.c ****  * @brief  converts an real_t number to a float number 
 406:./basic/structs.c ****  * @details this methods help to converts a received reat_l numbers to float number
 407:./basic/structs.c ****  * 		    which is very uesfull for display on LCD Display or to send/receive on a bus network
 408:./basic/structs.c ****  * @param number  a float number
 409:./basic/structs.c ****  * @param digits  number of decimal digits (resolution)
 410:./basic/structs.c ****  * @return real_t 
 411:./basic/structs.c ****  */
 412:./basic/structs.c **** float real_to_float(real_t r,uint8_t digits)
 413:./basic/structs.c **** {
 1912              		.loc 1 413 1
 1913              		.cfi_startproc
 1914              		@ args = 0, pretend = 0, frame = 32
 1915              		@ frame_needed = 1, uses_anonymous_args = 0
 1916 0000 80B5     		push	{r7, lr}
 1917              	.LCFI93:
 1918              		.cfi_def_cfa_offset 8
 1919              		.cfi_offset 7, -8
 1920              		.cfi_offset 14, -4
 1921 0002 88B0     		sub	sp, sp, #32
 1922              	.LCFI94:
 1923              		.cfi_def_cfa_offset 40
 1924 0004 00AF     		add	r7, sp, #0
 1925              	.LCFI95:
 1926              		.cfi_def_cfa_register 7
 1927 0006 07F10803 		add	r3, r7, #8
 1928 000a 83E80300 		stm	r3, {r0, r1}
 1929 000e 1346     		mov	r3, r2
 1930 0010 FB71     		strb	r3, [r7, #7]
 414:./basic/structs.c **** 	float number=0,reminder=0;
 1931              		.loc 1 414 8
 1932 0012 4FF00003 		mov	r3, #0
 1933 0016 FB61     		str	r3, [r7, #28]	@ float
 1934              		.loc 1 414 17
 1935 0018 4FF00003 		mov	r3, #0
 1936 001c BB61     		str	r3, [r7, #24]	@ float
 415:./basic/structs.c **** 	number=r.integer;
 1937              		.loc 1 415 10
 1938 001e 7B89     		ldrh	r3, [r7, #10]
 1939              		.loc 1 415 8
 1940 0020 1846     		mov	r0, r3
 1941 0022 FFF7FEFF 		bl	__aeabi_ui2f
 1942 0026 0346     		mov	r3, r0
 1943 0028 FB61     		str	r3, [r7, #28]	@ float
ARM GAS  C:\Users\SAMEER~1.ALM\AppData\Local\Temp\ccfCdVir.s 			page 42


 416:./basic/structs.c **** 	reminder = (float)r.decimal;
 1944              		.loc 1 416 21
 1945 002a 3B7A     		ldrb	r3, [r7, #8]	@ zero_extendqisi2
 1946              		.loc 1 416 11
 1947 002c 1846     		mov	r0, r3
 1948 002e FFF7FEFF 		bl	__aeabi_ui2f
 1949 0032 0346     		mov	r3, r0
 1950 0034 BB61     		str	r3, [r7, #24]	@ float
 1951              	.LBB4:
 417:./basic/structs.c **** 
 418:./basic/structs.c **** 	for (uint8_t i=0; i<digits; ++i)
 1952              		.loc 1 418 15
 1953 0036 0023     		movs	r3, #0
 1954 0038 FB75     		strb	r3, [r7, #23]
 1955              		.loc 1 418 2
 1956 003a 08E0     		b	.L70
 1957              	.L71:
 419:./basic/structs.c **** 		reminder /= 10.0;
 1958              		.loc 1 419 12 discriminator 3
 1959 003c 0F49     		ldr	r1, .L74
 1960 003e B869     		ldr	r0, [r7, #24]	@ float
 1961 0040 FFF7FEFF 		bl	__aeabi_fdiv
 1962 0044 0346     		mov	r3, r0
 1963 0046 BB61     		str	r3, [r7, #24]	@ float
 418:./basic/structs.c **** 		reminder /= 10.0;
 1964              		.loc 1 418 30 discriminator 3
 1965 0048 FB7D     		ldrb	r3, [r7, #23]
 1966 004a 0133     		adds	r3, r3, #1
 1967 004c FB75     		strb	r3, [r7, #23]
 1968              	.L70:
 418:./basic/structs.c **** 		reminder /= 10.0;
 1969              		.loc 1 418 2 discriminator 1
 1970 004e FA7D     		ldrb	r2, [r7, #23]	@ zero_extendqisi2
 1971 0050 FB79     		ldrb	r3, [r7, #7]	@ zero_extendqisi2
 1972 0052 9A42     		cmp	r2, r3
 1973 0054 F2D3     		bcc	.L71
 1974              	.LBE4:
 420:./basic/structs.c ****  
 421:./basic/structs.c ****     number+=reminder;
 1975              		.loc 1 421 11
 1976 0056 B969     		ldr	r1, [r7, #24]	@ float
 1977 0058 F869     		ldr	r0, [r7, #28]	@ float
 1978 005a FFF7FEFF 		bl	__aeabi_fadd
 1979 005e 0346     		mov	r3, r0
 1980 0060 FB61     		str	r3, [r7, #28]	@ float
 422:./basic/structs.c **** 	
 423:./basic/structs.c **** 	if(r.sig==1)
 1981              		.loc 1 423 6
 1982 0062 3B7B     		ldrb	r3, [r7, #12]	@ zero_extendqisi2
 1983              		.loc 1 423 4
 1984 0064 012B     		cmp	r3, #1
 1985 0066 03D1     		bne	.L72
 424:./basic/structs.c **** 	number=-number;
 1986              		.loc 1 424 8
 1987 0068 FB69     		ldr	r3, [r7, #28]
 1988 006a 83F00043 		eor	r3, r3, #-2147483648
 1989 006e FB61     		str	r3, [r7, #28]	@ float
ARM GAS  C:\Users\SAMEER~1.ALM\AppData\Local\Temp\ccfCdVir.s 			page 43


 1990              	.L72:
 425:./basic/structs.c **** 	return number;
 1991              		.loc 1 425 9
 1992 0070 FB69     		ldr	r3, [r7, #28]	@ float
 426:./basic/structs.c **** }
 1993              		.loc 1 426 1
 1994 0072 1846     		mov	r0, r3
 1995 0074 2037     		adds	r7, r7, #32
 1996              	.LCFI96:
 1997              		.cfi_def_cfa_offset 8
 1998 0076 BD46     		mov	sp, r7
 1999              	.LCFI97:
 2000              		.cfi_def_cfa_register 13
 2001              		@ sp needed
 2002 0078 80BD     		pop	{r7, pc}
 2003              	.L75:
 2004 007a 00BF     		.align	2
 2005              	.L74:
 2006 007c 00002041 		.word	1092616192
 2007              		.cfi_endproc
 2008              	.LFE48:
 2010              		.text
 2011              	.Letext0:
 2012              		.file 2 "c:\\arm-tool\\gcc-arm-none-eabi-10.3-2021.10\\arm-none-eabi\\include\\machine\\_default_t
 2013              		.file 3 "c:\\arm-tool\\gcc-arm-none-eabi-10.3-2021.10\\arm-none-eabi\\include\\sys\\_stdint.h"
 2014              		.file 4 "./basic/structs.h"
ARM GAS  C:\Users\SAMEER~1.ALM\AppData\Local\Temp\ccfCdVir.s 			page 44


DEFINED SYMBOLS
                            *ABS*:00000000 structs.c
C:\Users\SAMEER~1.ALM\AppData\Local\Temp\ccfCdVir.s:18     .text.clc_sum_16bit:00000000 $t
C:\Users\SAMEER~1.ALM\AppData\Local\Temp\ccfCdVir.s:24     .text.clc_sum_16bit:00000000 clc_sum_16bit
C:\Users\SAMEER~1.ALM\AppData\Local\Temp\ccfCdVir.s:97     .text.clc_avg_16bit:00000000 $t
C:\Users\SAMEER~1.ALM\AppData\Local\Temp\ccfCdVir.s:103    .text.clc_avg_16bit:00000000 clc_avg_16bit
C:\Users\SAMEER~1.ALM\AppData\Local\Temp\ccfCdVir.s:179    .text.clc_avg_32bit:00000000 $t
C:\Users\SAMEER~1.ALM\AppData\Local\Temp\ccfCdVir.s:185    .text.clc_avg_32bit:00000000 clc_avg_32bit
C:\Users\SAMEER~1.ALM\AppData\Local\Temp\ccfCdVir.s:259    .text.avg_real:00000000 $t
C:\Users\SAMEER~1.ALM\AppData\Local\Temp\ccfCdVir.s:265    .text.avg_real:00000000 avg_real
C:\Users\SAMEER~1.ALM\AppData\Local\Temp\ccfCdVir.s:443    .text.avg_real:000000f0 $d
C:\Users\SAMEER~1.ALM\AppData\Local\Temp\ccfCdVir.s:448    .text.cmp_real:00000000 $t
C:\Users\SAMEER~1.ALM\AppData\Local\Temp\ccfCdVir.s:454    .text.cmp_real:00000000 cmp_real
C:\Users\SAMEER~1.ALM\AppData\Local\Temp\ccfCdVir.s:588    .text.add_real:00000000 $t
C:\Users\SAMEER~1.ALM\AppData\Local\Temp\ccfCdVir.s:594    .text.add_real:00000000 add_real
C:\Users\SAMEER~1.ALM\AppData\Local\Temp\ccfCdVir.s:770    .text.add_real:000000f4 $d
C:\Users\SAMEER~1.ALM\AppData\Local\Temp\ccfCdVir.s:775    .text.sub_real:00000000 $t
C:\Users\SAMEER~1.ALM\AppData\Local\Temp\ccfCdVir.s:781    .text.sub_real:00000000 sub_real
C:\Users\SAMEER~1.ALM\AppData\Local\Temp\ccfCdVir.s:838    .text.inc_real:00000000 $t
C:\Users\SAMEER~1.ALM\AppData\Local\Temp\ccfCdVir.s:844    .text.inc_real:00000000 inc_real
C:\Users\SAMEER~1.ALM\AppData\Local\Temp\ccfCdVir.s:896    .text.dec_real:00000000 $t
C:\Users\SAMEER~1.ALM\AppData\Local\Temp\ccfCdVir.s:902    .text.dec_real:00000000 dec_real
C:\Users\SAMEER~1.ALM\AppData\Local\Temp\ccfCdVir.s:962    .text.reverse_byte:00000000 $t
C:\Users\SAMEER~1.ALM\AppData\Local\Temp\ccfCdVir.s:968    .text.reverse_byte:00000000 reverse_byte
C:\Users\SAMEER~1.ALM\AppData\Local\Temp\ccfCdVir.s:1074   .text.reverse_word:00000000 $t
C:\Users\SAMEER~1.ALM\AppData\Local\Temp\ccfCdVir.s:1080   .text.reverse_word:00000000 reverse_word
C:\Users\SAMEER~1.ALM\AppData\Local\Temp\ccfCdVir.s:1250   .text.reverse_dword:00000000 $t
C:\Users\SAMEER~1.ALM\AppData\Local\Temp\ccfCdVir.s:1256   .text.reverse_dword:00000000 reverse_dword
C:\Users\SAMEER~1.ALM\AppData\Local\Temp\ccfCdVir.s:1553   .text.bcd_to_bin:00000000 $t
C:\Users\SAMEER~1.ALM\AppData\Local\Temp\ccfCdVir.s:1559   .text.bcd_to_bin:00000000 bcd_to_bin
C:\Users\SAMEER~1.ALM\AppData\Local\Temp\ccfCdVir.s:1624   .text.bin_to_bcd:00000000 $t
C:\Users\SAMEER~1.ALM\AppData\Local\Temp\ccfCdVir.s:1630   .text.bin_to_bcd:00000000 bin_to_bcd
C:\Users\SAMEER~1.ALM\AppData\Local\Temp\ccfCdVir.s:1697   .text.bin_to_bcd:00000054 $d
C:\Users\SAMEER~1.ALM\AppData\Local\Temp\ccfCdVir.s:1712   .text.float_to_real:00000000 $t
C:\Users\SAMEER~1.ALM\AppData\Local\Temp\ccfCdVir.s:1718   .text.float_to_real:00000000 float_to_real
C:\Users\SAMEER~1.ALM\AppData\Local\Temp\ccfCdVir.s:1893   .text.float_to_real:00000130 $d
C:\Users\SAMEER~1.ALM\AppData\Local\Temp\ccfCdVir.s:1904   .text.real_to_float:00000000 $t
C:\Users\SAMEER~1.ALM\AppData\Local\Temp\ccfCdVir.s:1910   .text.real_to_float:00000000 real_to_float
C:\Users\SAMEER~1.ALM\AppData\Local\Temp\ccfCdVir.s:2006   .text.real_to_float:0000007c $d
                           .group:00000000 wm4.0.f4779009c199947b70d43074c2c41c8e
                           .group:00000000 wm4.stm32f10x.h.50.d4f13d34ecdc4ac490487d4d35cb5131
                           .group:00000000 wm4.core_cm3.h.25.d35e9a9b04ec4aaebae9bf79fff061f9
                           .group:00000000 wm4._newlib_version.h.4.bfdf54b0af045d4a71376ae00f63a22c
                           .group:00000000 wm4.features.h.33.318b64d71e0957639cfb30f1db1f7ec8
                           .group:00000000 wm4._default_types.h.15.247e5cd201eca3442cbf5404108c4935
                           .group:00000000 wm4._intsup.h.10.48bafbb683905c4daa4565a85aeeb264
                           .group:00000000 wm4._stdint.h.10.c24fa3af3bc1706662bb5593a907e841
                           .group:00000000 wm4.stdint.h.23.d53047a68f4a85177f80b422d52785ed
                           .group:00000000 wm4.core_cm3.h.113.b286929a54d33b4c8909a7132437b244
                           .group:00000000 wm4.stm32f10x.h.525.b40cb5ee4fd40825ea8ccc10ea6f4722
                           .group:00000000 wm4.stm32f10x_adc.h.82.085dab8bb2bdf6609e97ee2fc7a88347
                           .group:00000000 wm4.stm32f10x_bkp.h.24.9f1bb2b1135ba72667dd3fcde11cf4b7
                           .group:00000000 wm4.stm32f10x_can.h.24.b871c380ea975c71825bf46cccde3c7a
                           .group:00000000 wm4.stm32f10x_cec.h.24.a1ee61cba6b8120b5bab40528e933770
                           .group:00000000 wm4.stm32f10x_dac.h.24.39482d0fe30ddea181f0c79f49fb629e
                           .group:00000000 wm4.stm32f10x_dbgmcu.h.24.f73145056e79bc5a93dd6677b2b33d54
                           .group:00000000 wm4.stm32f10x_dma.h.24.a48d4478db5b2956954d84bc5fd35ae1
ARM GAS  C:\Users\SAMEER~1.ALM\AppData\Local\Temp\ccfCdVir.s 			page 45


                           .group:00000000 wm4.stm32f10x_exti.h.24.377f48157d7e463bb3841cf6c97a1c93
                           .group:00000000 wm4.stm32f10x_flash.h.24.877157533caf7ce4331c44a3d0ea5612
                           .group:00000000 wm4.stm32f10x_fsmc.h.24.0518485f192fab09dd5cfc912ded3186
                           .group:00000000 wm4.stm32f10x_gpio.h.24.b627ee324fedf5e3b8730fa015ea30de
                           .group:00000000 wm4.stm32f10x_i2c.h.24.8bc26b82f9e7563ca7234eabea47534c
                           .group:00000000 wm4.stm32f10x_iwdg.h.24.129c4cff233d2076aefd5fc4fbf5956b
                           .group:00000000 wm4.stm32f10x_pwr.h.24.98a178bf0c8fa18634174f1c1123c7bc
                           .group:00000000 wm4.stm32f10x_rcc.h.24.43948985157a0da383ddce718b66f782
                           .group:00000000 wm4.stm32f10x_rtc.h.24.496e77df0282a7f4dc79c6de18da3ecc
                           .group:00000000 wm4.stm32f10x_sdio.h.24.646055cc54873a75158b5d1015b409e6
                           .group:00000000 wm4.stm32f10x_spi.h.24.e7b2623920274a1745e534a7a7156e76
                           .group:00000000 wm4.stm32f10x_tim.h.24.24ac72f04686046a18ee9117ff7bba1f
                           .group:00000000 wm4.stm32f10x_usart.h.24.cf5f8d8e971fad2927ee799886f23b78
                           .group:00000000 wm4.stm32f10x_wwdg.h.24.7f7037b09db3a78d5a9de97b2cba748a
                           .group:00000000 wm4.misc.h.24.c54738789d48fd25c957e9d7c7349497
                           .group:00000000 wm4.stm32f10x.h.8349.9a0c7ea810a74ad6d06203f1a551aebb
                           .group:00000000 wm4.ieeefp.h.77.25247dc27dbe3b23bfe98c2dc18f6ac5
                           .group:00000000 wm4.newlib.h.8.4679f89e52c9f69cd44f3a27cd28c759
                           .group:00000000 wm4.config.h.224.79362c3cdb280fe0b8d95bd0bc4d5c54
                           .group:00000000 wm4._ansi.h.31.de524f58584151836e90d8620a16f8e8
                           .group:00000000 wm4.stdlib.h.13.4ed386f5c1a80d71e72172885d946ef2
                           .group:00000000 wm4.stddef.h.181.13772e73e5434e8cc4fafaaddad2b5da
                           .group:00000000 wm4.stddef.h.39.cf3ebec0bc8c9e3d2f276a64e0fe5e7a
                           .group:00000000 wm4._types.h.20.dd0d04dca3800a0d2a6129b87f3adbb2
                           .group:00000000 wm4.stddef.h.155.3588ebfdd1e8c7ede80509bb9c3b8009
                           .group:00000000 wm4._types.h.127.34941de1b2539d59d5cac00e0dd27a45
                           .group:00000000 wm4.reent.h.17.e292bf8b0bec6c96e131a54347145a30
                           .group:00000000 wm4.lock.h.2.1461d1fff82dffe8bfddc23307f6484f
                           .group:00000000 wm4.reent.h.77.32fd7d280fc2a40b0797abce5beaf6e3
                           .group:00000000 wm4.assert.h.11.db24e541f16414db224bf986d21017e2
                           .group:00000000 wm4.reent.h.504.40d20ade344680fbcb6a0178bf7ae09e
                           .group:00000000 wm4.cdefs.h.49.39045112216f6a021dbdffe3bf5accce
                           .group:00000000 wm4.alloca.h.8.dfc0c703c47ec3e69746825b17d9e66d
                           .group:00000000 wm4.stdlib.h.56.f4862cfbf4363a1db01842d5bdf72c18
                           .group:00000000 wm4.stdio.h.27.3fc80220048df77954e38daec3bb9670
                           .group:00000000 wm4.stddef.h.155.ba788add86a0e365f264484f110c3c29
                           .group:00000000 wm4.stdarg.h.34.3a23a216c0c293b3d2ea2e89281481e6
                           .group:00000000 wm4.types.h.40.8b6acba56cefbb11746718204edc8f5e
                           .group:00000000 wm4._endian.h.31.65a10590763c3dde1ac4a7f66d7d4891
                           .group:00000000 wm4.endian.h.9.49f3a4695c1b61e8a0808de3c4a106cb
                           .group:00000000 wm4._timeval.h.32.bec3221fa7a9bb0bdde696c9c57e47d2
                           .group:00000000 wm4.timespec.h.41.d855182eb0e690443ab8651bcedca6e1
                           .group:00000000 wm4.select.h.19.40cd3f2bfc456b193b790c2754690ebf
                           .group:00000000 wm4.types.h.51.5571ec98f267d17d3c670b7a3ba33afa
                           .group:00000000 wm4.sched.h.22.c60982713a5c428609783c78f9c78d95
                           .group:00000000 wm4._pthreadtypes.h.36.fcee9961c35163dde6267ef772ad1972
                           .group:00000000 wm4.stdio.h.2.4aa87247282eca6c8f36f9de33d8df1a
                           .group:00000000 wm4.stdio.h.81.60a2ded7dae310b81f9d6907fe5e3dbf
                           .group:00000000 wm4.stdarg.h.31.3fa7b8f6daaa31edd1696c08c77f2a73
                           .group:00000000 wm4.stdalign.h.27.0aad28df4d66a8553430227d1bac48aa
                           .group:00000000 wm4.ctype.h.34.80f174baaec468e2eb1c07380b0b3287
                           .group:00000000 wm4.inttypes.h.14.b28deb26920e51e0da310220ef0f9003
                           .group:00000000 wm4.inttypes.h.28.c3e61b48c6ae3a7cb62609add2dd53d1
                           .group:00000000 wm4.math.h.13.4f4c30988c5d76b6bf30dd7e2791b7c6
                           .group:00000000 wm4.syslimits.h.34.de5cbd310098bc5895998b6bde577ed2
                           .group:00000000 wm4.limits.h.9.70fb0ada6f71b16202a66baaa6d8ea70
                           .group:00000000 wm4.limits.h.60.56a1ae353e2028a24298ec6463b8b593
ARM GAS  C:\Users\SAMEER~1.ALM\AppData\Local\Temp\ccfCdVir.s 			page 46


                           .group:00000000 wm4.string.h.8.c4b8571ce60dff2817f43fec8b86aecd
                           .group:00000000 wm4.basic.h.43.2d669d0e281f2a7583ad0da99046413d
                           .group:00000000 wm4.phy.h.43.a806668fd6b193a83e00fcf9e3814821
                           .group:00000000 wm4.structs.h.12.142e94c12fffe9b2bba6755d00a8ad91
                           .group:00000000 wm4.time.h.12.ca6eecf26198e1bc6166f71fd8292735
                           .group:00000000 wm4.initmacro.h.4.2927af5a543f65dade9f92f80a04dc35
                           .group:00000000 wm4.i2ccom.h.10.147b279fb90e839345ab35ddb589e0ce
                           .group:00000000 wm4.i2cstd.h.10.d432c3988f9748933a79fb991e070438
                           .group:00000000 wm4.i2c.h.24.666d2983f106290f51d8fe2e4e0034bc
                           .group:00000000 wm4.mpu6050.h.10.38cdb8b04d26be567bd69a6269d225c3
                           .group:00000000 wm4.uart.h.10.038a6d9ab9b8d6aefd66f3a92e73c3f1
                           .group:00000000 wm4.lcd.h.11.3a2e2f95e46d234fe99d1d3e8f20de18
                           .group:00000000 wm4.systemtask.h.12.4111f050c12db00791331b8757fbd5d2

UNDEFINED SYMBOLS
__aeabi_dcmplt
__aeabi_ddiv
__aeabi_dadd
__aeabi_d2uiz
__aeabi_ui2d
__aeabi_dsub
__aeabi_d2f
__aeabi_fcmplt
__aeabi_fmul
__aeabi_f2uiz
__aeabi_ui2f
__aeabi_fdiv
__aeabi_fadd
