ARM GAS  C:\Users\SAMEER~1.ALM\AppData\Local\Temp\cc2X80Yo.s 			page 1


   1              		.cpu cortex-m3
   2              		.arch armv7-m
   3              		.fpu softvfp
   4              		.eabi_attribute 20, 1
   5              		.eabi_attribute 21, 1
   6              		.eabi_attribute 23, 3
   7              		.eabi_attribute 24, 1
   8              		.eabi_attribute 25, 1
   9              		.eabi_attribute 26, 1
  10              		.eabi_attribute 30, 6
  11              		.eabi_attribute 34, 1
  12              		.eabi_attribute 18, 4
  13              		.file	"time.cpp"
  14              		.text
  15              	.Ltext0:
  16              		.cfi_sections	.debug_frame
  17              		.section	.text._Z8_timeoutPhh,"ax",%progbits
  18              		.align	1
  19              		.global	_Z8_timeoutPhh
  20              		.syntax unified
  21              		.thumb
  22              		.thumb_func
  24              	_Z8_timeoutPhh:
  25              	.LFB256:
  26              		.file 1 "./basic/time.cpp"
   1:./basic/time.cpp **** /**
   2:./basic/time.cpp ****  * @brief time.c
   3:./basic/time.cpp ****  *
   4:./basic/time.cpp ****  * @param student: Sameer Almaldein
   5:./basic/time.cpp ****  * @param ID: 679699
   6:./basic/time.cpp ****  * @param University TU-Chemnitz
   7:./basic/time.cpp ****  * @param Master : ASE(Automotive Software Engineering )
   8:./basic/time.cpp ****  */ 
   9:./basic/time.cpp **** //********************************************************************************************
  10:./basic/time.cpp **** //
  11:./basic/time.cpp **** //   header files
  12:./basic/time.cpp **** //
  13:./basic/time.cpp **** //********************************************************************************************
  14:./basic/time.cpp **** #include "basic.h"
  15:./basic/time.cpp **** //********************************************************************************************
  16:./basic/time.cpp **** //
  17:./basic/time.cpp **** //   global variables
  18:./basic/time.cpp **** //
  19:./basic/time.cpp **** //********************************************************************************************
  20:./basic/time.cpp **** //********************************************************************************************
  21:./basic/time.cpp **** //
  22:./basic/time.cpp **** //   static  functions' definitions
  23:./basic/time.cpp **** //
  24:./basic/time.cpp **** //********************************************************************************************
  25:./basic/time.cpp ****  uint8_t _timeout(uint8_t *p,uint8_t len)
  26:./basic/time.cpp ****  {
  27              		.loc 1 26 2
  28              		.cfi_startproc
  29              		@ args = 0, pretend = 0, frame = 16
  30              		@ frame_needed = 1, uses_anonymous_args = 0
  31              		@ link register save eliminated.
  32 0000 80B4     		push	{r7}
ARM GAS  C:\Users\SAMEER~1.ALM\AppData\Local\Temp\cc2X80Yo.s 			page 2


  33              	.LCFI0:
  34              		.cfi_def_cfa_offset 4
  35              		.cfi_offset 7, -4
  36 0002 85B0     		sub	sp, sp, #20
  37              	.LCFI1:
  38              		.cfi_def_cfa_offset 24
  39 0004 00AF     		add	r7, sp, #0
  40              	.LCFI2:
  41              		.cfi_def_cfa_register 7
  42 0006 7860     		str	r0, [r7, #4]
  43 0008 0B46     		mov	r3, r1
  44 000a FB70     		strb	r3, [r7, #3]
  27:./basic/time.cpp ****   uint8_t flg=1;
  45              		.loc 1 27 11
  46 000c 0123     		movs	r3, #1
  47 000e FB73     		strb	r3, [r7, #15]
  48              	.LBB2:
  28:./basic/time.cpp ****  for(uint8_t i=0; i<len;i++)
  49              		.loc 1 28 14
  50 0010 0023     		movs	r3, #0
  51 0012 BB73     		strb	r3, [r7, #14]
  52              	.L4:
  53              		.loc 1 28 20 discriminator 1
  54 0014 BA7B     		ldrb	r2, [r7, #14]	@ zero_extendqisi2
  55 0016 FB78     		ldrb	r3, [r7, #3]	@ zero_extendqisi2
  56 0018 9A42     		cmp	r2, r3
  57 001a 0CD2     		bcs	.L2
  29:./basic/time.cpp **** 	if(p[i]!=0)
  58              		.loc 1 29 7
  59 001c BB7B     		ldrb	r3, [r7, #14]	@ zero_extendqisi2
  60              		.loc 1 29 8
  61 001e 7A68     		ldr	r2, [r7, #4]
  62 0020 1344     		add	r3, r3, r2
  63 0022 1B78     		ldrb	r3, [r3]	@ zero_extendqisi2
  64              		.loc 1 29 2
  65 0024 002B     		cmp	r3, #0
  66 0026 02D0     		beq	.L3
  30:./basic/time.cpp **** 	{
  31:./basic/time.cpp **** 		flg=0;
  67              		.loc 1 31 6
  68 0028 0023     		movs	r3, #0
  69 002a FB73     		strb	r3, [r7, #15]
  32:./basic/time.cpp **** 		break;
  70              		.loc 1 32 3
  71 002c 03E0     		b	.L2
  72              	.L3:
  28:./basic/time.cpp **** 	if(p[i]!=0)
  73              		.loc 1 28 2 discriminator 2
  74 002e BB7B     		ldrb	r3, [r7, #14]	@ zero_extendqisi2
  75 0030 0133     		adds	r3, r3, #1
  76 0032 BB73     		strb	r3, [r7, #14]
  77 0034 EEE7     		b	.L4
  78              	.L2:
  79              	.LBE2:
  33:./basic/time.cpp **** 	}
  34:./basic/time.cpp **** 
  35:./basic/time.cpp ****    return flg;
ARM GAS  C:\Users\SAMEER~1.ALM\AppData\Local\Temp\cc2X80Yo.s 			page 3


  80              		.loc 1 35 11
  81 0036 FB7B     		ldrb	r3, [r7, #15]	@ zero_extendqisi2
  36:./basic/time.cpp ****  }
  82              		.loc 1 36 2
  83 0038 1846     		mov	r0, r3
  84 003a 1437     		adds	r7, r7, #20
  85              	.LCFI3:
  86              		.cfi_def_cfa_offset 4
  87 003c BD46     		mov	sp, r7
  88              	.LCFI4:
  89              		.cfi_def_cfa_register 13
  90              		@ sp needed
  91 003e 80BC     		pop	{r7}
  92              	.LCFI5:
  93              		.cfi_restore 7
  94              		.cfi_def_cfa_offset 0
  95 0040 7047     		bx	lr
  96              		.cfi_endproc
  97              	.LFE256:
  99              		.section	.bss._ZZ9_decrmentPhhE5index,"aw",%nobits
 102              	_ZZ9_decrmentPhhE5index:
 103 0000 00       		.space	1
 104              		.section	.bss._ZZ9_decrmentPhhE1i,"aw",%nobits
 107              	_ZZ9_decrmentPhhE1i:
 108 0000 00       		.space	1
 109              		.section	.text._Z9_decrmentPhh,"ax",%progbits
 110              		.align	1
 111              		.global	_Z9_decrmentPhh
 112              		.syntax unified
 113              		.thumb
 114              		.thumb_func
 116              	_Z9_decrmentPhh:
 117              	.LFB257:
  37:./basic/time.cpp **** //-------------------------------------------------------------------------------------------------
  38:./basic/time.cpp **** void _decrment(uint8_t *p, uint8_t len)
  39:./basic/time.cpp **** {
 118              		.loc 1 39 1
 119              		.cfi_startproc
 120              		@ args = 0, pretend = 0, frame = 8
 121              		@ frame_needed = 1, uses_anonymous_args = 0
 122 0000 80B5     		push	{r7, lr}
 123              	.LCFI6:
 124              		.cfi_def_cfa_offset 8
 125              		.cfi_offset 7, -8
 126              		.cfi_offset 14, -4
 127 0002 82B0     		sub	sp, sp, #8
 128              	.LCFI7:
 129              		.cfi_def_cfa_offset 16
 130 0004 00AF     		add	r7, sp, #0
 131              	.LCFI8:
 132              		.cfi_def_cfa_register 7
 133 0006 7860     		str	r0, [r7, #4]
 134 0008 0B46     		mov	r3, r1
 135 000a FB70     		strb	r3, [r7, #3]
  40:./basic/time.cpp **** static uint8_t index=0,i=0;
  41:./basic/time.cpp **** if(p[index]!=0) p[index]--;
 136              		.loc 1 41 6
ARM GAS  C:\Users\SAMEER~1.ALM\AppData\Local\Temp\cc2X80Yo.s 			page 4


 137 000c 2C4B     		ldr	r3, .L14
 138 000e 1B78     		ldrb	r3, [r3]	@ zero_extendqisi2
 139 0010 1A46     		mov	r2, r3
 140              		.loc 1 41 11
 141 0012 7B68     		ldr	r3, [r7, #4]
 142 0014 1344     		add	r3, r3, r2
 143 0016 1B78     		ldrb	r3, [r3]	@ zero_extendqisi2
 144              		.loc 1 41 1
 145 0018 002B     		cmp	r3, #0
 146 001a 09D0     		beq	.L7
 147              		.loc 1 41 19 discriminator 1
 148 001c 284B     		ldr	r3, .L14
 149 001e 1B78     		ldrb	r3, [r3]	@ zero_extendqisi2
 150 0020 1A46     		mov	r2, r3
 151              		.loc 1 41 24 discriminator 1
 152 0022 7B68     		ldr	r3, [r7, #4]
 153 0024 1344     		add	r3, r3, r2
 154 0026 1A78     		ldrb	r2, [r3]	@ zero_extendqisi2
 155              		.loc 1 41 25 discriminator 1
 156 0028 013A     		subs	r2, r2, #1
 157 002a D2B2     		uxtb	r2, r2
 158 002c 1A70     		strb	r2, [r3]
 159 002e 43E0     		b	.L6
 160              	.L7:
  42:./basic/time.cpp **** else{
  43:./basic/time.cpp **** 	index++;
 161              		.loc 1 43 7
 162 0030 234B     		ldr	r3, .L14
 163 0032 1B78     		ldrb	r3, [r3]	@ zero_extendqisi2
 164 0034 0133     		adds	r3, r3, #1
 165 0036 DAB2     		uxtb	r2, r3
 166 0038 214B     		ldr	r3, .L14
 167 003a 1A70     		strb	r2, [r3]
  44:./basic/time.cpp **** 	if(index==len)return;
 168              		.loc 1 44 10
 169 003c 204B     		ldr	r3, .L14
 170 003e 1B78     		ldrb	r3, [r3]	@ zero_extendqisi2
 171              		.loc 1 44 2
 172 0040 FA78     		ldrb	r2, [r7, #3]	@ zero_extendqisi2
 173 0042 9A42     		cmp	r2, r3
 174 0044 37D0     		beq	.L13
  45:./basic/time.cpp **** 
  46:./basic/time.cpp **** 	if(p[index]!=0)
 175              		.loc 1 46 7
 176 0046 1E4B     		ldr	r3, .L14
 177 0048 1B78     		ldrb	r3, [r3]	@ zero_extendqisi2
 178 004a 1A46     		mov	r2, r3
 179              		.loc 1 46 12
 180 004c 7B68     		ldr	r3, [r7, #4]
 181 004e 1344     		add	r3, r3, r2
 182 0050 1B78     		ldrb	r3, [r3]	@ zero_extendqisi2
 183              		.loc 1 46 2
 184 0052 002B     		cmp	r3, #0
 185 0054 26D0     		beq	.L10
  47:./basic/time.cpp **** 	{
  48:./basic/time.cpp **** 		p[index]--;
 186              		.loc 1 48 5
ARM GAS  C:\Users\SAMEER~1.ALM\AppData\Local\Temp\cc2X80Yo.s 			page 5


 187 0056 1A4B     		ldr	r3, .L14
 188 0058 1B78     		ldrb	r3, [r3]	@ zero_extendqisi2
 189 005a 1A46     		mov	r2, r3
 190              		.loc 1 48 10
 191 005c 7B68     		ldr	r3, [r7, #4]
 192 005e 1344     		add	r3, r3, r2
 193 0060 1A78     		ldrb	r2, [r3]	@ zero_extendqisi2
 194              		.loc 1 48 11
 195 0062 013A     		subs	r2, r2, #1
 196 0064 D2B2     		uxtb	r2, r2
 197 0066 1A70     		strb	r2, [r3]
  49:./basic/time.cpp **** 
  50:./basic/time.cpp **** 		for(i=0;i<index;i++)
 198              		.loc 1 50 8
 199 0068 164B     		ldr	r3, .L14+4
 200 006a 0022     		movs	r2, #0
 201 006c 1A70     		strb	r2, [r3]
 202              	.L12:
 203              		.loc 1 50 12 discriminator 3
 204 006e 154B     		ldr	r3, .L14+4
 205 0070 1A78     		ldrb	r2, [r3]	@ zero_extendqisi2
 206 0072 134B     		ldr	r3, .L14
 207 0074 1B78     		ldrb	r3, [r3]	@ zero_extendqisi2
 208 0076 9A42     		cmp	r2, r3
 209 0078 0DD2     		bcs	.L11
  51:./basic/time.cpp **** 			p[i]=59;
 210              		.loc 1 51 6 discriminator 2
 211 007a 124B     		ldr	r3, .L14+4
 212 007c 1B78     		ldrb	r3, [r3]	@ zero_extendqisi2
 213 007e 1A46     		mov	r2, r3
 214              		.loc 1 51 7 discriminator 2
 215 0080 7B68     		ldr	r3, [r7, #4]
 216 0082 1344     		add	r3, r3, r2
 217              		.loc 1 51 8 discriminator 2
 218 0084 3B22     		movs	r2, #59
 219 0086 1A70     		strb	r2, [r3]
  50:./basic/time.cpp **** 			p[i]=59;
 220              		.loc 1 50 3 discriminator 2
 221 0088 0E4B     		ldr	r3, .L14+4
 222 008a 1B78     		ldrb	r3, [r3]	@ zero_extendqisi2
 223 008c 0133     		adds	r3, r3, #1
 224 008e DAB2     		uxtb	r2, r3
 225 0090 0C4B     		ldr	r3, .L14+4
 226 0092 1A70     		strb	r2, [r3]
 227 0094 EBE7     		b	.L12
 228              	.L11:
  52:./basic/time.cpp **** 		index--;
 229              		.loc 1 52 8
 230 0096 0A4B     		ldr	r3, .L14
 231 0098 1B78     		ldrb	r3, [r3]	@ zero_extendqisi2
 232 009a 013B     		subs	r3, r3, #1
 233 009c DAB2     		uxtb	r2, r3
 234 009e 084B     		ldr	r3, .L14
 235 00a0 1A70     		strb	r2, [r3]
 236 00a2 09E0     		b	.L6
 237              	.L10:
  53:./basic/time.cpp **** 	}
ARM GAS  C:\Users\SAMEER~1.ALM\AppData\Local\Temp\cc2X80Yo.s 			page 6


  54:./basic/time.cpp **** 	else{
  55:./basic/time.cpp **** 	_decrment(p,len);
 238              		.loc 1 55 11
 239 00a4 FB78     		ldrb	r3, [r7, #3]	@ zero_extendqisi2
 240 00a6 1946     		mov	r1, r3
 241 00a8 7868     		ldr	r0, [r7, #4]
 242 00aa FFF7FEFF 		bl	_Z9_decrmentPhh
  56:./basic/time.cpp **** 	index=0;
 243              		.loc 1 56 7
 244 00ae 044B     		ldr	r3, .L14
 245 00b0 0022     		movs	r2, #0
 246 00b2 1A70     		strb	r2, [r3]
 247 00b4 00E0     		b	.L6
 248              	.L13:
  44:./basic/time.cpp **** 
 249              		.loc 1 44 16
 250 00b6 00BF     		nop
 251              	.L6:
  57:./basic/time.cpp **** 	}
  58:./basic/time.cpp ****  }
  59:./basic/time.cpp **** 
  60:./basic/time.cpp **** }
 252              		.loc 1 60 1
 253 00b8 0837     		adds	r7, r7, #8
 254              	.LCFI9:
 255              		.cfi_def_cfa_offset 8
 256 00ba BD46     		mov	sp, r7
 257              	.LCFI10:
 258              		.cfi_def_cfa_register 13
 259              		@ sp needed
 260 00bc 80BD     		pop	{r7, pc}
 261              	.L15:
 262 00be 00BF     		.align	2
 263              	.L14:
 264 00c0 00000000 		.word	_ZZ9_decrmentPhhE5index
 265 00c4 00000000 		.word	_ZZ9_decrmentPhhE1i
 266              		.cfi_endproc
 267              	.LFE257:
 269              		.section	.text._Z14minute_timeoutP6_min_t,"ax",%progbits
 270              		.align	1
 271              		.global	_Z14minute_timeoutP6_min_t
 272              		.syntax unified
 273              		.thumb
 274              		.thumb_func
 276              	_Z14minute_timeoutP6_min_t:
 277              	.LFB258:
  61:./basic/time.cpp **** //-------------------------------------------------------------------------------------------------
  62:./basic/time.cpp **** //********************************************************************************************
  63:./basic/time.cpp **** //
  64:./basic/time.cpp **** //   functions' definitions
  65:./basic/time.cpp **** //
  66:./basic/time.cpp **** //********************************************************************************************
  67:./basic/time.cpp **** uint8_t minute_timeout(minute_t* p)
  68:./basic/time.cpp **** {
 278              		.loc 1 68 1
 279              		.cfi_startproc
 280              		@ args = 0, pretend = 0, frame = 8
ARM GAS  C:\Users\SAMEER~1.ALM\AppData\Local\Temp\cc2X80Yo.s 			page 7


 281              		@ frame_needed = 1, uses_anonymous_args = 0
 282              		@ link register save eliminated.
 283 0000 80B4     		push	{r7}
 284              	.LCFI11:
 285              		.cfi_def_cfa_offset 4
 286              		.cfi_offset 7, -4
 287 0002 83B0     		sub	sp, sp, #12
 288              	.LCFI12:
 289              		.cfi_def_cfa_offset 16
 290 0004 00AF     		add	r7, sp, #0
 291              	.LCFI13:
 292              		.cfi_def_cfa_register 7
 293 0006 7860     		str	r0, [r7, #4]
  69:./basic/time.cpp **** 	if(p->val==0)
 294              		.loc 1 69 8
 295 0008 7B68     		ldr	r3, [r7, #4]
 296 000a 1B88     		ldrh	r3, [r3]
 297              		.loc 1 69 2
 298 000c 002B     		cmp	r3, #0
 299 000e 01D1     		bne	.L17
  70:./basic/time.cpp **** 	 return 1;
 300              		.loc 1 70 10
 301 0010 0123     		movs	r3, #1
 302 0012 00E0     		b	.L18
 303              	.L17:
  71:./basic/time.cpp **** 	return 0;
 304              		.loc 1 71 9
 305 0014 0023     		movs	r3, #0
 306              	.L18:
  72:./basic/time.cpp **** }
 307              		.loc 1 72 1
 308 0016 1846     		mov	r0, r3
 309 0018 0C37     		adds	r7, r7, #12
 310              	.LCFI14:
 311              		.cfi_def_cfa_offset 4
 312 001a BD46     		mov	sp, r7
 313              	.LCFI15:
 314              		.cfi_def_cfa_register 13
 315              		@ sp needed
 316 001c 80BC     		pop	{r7}
 317              	.LCFI16:
 318              		.cfi_restore 7
 319              		.cfi_def_cfa_offset 0
 320 001e 7047     		bx	lr
 321              		.cfi_endproc
 322              	.LFE258:
 324              		.section	.text._Z12hour_timeoutP7_hour_t,"ax",%progbits
 325              		.align	1
 326              		.global	_Z12hour_timeoutP7_hour_t
 327              		.syntax unified
 328              		.thumb
 329              		.thumb_func
 331              	_Z12hour_timeoutP7_hour_t:
 332              	.LFB259:
  73:./basic/time.cpp **** //----------------------------------------------------------------------------------
  74:./basic/time.cpp **** uint8_t hour_timeout(hour_t* p)
  75:./basic/time.cpp **** {
ARM GAS  C:\Users\SAMEER~1.ALM\AppData\Local\Temp\cc2X80Yo.s 			page 8


 333              		.loc 1 75 1
 334              		.cfi_startproc
 335              		@ args = 0, pretend = 0, frame = 8
 336              		@ frame_needed = 1, uses_anonymous_args = 0
 337              		@ link register save eliminated.
 338 0000 80B4     		push	{r7}
 339              	.LCFI17:
 340              		.cfi_def_cfa_offset 4
 341              		.cfi_offset 7, -4
 342 0002 83B0     		sub	sp, sp, #12
 343              	.LCFI18:
 344              		.cfi_def_cfa_offset 16
 345 0004 00AF     		add	r7, sp, #0
 346              	.LCFI19:
 347              		.cfi_def_cfa_register 7
 348 0006 7860     		str	r0, [r7, #4]
  76:./basic/time.cpp **** 	if(p->val==0)
 349              		.loc 1 76 8
 350 0008 7B68     		ldr	r3, [r7, #4]
 351 000a 1B88     		ldrh	r3, [r3]
 352              		.loc 1 76 2
 353 000c 002B     		cmp	r3, #0
 354 000e 01D1     		bne	.L20
  77:./basic/time.cpp **** 	return 1;
 355              		.loc 1 77 9
 356 0010 0123     		movs	r3, #1
 357 0012 00E0     		b	.L21
 358              	.L20:
  78:./basic/time.cpp **** 	return 0;
 359              		.loc 1 78 9
 360 0014 0023     		movs	r3, #0
 361              	.L21:
  79:./basic/time.cpp **** }
 362              		.loc 1 79 1
 363 0016 1846     		mov	r0, r3
 364 0018 0C37     		adds	r7, r7, #12
 365              	.LCFI20:
 366              		.cfi_def_cfa_offset 4
 367 001a BD46     		mov	sp, r7
 368              	.LCFI21:
 369              		.cfi_def_cfa_register 13
 370              		@ sp needed
 371 001c 80BC     		pop	{r7}
 372              	.LCFI22:
 373              		.cfi_restore 7
 374              		.cfi_def_cfa_offset 0
 375 001e 7047     		bx	lr
 376              		.cfi_endproc
 377              	.LFE259:
 379              		.section	.text._Z14period_timeoutP9_period_t,"ax",%progbits
 380              		.align	1
 381              		.global	_Z14period_timeoutP9_period_t
 382              		.syntax unified
 383              		.thumb
 384              		.thumb_func
 386              	_Z14period_timeoutP9_period_t:
 387              	.LFB260:
ARM GAS  C:\Users\SAMEER~1.ALM\AppData\Local\Temp\cc2X80Yo.s 			page 9


  80:./basic/time.cpp **** //----------------------------------------------------------------------------------
  81:./basic/time.cpp **** uint8_t period_timeout(period_t* p)
  82:./basic/time.cpp **** {
 388              		.loc 1 82 1
 389              		.cfi_startproc
 390              		@ args = 0, pretend = 0, frame = 8
 391              		@ frame_needed = 1, uses_anonymous_args = 0
 392              		@ link register save eliminated.
 393 0000 80B4     		push	{r7}
 394              	.LCFI23:
 395              		.cfi_def_cfa_offset 4
 396              		.cfi_offset 7, -4
 397 0002 83B0     		sub	sp, sp, #12
 398              	.LCFI24:
 399              		.cfi_def_cfa_offset 16
 400 0004 00AF     		add	r7, sp, #0
 401              	.LCFI25:
 402              		.cfi_def_cfa_register 7
 403 0006 7860     		str	r0, [r7, #4]
  83:./basic/time.cpp **** 	if(p->val==0)
 404              		.loc 1 83 8
 405 0008 7B68     		ldr	r3, [r7, #4]
 406 000a 1B88     		ldrh	r3, [r3]
 407              		.loc 1 83 2
 408 000c 002B     		cmp	r3, #0
 409 000e 01D1     		bne	.L23
  84:./basic/time.cpp **** 	return 1;
 410              		.loc 1 84 9
 411 0010 0123     		movs	r3, #1
 412 0012 00E0     		b	.L24
 413              	.L23:
  85:./basic/time.cpp **** 	return 0;
 414              		.loc 1 85 9
 415 0014 0023     		movs	r3, #0
 416              	.L24:
  86:./basic/time.cpp **** }
 417              		.loc 1 86 1
 418 0016 1846     		mov	r0, r3
 419 0018 0C37     		adds	r7, r7, #12
 420              	.LCFI26:
 421              		.cfi_def_cfa_offset 4
 422 001a BD46     		mov	sp, r7
 423              	.LCFI27:
 424              		.cfi_def_cfa_register 13
 425              		@ sp needed
 426 001c 80BC     		pop	{r7}
 427              	.LCFI28:
 428              		.cfi_restore 7
 429              		.cfi_def_cfa_offset 0
 430 001e 7047     		bx	lr
 431              		.cfi_endproc
 432              	.LFE260:
 434              		.section	.text._Z18ext_period_timeoutP13_ext_period_t,"ax",%progbits
 435              		.align	1
 436              		.global	_Z18ext_period_timeoutP13_ext_period_t
 437              		.syntax unified
 438              		.thumb
ARM GAS  C:\Users\SAMEER~1.ALM\AppData\Local\Temp\cc2X80Yo.s 			page 10


 439              		.thumb_func
 441              	_Z18ext_period_timeoutP13_ext_period_t:
 442              	.LFB261:
  87:./basic/time.cpp **** //----------------------------------------------------------------------------------
  88:./basic/time.cpp **** uint8_t ext_period_timeout(ext_period_t* p)
  89:./basic/time.cpp **** {
 443              		.loc 1 89 1
 444              		.cfi_startproc
 445              		@ args = 0, pretend = 0, frame = 8
 446              		@ frame_needed = 1, uses_anonymous_args = 0
 447              		@ link register save eliminated.
 448 0000 80B4     		push	{r7}
 449              	.LCFI29:
 450              		.cfi_def_cfa_offset 4
 451              		.cfi_offset 7, -4
 452 0002 83B0     		sub	sp, sp, #12
 453              	.LCFI30:
 454              		.cfi_def_cfa_offset 16
 455 0004 00AF     		add	r7, sp, #0
 456              	.LCFI31:
 457              		.cfi_def_cfa_register 7
 458 0006 7860     		str	r0, [r7, #4]
  90:./basic/time.cpp ****   if(p->hour==0 && p->minute==0 && p->second==0)
 459              		.loc 1 90 9
 460 0008 7B68     		ldr	r3, [r7, #4]
 461 000a 9B78     		ldrb	r3, [r3, #2]	@ zero_extendqisi2
 462              		.loc 1 90 3
 463 000c 002B     		cmp	r3, #0
 464 000e 09D1     		bne	.L26
 465              		.loc 1 90 23 discriminator 1
 466 0010 7B68     		ldr	r3, [r7, #4]
 467 0012 5B78     		ldrb	r3, [r3, #1]	@ zero_extendqisi2
 468              		.loc 1 90 17 discriminator 1
 469 0014 002B     		cmp	r3, #0
 470 0016 05D1     		bne	.L26
 471              		.loc 1 90 39 discriminator 2
 472 0018 7B68     		ldr	r3, [r7, #4]
 473 001a 1B78     		ldrb	r3, [r3]	@ zero_extendqisi2
 474              		.loc 1 90 33 discriminator 2
 475 001c 002B     		cmp	r3, #0
 476 001e 01D1     		bne	.L26
  91:./basic/time.cpp **** 	return 1;
 477              		.loc 1 91 9
 478 0020 0123     		movs	r3, #1
 479 0022 00E0     		b	.L27
 480              	.L26:
  92:./basic/time.cpp ****   return 0;
 481              		.loc 1 92 10
 482 0024 0023     		movs	r3, #0
 483              	.L27:
  93:./basic/time.cpp **** }
 484              		.loc 1 93 1
 485 0026 1846     		mov	r0, r3
 486 0028 0C37     		adds	r7, r7, #12
 487              	.LCFI32:
 488              		.cfi_def_cfa_offset 4
 489 002a BD46     		mov	sp, r7
ARM GAS  C:\Users\SAMEER~1.ALM\AppData\Local\Temp\cc2X80Yo.s 			page 11


 490              	.LCFI33:
 491              		.cfi_def_cfa_register 13
 492              		@ sp needed
 493 002c 80BC     		pop	{r7}
 494              	.LCFI34:
 495              		.cfi_restore 7
 496              		.cfi_def_cfa_offset 0
 497 002e 7047     		bx	lr
 498              		.cfi_endproc
 499              	.LFE261:
 501              		.section	.text._Z12time_timeoutP7_time_t,"ax",%progbits
 502              		.align	1
 503              		.global	_Z12time_timeoutP7_time_t
 504              		.syntax unified
 505              		.thumb
 506              		.thumb_func
 508              	_Z12time_timeoutP7_time_t:
 509              	.LFB262:
  94:./basic/time.cpp **** //----------------------------------------------------------------------------------
  95:./basic/time.cpp **** uint8_t time_timeout(_time_t* p)
  96:./basic/time.cpp **** {
 510              		.loc 1 96 1
 511              		.cfi_startproc
 512              		@ args = 0, pretend = 0, frame = 8
 513              		@ frame_needed = 1, uses_anonymous_args = 0
 514              		@ link register save eliminated.
 515 0000 80B4     		push	{r7}
 516              	.LCFI35:
 517              		.cfi_def_cfa_offset 4
 518              		.cfi_offset 7, -4
 519 0002 83B0     		sub	sp, sp, #12
 520              	.LCFI36:
 521              		.cfi_def_cfa_offset 16
 522 0004 00AF     		add	r7, sp, #0
 523              	.LCFI37:
 524              		.cfi_def_cfa_register 7
 525 0006 7860     		str	r0, [r7, #4]
  97:./basic/time.cpp ****    if(p->val==0)
 526              		.loc 1 97 10
 527 0008 7B68     		ldr	r3, [r7, #4]
 528 000a 1B68     		ldr	r3, [r3]
 529              		.loc 1 97 4
 530 000c 002B     		cmp	r3, #0
 531 000e 01D1     		bne	.L29
  98:./basic/time.cpp **** 	return 1;
 532              		.loc 1 98 9
 533 0010 0123     		movs	r3, #1
 534 0012 00E0     		b	.L30
 535              	.L29:
  99:./basic/time.cpp ****    return 0;
 536              		.loc 1 99 11
 537 0014 0023     		movs	r3, #0
 538              	.L30:
 100:./basic/time.cpp **** }
 539              		.loc 1 100 1
 540 0016 1846     		mov	r0, r3
 541 0018 0C37     		adds	r7, r7, #12
ARM GAS  C:\Users\SAMEER~1.ALM\AppData\Local\Temp\cc2X80Yo.s 			page 12


 542              	.LCFI38:
 543              		.cfi_def_cfa_offset 4
 544 001a BD46     		mov	sp, r7
 545              	.LCFI39:
 546              		.cfi_def_cfa_register 13
 547              		@ sp needed
 548 001c 80BC     		pop	{r7}
 549              	.LCFI40:
 550              		.cfi_restore 7
 551              		.cfi_def_cfa_offset 0
 552 001e 7047     		bx	lr
 553              		.cfi_endproc
 554              	.LFE262:
 556              		.section	.text._Z10minute_decP6_min_t,"ax",%progbits
 557              		.align	1
 558              		.global	_Z10minute_decP6_min_t
 559              		.syntax unified
 560              		.thumb
 561              		.thumb_func
 563              	_Z10minute_decP6_min_t:
 564              	.LFB263:
 101:./basic/time.cpp **** //----------------------------------------------------------------------------------
 102:./basic/time.cpp **** void minute_dec(minute_t* p)
 103:./basic/time.cpp **** {
 565              		.loc 1 103 1
 566              		.cfi_startproc
 567              		@ args = 0, pretend = 0, frame = 8
 568              		@ frame_needed = 1, uses_anonymous_args = 0
 569 0000 80B5     		push	{r7, lr}
 570              	.LCFI41:
 571              		.cfi_def_cfa_offset 8
 572              		.cfi_offset 7, -8
 573              		.cfi_offset 14, -4
 574 0002 82B0     		sub	sp, sp, #8
 575              	.LCFI42:
 576              		.cfi_def_cfa_offset 16
 577 0004 00AF     		add	r7, sp, #0
 578              	.LCFI43:
 579              		.cfi_def_cfa_register 7
 580 0006 7860     		str	r0, [r7, #4]
 104:./basic/time.cpp ****  _decrment(p->Array,sizeof(minute_t));
 581              		.loc 1 104 15
 582 0008 7B68     		ldr	r3, [r7, #4]
 583              		.loc 1 104 11
 584 000a 0221     		movs	r1, #2
 585 000c 1846     		mov	r0, r3
 586 000e FFF7FEFF 		bl	_Z9_decrmentPhh
 105:./basic/time.cpp **** }
 587              		.loc 1 105 1
 588 0012 00BF     		nop
 589 0014 0837     		adds	r7, r7, #8
 590              	.LCFI44:
 591              		.cfi_def_cfa_offset 8
 592 0016 BD46     		mov	sp, r7
 593              	.LCFI45:
 594              		.cfi_def_cfa_register 13
 595              		@ sp needed
ARM GAS  C:\Users\SAMEER~1.ALM\AppData\Local\Temp\cc2X80Yo.s 			page 13


 596 0018 80BD     		pop	{r7, pc}
 597              		.cfi_endproc
 598              	.LFE263:
 600              		.section	.text._Z10period_decP9_period_t,"ax",%progbits
 601              		.align	1
 602              		.global	_Z10period_decP9_period_t
 603              		.syntax unified
 604              		.thumb
 605              		.thumb_func
 607              	_Z10period_decP9_period_t:
 608              	.LFB264:
 106:./basic/time.cpp **** //----------------------------------------------------------------------------------
 107:./basic/time.cpp **** /*void hour_dec(hour_t* p)
 108:./basic/time.cpp **** {
 109:./basic/time.cpp **** 	_decrment(p->Array,sizeof(hour_t));
 110:./basic/time.cpp **** }*/
 111:./basic/time.cpp **** //----------------------------------------------------------------------------------
 112:./basic/time.cpp **** void period_dec(period_t* p)
 113:./basic/time.cpp **** {
 609              		.loc 1 113 1
 610              		.cfi_startproc
 611              		@ args = 0, pretend = 0, frame = 8
 612              		@ frame_needed = 1, uses_anonymous_args = 0
 613 0000 80B5     		push	{r7, lr}
 614              	.LCFI46:
 615              		.cfi_def_cfa_offset 8
 616              		.cfi_offset 7, -8
 617              		.cfi_offset 14, -4
 618 0002 82B0     		sub	sp, sp, #8
 619              	.LCFI47:
 620              		.cfi_def_cfa_offset 16
 621 0004 00AF     		add	r7, sp, #0
 622              	.LCFI48:
 623              		.cfi_def_cfa_register 7
 624 0006 7860     		str	r0, [r7, #4]
 114:./basic/time.cpp ****   	_decrment(p->Array,sizeof(period_t));
 625              		.loc 1 114 17
 626 0008 7B68     		ldr	r3, [r7, #4]
 627              		.loc 1 114 13
 628 000a 0221     		movs	r1, #2
 629 000c 1846     		mov	r0, r3
 630 000e FFF7FEFF 		bl	_Z9_decrmentPhh
 115:./basic/time.cpp **** }
 631              		.loc 1 115 1
 632 0012 00BF     		nop
 633 0014 0837     		adds	r7, r7, #8
 634              	.LCFI49:
 635              		.cfi_def_cfa_offset 8
 636 0016 BD46     		mov	sp, r7
 637              	.LCFI50:
 638              		.cfi_def_cfa_register 13
 639              		@ sp needed
 640 0018 80BD     		pop	{r7, pc}
 641              		.cfi_endproc
 642              	.LFE264:
 644              		.section	.text._Z14ext_period_decP13_ext_period_t,"ax",%progbits
 645              		.align	1
ARM GAS  C:\Users\SAMEER~1.ALM\AppData\Local\Temp\cc2X80Yo.s 			page 14


 646              		.global	_Z14ext_period_decP13_ext_period_t
 647              		.syntax unified
 648              		.thumb
 649              		.thumb_func
 651              	_Z14ext_period_decP13_ext_period_t:
 652              	.LFB265:
 116:./basic/time.cpp **** //----------------------------------------------------------------------------------
 117:./basic/time.cpp **** void ext_period_dec(ext_period_t* p)
 118:./basic/time.cpp **** {
 653              		.loc 1 118 1
 654              		.cfi_startproc
 655              		@ args = 0, pretend = 0, frame = 8
 656              		@ frame_needed = 1, uses_anonymous_args = 0
 657 0000 80B5     		push	{r7, lr}
 658              	.LCFI51:
 659              		.cfi_def_cfa_offset 8
 660              		.cfi_offset 7, -8
 661              		.cfi_offset 14, -4
 662 0002 82B0     		sub	sp, sp, #8
 663              	.LCFI52:
 664              		.cfi_def_cfa_offset 16
 665 0004 00AF     		add	r7, sp, #0
 666              	.LCFI53:
 667              		.cfi_def_cfa_register 7
 668 0006 7860     		str	r0, [r7, #4]
 119:./basic/time.cpp **** 	_decrment(p->Array,sizeof(ext_period_t));
 669              		.loc 1 119 15
 670 0008 7B68     		ldr	r3, [r7, #4]
 671              		.loc 1 119 11
 672 000a 0321     		movs	r1, #3
 673 000c 1846     		mov	r0, r3
 674 000e FFF7FEFF 		bl	_Z9_decrmentPhh
 120:./basic/time.cpp **** }
 675              		.loc 1 120 1
 676 0012 00BF     		nop
 677 0014 0837     		adds	r7, r7, #8
 678              	.LCFI54:
 679              		.cfi_def_cfa_offset 8
 680 0016 BD46     		mov	sp, r7
 681              	.LCFI55:
 682              		.cfi_def_cfa_register 13
 683              		@ sp needed
 684 0018 80BD     		pop	{r7, pc}
 685              		.cfi_endproc
 686              	.LFE265:
 688              		.section	.text._Z8time_decP7_time_t,"ax",%progbits
 689              		.align	1
 690              		.global	_Z8time_decP7_time_t
 691              		.syntax unified
 692              		.thumb
 693              		.thumb_func
 695              	_Z8time_decP7_time_t:
 696              	.LFB266:
 121:./basic/time.cpp **** //----------------------------------------------------------------------------------
 122:./basic/time.cpp **** void time_dec(_time_t* p)
 123:./basic/time.cpp **** {
 697              		.loc 1 123 1
ARM GAS  C:\Users\SAMEER~1.ALM\AppData\Local\Temp\cc2X80Yo.s 			page 15


 698              		.cfi_startproc
 699              		@ args = 0, pretend = 0, frame = 8
 700              		@ frame_needed = 1, uses_anonymous_args = 0
 701 0000 80B5     		push	{r7, lr}
 702              	.LCFI56:
 703              		.cfi_def_cfa_offset 8
 704              		.cfi_offset 7, -8
 705              		.cfi_offset 14, -4
 706 0002 82B0     		sub	sp, sp, #8
 707              	.LCFI57:
 708              		.cfi_def_cfa_offset 16
 709 0004 00AF     		add	r7, sp, #0
 710              	.LCFI58:
 711              		.cfi_def_cfa_register 7
 712 0006 7860     		str	r0, [r7, #4]
 124:./basic/time.cpp **** 	_decrment(p->Array,sizeof(_time_t));
 713              		.loc 1 124 15
 714 0008 7B68     		ldr	r3, [r7, #4]
 715              		.loc 1 124 11
 716 000a 0421     		movs	r1, #4
 717 000c 1846     		mov	r0, r3
 718 000e FFF7FEFF 		bl	_Z9_decrmentPhh
 125:./basic/time.cpp **** }
 719              		.loc 1 125 1
 720 0012 00BF     		nop
 721 0014 0837     		adds	r7, r7, #8
 722              	.LCFI59:
 723              		.cfi_def_cfa_offset 8
 724 0016 BD46     		mov	sp, r7
 725              	.LCFI60:
 726              		.cfi_def_cfa_register 13
 727              		@ sp needed
 728 0018 80BD     		pop	{r7, pc}
 729              		.cfi_endproc
 730              	.LFE266:
 732              		.text
 733              	.Letext0:
 734              		.file 2 "c:\\arm-tool\\gcc-arm-none-eabi-10.3-2021.10\\arm-none-eabi\\include\\machine\\_default_t
 735              		.file 3 "c:\\arm-tool\\gcc-arm-none-eabi-10.3-2021.10\\arm-none-eabi\\include\\sys\\_stdint.h"
 736              		.file 4 "c:\\arm-tool\\gcc-arm-none-eabi-10.3-2021.10\\arm-none-eabi\\include\\c++\\10.3.1\\cstdli
 737              		.file 5 "c:\\arm-tool\\gcc-arm-none-eabi-10.3-2021.10\\arm-none-eabi\\include\\c++\\10.3.1\\bits\\
 738              		.file 6 "c:\\arm-tool\\gcc-arm-none-eabi-10.3-2021.10\\arm-none-eabi\\include\\c++\\10.3.1\\cmath"
 739              		.file 7 "c:\\arm-tool\\gcc-arm-none-eabi-10.3-2021.10\\arm-none-eabi\\include\\c++\\10.3.1\\arm-no
 740              		.file 8 "c:\\arm-tool\\gcc-arm-none-eabi-10.3-2021.10\\lib\\gcc\\arm-none-eabi\\10.3.1\\include\\s
 741              		.file 9 "c:\\arm-tool\\gcc-arm-none-eabi-10.3-2021.10\\arm-none-eabi\\include\\stdlib.h"
 742              		.file 10 "c:\\arm-tool\\gcc-arm-none-eabi-10.3-2021.10\\arm-none-eabi\\include\\c++\\10.3.1\\stdli
 743              		.file 11 "c:\\arm-tool\\gcc-arm-none-eabi-10.3-2021.10\\arm-none-eabi\\include\\math.h"
 744              		.file 12 "c:\\arm-tool\\gcc-arm-none-eabi-10.3-2021.10\\arm-none-eabi\\include\\c++\\10.3.1\\math.
 745              		.file 13 "./basic/time.h"
 746              		.file 14 "<built-in>"
ARM GAS  C:\Users\SAMEER~1.ALM\AppData\Local\Temp\cc2X80Yo.s 			page 16

