ARM GAS  C:\Users\SAMEER~1.ALM\AppData\Local\Temp\ccXJ6CLf.s 			page 1


   1              		.cpu cortex-m3
   2              		.arch armv7-m
   3              		.fpu softvfp
   4              		.eabi_attribute 20, 1
   5              		.eabi_attribute 21, 1
   6              		.eabi_attribute 23, 3
   7              		.eabi_attribute 24, 1
   8              		.eabi_attribute 25, 1
   9              		.eabi_attribute 26, 1
  10              		.eabi_attribute 30, 6
  11              		.eabi_attribute 34, 1
  12              		.eabi_attribute 18, 4
  13              		.file	"uart-cmd.c"
  14              		.text
  15              	.Ltext0:
  16              		.cfi_sections	.debug_frame
  17              		.section	.rodata
  18              		.align	2
  19              	.LC0:
  20 0000 70617261 		.ascii	"parameter is incorrect ....!\000"
  20      6D657465 
  20      72206973 
  20      20696E63 
  20      6F727265 
  21 001d 000000   		.align	2
  22              	.LC1:
  23 0020 7061725F 		.ascii	"par_start:\000"
  23      73746172 
  23      743A00
  24 002b 00       		.align	2
  25              	.LC2:
  26 002c 7061725F 		.ascii	"par_end:\000"
  26      656E643A 
  26      00
  27              		.section	.text.uart_param_handle,"ax",%progbits
  28              		.align	1
  29              		.syntax unified
  30              		.thumb
  31              		.thumb_func
  33              	uart_param_handle:
  34              	.LFB33:
  35              		.file 1 "./uart/uart-cmd.c"
   1:./uart/uart-cmd.c **** /**
   2:./uart/uart-cmd.c ****  * @brief uart-cmd.c
   3:./uart/uart-cmd.c ****  *
   4:./uart/uart-cmd.c ****  * @param student: Sameer Almaldein
   5:./uart/uart-cmd.c ****  * @param ID: 679699
   6:./uart/uart-cmd.c ****  * @param University TU-Chemnitz
   7:./uart/uart-cmd.c ****  * @param Master : ASE(Automotive Software Engineering )
   8:./uart/uart-cmd.c ****  */ 
   9:./uart/uart-cmd.c **** //********************************************************************************************
  10:./uart/uart-cmd.c **** //
  11:./uart/uart-cmd.c **** // include header files
  12:./uart/uart-cmd.c **** //
  13:./uart/uart-cmd.c **** //********************************************************************************************
  14:./uart/uart-cmd.c **** #include "init.h"
  15:./uart/uart-cmd.c **** 
ARM GAS  C:\Users\SAMEER~1.ALM\AppData\Local\Temp\ccXJ6CLf.s 			page 2


  16:./uart/uart-cmd.c **** //********************************************************************************************
  17:./uart/uart-cmd.c **** //
  18:./uart/uart-cmd.c **** // global variables' declarations 
  19:./uart/uart-cmd.c **** //
  20:./uart/uart-cmd.c **** //********************************************************************************************
  21:./uart/uart-cmd.c **** //********************************************************************************************
  22:./uart/uart-cmd.c **** //
  23:./uart/uart-cmd.c **** // static variables' declarations 
  24:./uart/uart-cmd.c **** //
  25:./uart/uart-cmd.c **** //********************************************************************************************
  26:./uart/uart-cmd.c **** //********************************************************************************************
  27:./uart/uart-cmd.c **** //
  28:./uart/uart-cmd.c **** //  static function ProtoType
  29:./uart/uart-cmd.c **** //
  30:./uart/uart-cmd.c **** //********************************************************************************************
  31:./uart/uart-cmd.c **** //! handles the parameter string to later use it during executing the command
  32:./uart/uart-cmd.c **** //static void  uart_param_handle(uint8_t * param, size_t param_len);
  33:./uart/uart-cmd.c **** //! execute the command string with both the parameters and values strings
  34:./uart/uart-cmd.c **** //static void  uart_param_exeute(uint8_t * param, size_t param_len,uint8_t * data, size_t data_len)
  35:./uart/uart-cmd.c **** 
  36:./uart/uart-cmd.c **** //! handles the parameter string to for a spcific parameter 
  37:./uart/uart-cmd.c **** static void  uart_param_handle(USART_TypeDef * usartx,uint8_t cmd,uint8_t * param, size_t param_len
  38:./uart/uart-cmd.c **** //! handles the parameter as an array_t type with command value 
  39:./uart/uart-cmd.c **** static void  uart_param_array_handle(USART_TypeDef * usartx,uint8_t cmd,array_t param);
  40:./uart/uart-cmd.c **** 
  41:./uart/uart-cmd.c **** //! execute the command with both the parameters and values strings
  42:./uart/uart-cmd.c **** static void  uart_cmd_param_exeute(USART_TypeDef * usartx,uint8_t cmd,uint8_t * param, size_t param
  43:./uart/uart-cmd.c **** 
  44:./uart/uart-cmd.c **** 
  45:./uart/uart-cmd.c **** //! execute the command with both the parameter struct and a command value 
  46:./uart/uart-cmd.c **** static void uart_param_exeute(USART_TypeDef * usartx,uint8_t cmd,param_t p);
  47:./uart/uart-cmd.c **** 
  48:./uart/uart-cmd.c **** //! handles the parameters value array of the tx command
  49:./uart/uart-cmd.c **** 
  50:./uart/uart-cmd.c **** //static uint8_t  uart_tx_param_handle(uint8_t * data, size_t data_len);
  51:./uart/uart-cmd.c **** //! execute the tx command with the parameters value as a struct
  52:./uart/uart-cmd.c **** //static uint8_t  uart_tx_param_execute(param_t p);
  53:./uart/uart-cmd.c **** 
  54:./uart/uart-cmd.c **** //********************************************************************************************
  55:./uart/uart-cmd.c **** //
  56:./uart/uart-cmd.c **** // uart command and frame handling definition
  57:./uart/uart-cmd.c **** //
  58:./uart/uart-cmd.c **** //********************************************************************************************
  59:./uart/uart-cmd.c **** void  uart_param_handle(USART_TypeDef * usartx,uint8_t cmd,uint8_t * param, size_t param_len)
  60:./uart/uart-cmd.c **** {
  36              		.loc 1 60 1
  37              		.cfi_startproc
  38              		@ args = 0, pretend = 0, frame = 72
  39              		@ frame_needed = 1, uses_anonymous_args = 0
  40 0000 80B5     		push	{r7, lr}
  41              	.LCFI0:
  42              		.cfi_def_cfa_offset 8
  43              		.cfi_offset 7, -8
  44              		.cfi_offset 14, -4
  45 0002 94B0     		sub	sp, sp, #80
  46              	.LCFI1:
  47              		.cfi_def_cfa_offset 88
ARM GAS  C:\Users\SAMEER~1.ALM\AppData\Local\Temp\ccXJ6CLf.s 			page 3


  48 0004 02AF     		add	r7, sp, #8
  49              	.LCFI2:
  50              		.cfi_def_cfa 7, 80
  51 0006 F860     		str	r0, [r7, #12]
  52 0008 7A60     		str	r2, [r7, #4]
  53 000a 3B60     		str	r3, [r7]
  54 000c 0B46     		mov	r3, r1
  55 000e FB72     		strb	r3, [r7, #11]
  61:./uart/uart-cmd.c ****  int par_start=0,par_end=0,data_end=0;
  56              		.loc 1 61 6
  57 0010 0023     		movs	r3, #0
  58 0012 7B64     		str	r3, [r7, #68]
  59              		.loc 1 61 18
  60 0014 0023     		movs	r3, #0
  61 0016 3B64     		str	r3, [r7, #64]
  62              		.loc 1 61 28
  63 0018 0023     		movs	r3, #0
  64 001a FB63     		str	r3, [r7, #60]
  62:./uart/uart-cmd.c ****  uint8_t par_len=0,data_len=0;
  65              		.loc 1 62 10
  66 001c 0023     		movs	r3, #0
  67 001e 87F83B30 		strb	r3, [r7, #59]
  68              		.loc 1 62 20
  69 0022 0023     		movs	r3, #0
  70 0024 87F83A30 		strb	r3, [r7, #58]
  63:./uart/uart-cmd.c ****  uint8_t data_buf[10]={0};
  71              		.loc 1 63 10
  72 0028 0023     		movs	r3, #0
  73 002a 3B63     		str	r3, [r7, #48]
  74 002c 07F13403 		add	r3, r7, #52
  75 0030 0022     		movs	r2, #0
  76 0032 1A60     		str	r2, [r3]
  77 0034 9A80     		strh	r2, [r3, #4]	@ movhi
  64:./uart/uart-cmd.c ****  uint8_t par_buf[10]={0};
  78              		.loc 1 64 10
  79 0036 0023     		movs	r3, #0
  80 0038 7B62     		str	r3, [r7, #36]
  81 003a 07F12803 		add	r3, r7, #40
  82 003e 0022     		movs	r2, #0
  83 0040 1A60     		str	r2, [r3]
  84 0042 9A80     		strh	r2, [r3, #4]	@ movhi
  65:./uart/uart-cmd.c ****  char buf[16]="";
  85              		.loc 1 65 7
  86 0044 0023     		movs	r3, #0
  87 0046 7B61     		str	r3, [r7, #20]
  88 0048 07F11803 		add	r3, r7, #24
  89 004c 0022     		movs	r2, #0
  90 004e 1A60     		str	r2, [r3]
  91 0050 5A60     		str	r2, [r3, #4]
  92 0052 9A60     		str	r2, [r3, #8]
  66:./uart/uart-cmd.c **** 
  67:./uart/uart-cmd.c ****  par_start=mem_indexOf(param,param_len,'-',0); 
  93              		.loc 1 67 12
  94 0054 0023     		movs	r3, #0
  95 0056 2D22     		movs	r2, #45
  96 0058 3968     		ldr	r1, [r7]
  97 005a 7868     		ldr	r0, [r7, #4]
ARM GAS  C:\Users\SAMEER~1.ALM\AppData\Local\Temp\ccXJ6CLf.s 			page 4


  98 005c FFF7FEFF 		bl	mem_indexOf
  99 0060 7864     		str	r0, [r7, #68]
  68:./uart/uart-cmd.c ****  par_end=  mem_indexOf(param,param_len,' ',0);
 100              		.loc 1 68 12
 101 0062 0023     		movs	r3, #0
 102 0064 2022     		movs	r2, #32
 103 0066 3968     		ldr	r1, [r7]
 104 0068 7868     		ldr	r0, [r7, #4]
 105 006a FFF7FEFF 		bl	mem_indexOf
 106 006e 3864     		str	r0, [r7, #64]
  69:./uart/uart-cmd.c ****  
  70:./uart/uart-cmd.c ****  if(par_start !=-1 && par_end!=-1)
 107              		.loc 1 70 4
 108 0070 7B6C     		ldr	r3, [r7, #68]
 109 0072 B3F1FF3F 		cmp	r3, #-1
 110 0076 38D0     		beq	.L2
 111              		.loc 1 70 20 discriminator 1
 112 0078 3B6C     		ldr	r3, [r7, #64]
 113 007a B3F1FF3F 		cmp	r3, #-1
 114 007e 34D0     		beq	.L2
  71:./uart/uart-cmd.c ****  {
  72:./uart/uart-cmd.c **** 	par_len=par_end-par_start;
 115              		.loc 1 72 17
 116 0080 3B6C     		ldr	r3, [r7, #64]
 117 0082 DAB2     		uxtb	r2, r3
 118 0084 7B6C     		ldr	r3, [r7, #68]
 119 0086 DBB2     		uxtb	r3, r3
 120              		.loc 1 72 9
 121 0088 D31A     		subs	r3, r2, r3
 122 008a 87F83B30 		strb	r3, [r7, #59]
  73:./uart/uart-cmd.c **** 	data_len=param_len-par_end-1;
 123              		.loc 1 73 20
 124 008e 3B68     		ldr	r3, [r7]
 125 0090 DAB2     		uxtb	r2, r3
 126 0092 3B6C     		ldr	r3, [r7, #64]
 127 0094 DBB2     		uxtb	r3, r3
 128 0096 D31A     		subs	r3, r2, r3
 129 0098 DBB2     		uxtb	r3, r3
 130              		.loc 1 73 10
 131 009a 013B     		subs	r3, r3, #1
 132 009c 87F83A30 		strb	r3, [r7, #58]
  74:./uart/uart-cmd.c **** 
  75:./uart/uart-cmd.c ****     memcpy((uint8_t*)par_buf, (uint8_t*)param+par_start,par_len);    	
 133              		.loc 1 75 5
 134 00a0 7B6C     		ldr	r3, [r7, #68]
 135              		.loc 1 75 46
 136 00a2 7A68     		ldr	r2, [r7, #4]
 137 00a4 D118     		adds	r1, r2, r3
 138              		.loc 1 75 5
 139 00a6 97F83B20 		ldrb	r2, [r7, #59]	@ zero_extendqisi2
 140 00aa 07F12403 		add	r3, r7, #36
 141 00ae 1846     		mov	r0, r3
 142 00b0 FFF7FEFF 		bl	memcpy
  76:./uart/uart-cmd.c **** 	memcpy((uint8_t*)data_buf,(uint8_t*)param+par_end+1,data_len);
 143              		.loc 1 76 51
 144 00b4 3B6C     		ldr	r3, [r7, #64]
 145 00b6 0133     		adds	r3, r3, #1
ARM GAS  C:\Users\SAMEER~1.ALM\AppData\Local\Temp\ccXJ6CLf.s 			page 5


 146 00b8 7A68     		ldr	r2, [r7, #4]
 147 00ba D118     		adds	r1, r2, r3
 148              		.loc 1 76 2
 149 00bc 97F83A20 		ldrb	r2, [r7, #58]	@ zero_extendqisi2
 150 00c0 07F13003 		add	r3, r7, #48
 151 00c4 1846     		mov	r0, r3
 152 00c6 FFF7FEFF 		bl	memcpy
  77:./uart/uart-cmd.c ****     /*
  78:./uart/uart-cmd.c ****     // could print some extra data 
  79:./uart/uart-cmd.c ****     uart_print("param:");
  80:./uart/uart-cmd.c ****     uart_println((char *)par_buf);
  81:./uart/uart-cmd.c ****     uart_print("data:");
  82:./uart/uart-cmd.c ****     uart_println((char *)data_buf);
  83:./uart/uart-cmd.c ****     */
  84:./uart/uart-cmd.c ****     uart_cmd_param_exeute(usartx,cmd,par_buf,par_len,data_buf,data_len);
 153              		.loc 1 84 5
 154 00ca 97F83B00 		ldrb	r0, [r7, #59]	@ zero_extendqisi2
 155 00ce 97F83A30 		ldrb	r3, [r7, #58]	@ zero_extendqisi2
 156 00d2 07F12402 		add	r2, r7, #36
 157 00d6 F97A     		ldrb	r1, [r7, #11]	@ zero_extendqisi2
 158 00d8 0193     		str	r3, [sp, #4]
 159 00da 07F13003 		add	r3, r7, #48
 160 00de 0093     		str	r3, [sp]
 161 00e0 0346     		mov	r3, r0
 162 00e2 F868     		ldr	r0, [r7, #12]
 163 00e4 FFF7FEFF 		bl	uart_cmd_param_exeute
 164 00e8 26E0     		b	.L3
 165              	.L2:
  85:./uart/uart-cmd.c ****  }
  86:./uart/uart-cmd.c ****  else
  87:./uart/uart-cmd.c ****  {
  88:./uart/uart-cmd.c ****     uart_println(usartx,"parameter is incorrect ....!");
 166              		.loc 1 88 5
 167 00ea 1549     		ldr	r1, .L4
 168 00ec F868     		ldr	r0, [r7, #12]
 169 00ee FFF7FEFF 		bl	uart_println
  89:./uart/uart-cmd.c ****     uart_print(usartx,"par_start:");
 170              		.loc 1 89 5
 171 00f2 1449     		ldr	r1, .L4+4
 172 00f4 F868     		ldr	r0, [r7, #12]
 173 00f6 FFF7FEFF 		bl	uart_print
  90:./uart/uart-cmd.c ****     itoa(par_start,buf,10);
 174              		.loc 1 90 5
 175 00fa 07F11403 		add	r3, r7, #20
 176 00fe 0A22     		movs	r2, #10
 177 0100 1946     		mov	r1, r3
 178 0102 786C     		ldr	r0, [r7, #68]
 179 0104 FFF7FEFF 		bl	itoa
  91:./uart/uart-cmd.c ****     uart_println(usartx,(char *)buf);
 180              		.loc 1 91 5
 181 0108 07F11403 		add	r3, r7, #20
 182 010c 1946     		mov	r1, r3
 183 010e F868     		ldr	r0, [r7, #12]
 184 0110 FFF7FEFF 		bl	uart_println
  92:./uart/uart-cmd.c **** 
  93:./uart/uart-cmd.c ****     uart_print(usartx,"par_end:");
 185              		.loc 1 93 5
ARM GAS  C:\Users\SAMEER~1.ALM\AppData\Local\Temp\ccXJ6CLf.s 			page 6


 186 0114 0C49     		ldr	r1, .L4+8
 187 0116 F868     		ldr	r0, [r7, #12]
 188 0118 FFF7FEFF 		bl	uart_print
  94:./uart/uart-cmd.c ****     itoa(par_end,buf,10);
 189              		.loc 1 94 5
 190 011c 07F11403 		add	r3, r7, #20
 191 0120 0A22     		movs	r2, #10
 192 0122 1946     		mov	r1, r3
 193 0124 386C     		ldr	r0, [r7, #64]
 194 0126 FFF7FEFF 		bl	itoa
  95:./uart/uart-cmd.c ****     uart_println(usartx,(char *)buf);
 195              		.loc 1 95 5
 196 012a 07F11403 		add	r3, r7, #20
 197 012e 1946     		mov	r1, r3
 198 0130 F868     		ldr	r0, [r7, #12]
 199 0132 FFF7FEFF 		bl	uart_println
  96:./uart/uart-cmd.c ****  }
  97:./uart/uart-cmd.c **** 
  98:./uart/uart-cmd.c **** }
 200              		.loc 1 98 1
 201 0136 00BF     		nop
 202              	.L3:
 203 0138 00BF     		nop
 204 013a 4837     		adds	r7, r7, #72
 205              	.LCFI3:
 206              		.cfi_def_cfa_offset 8
 207 013c BD46     		mov	sp, r7
 208              	.LCFI4:
 209              		.cfi_def_cfa_register 13
 210              		@ sp needed
 211 013e 80BD     		pop	{r7, pc}
 212              	.L5:
 213              		.align	2
 214              	.L4:
 215 0140 00000000 		.word	.LC0
 216 0144 20000000 		.word	.LC1
 217 0148 2C000000 		.word	.LC2
 218              		.cfi_endproc
 219              	.LFE33:
 221              		.section	.text.uart_cmd_param_exeute,"ax",%progbits
 222              		.align	1
 223              		.syntax unified
 224              		.thumb
 225              		.thumb_func
 227              	uart_cmd_param_exeute:
 228              	.LFB34:
  99:./uart/uart-cmd.c **** //-------------------------------------------------------------------------------------------------
 100:./uart/uart-cmd.c **** /**
 101:./uart/uart-cmd.c ****  * @brief  execute based on the cmd the specific parameter passed
 102:./uart/uart-cmd.c ****  * @details           actually it is handle  until the TX command 
 103:./uart/uart-cmd.c ****  *                    as other command does not use parameters
 104:./uart/uart-cmd.c ****  * @param cmd         an uint8_t command id 
 105:./uart/uart-cmd.c ****  * @param param       the parameter array it is a string
 106:./uart/uart-cmd.c ****  * @param param_len   the parameter array length
 107:./uart/uart-cmd.c ****  * @param data        the data array portion of these parameters, also it is a string
 108:./uart/uart-cmd.c ****  * @param data_len    the length of the data array
 109:./uart/uart-cmd.c ****  */
ARM GAS  C:\Users\SAMEER~1.ALM\AppData\Local\Temp\ccXJ6CLf.s 			page 7


 110:./uart/uart-cmd.c **** void uart_cmd_param_exeute(USART_TypeDef * usartx,uint8_t cmd,uint8_t * param, size_t param_len,uin
 111:./uart/uart-cmd.c **** {
 229              		.loc 1 111 1
 230              		.cfi_startproc
 231              		@ args = 8, pretend = 0, frame = 40
 232              		@ frame_needed = 1, uses_anonymous_args = 0
 233              		@ link register save eliminated.
 234 0000 80B4     		push	{r7}
 235              	.LCFI5:
 236              		.cfi_def_cfa_offset 4
 237              		.cfi_offset 7, -4
 238 0002 8BB0     		sub	sp, sp, #44
 239              	.LCFI6:
 240              		.cfi_def_cfa_offset 48
 241 0004 00AF     		add	r7, sp, #0
 242              	.LCFI7:
 243              		.cfi_def_cfa_register 7
 244 0006 F860     		str	r0, [r7, #12]
 245 0008 7A60     		str	r2, [r7, #4]
 246 000a 3B60     		str	r3, [r7]
 247 000c 0B46     		mov	r3, r1
 248 000e FB72     		strb	r3, [r7, #11]
 112:./uart/uart-cmd.c ****   uint8_t val=0;
 249              		.loc 1 112 11
 250 0010 0023     		movs	r3, #0
 251 0012 87F82730 		strb	r3, [r7, #39]
 113:./uart/uart-cmd.c ****   char buf[16]="";
 252              		.loc 1 113 8
 253 0016 0023     		movs	r3, #0
 254 0018 7B61     		str	r3, [r7, #20]
 255 001a 07F11803 		add	r3, r7, #24
 256 001e 0022     		movs	r2, #0
 257 0020 1A60     		str	r2, [r3]
 258 0022 5A60     		str	r2, [r3, #4]
 259 0024 9A60     		str	r2, [r3, #8]
 114:./uart/uart-cmd.c **** /*   
 115:./uart/uart-cmd.c ****  switch(cmd) 
 116:./uart/uart-cmd.c ****    {
 117:./uart/uart-cmd.c ****       case _TX:
 118:./uart/uart-cmd.c ****               src_address=-1;
 119:./uart/uart-cmd.c ****               dst_address=-1;
 120:./uart/uart-cmd.c ****              if(strcasecmp((const char *)param,"-s")==0)
 121:./uart/uart-cmd.c ****              {
 122:./uart/uart-cmd.c ****               	val=atol((const char *)data);              
 123:./uart/uart-cmd.c ****               	src_address=val;   
 124:./uart/uart-cmd.c ****               	uart_print(USART1,"\nsrc:");
 125:./uart/uart-cmd.c ****               	itoa(src_address,buf,10);
 126:./uart/uart-cmd.c ****               	uart_println(buf);
 127:./uart/uart-cmd.c ****              }
 128:./uart/uart-cmd.c ****             else if(strcasecmp((const char *)param,"-d")==0)
 129:./uart/uart-cmd.c ****             {
 130:./uart/uart-cmd.c ****               	val=atol((const char *)data);              
 131:./uart/uart-cmd.c ****               	dst_address=val;               
 132:./uart/uart-cmd.c ****               	uart_print(USART1,"\ndst:");
 133:./uart/uart-cmd.c ****               	itoa(dst_address,buf,10);
 134:./uart/uart-cmd.c ****               	uart_println(buf);
 135:./uart/uart-cmd.c ****             }            
ARM GAS  C:\Users\SAMEER~1.ALM\AppData\Local\Temp\ccXJ6CLf.s 			page 8


 136:./uart/uart-cmd.c ****       break; 
 137:./uart/uart-cmd.c ****    }  
 138:./uart/uart-cmd.c ****  */
 139:./uart/uart-cmd.c **** }
 260              		.loc 1 139 1
 261 0026 00BF     		nop
 262 0028 2C37     		adds	r7, r7, #44
 263              	.LCFI8:
 264              		.cfi_def_cfa_offset 4
 265 002a BD46     		mov	sp, r7
 266              	.LCFI9:
 267              		.cfi_def_cfa_register 13
 268              		@ sp needed
 269 002c 80BC     		pop	{r7}
 270              	.LCFI10:
 271              		.cfi_restore 7
 272              		.cfi_def_cfa_offset 0
 273 002e 7047     		bx	lr
 274              		.cfi_endproc
 275              	.LFE34:
 277              		.section	.text.uart_param_array_handle,"ax",%progbits
 278              		.align	1
 279              		.syntax unified
 280              		.thumb
 281              		.thumb_func
 283              	uart_param_array_handle:
 284              	.LFB35:
 140:./uart/uart-cmd.c **** //-------------------------------------------------------------------------------------------------
 141:./uart/uart-cmd.c **** /**
 142:./uart/uart-cmd.c ****  * @brief handle the command parameters string 
 143:./uart/uart-cmd.c ****  * @details   handle the command parameters string by spliting the paramters into two pairs
 144:./uart/uart-cmd.c ****  *            here the parameter is defined as a struct of two portions
 145:./uart/uart-cmd.c ****  *            one is the parameter id while the other is the parameter value
 146:./uart/uart-cmd.c ****  * @param cmd   the command id
 147:./uart/uart-cmd.c ****  * @param param the parameter array 
 148:./uart/uart-cmd.c ****  */
 149:./uart/uart-cmd.c **** void  uart_param_array_handle(USART_TypeDef * usartx,uint8_t cmd,array_t param)
 150:./uart/uart-cmd.c **** {
 285              		.loc 1 150 1
 286              		.cfi_startproc
 287              		@ args = 0, pretend = 0, frame = 56
 288              		@ frame_needed = 1, uses_anonymous_args = 0
 289 0000 90B5     		push	{r4, r7, lr}
 290              	.LCFI11:
 291              		.cfi_def_cfa_offset 12
 292              		.cfi_offset 4, -12
 293              		.cfi_offset 7, -8
 294              		.cfi_offset 14, -4
 295 0002 91B0     		sub	sp, sp, #68
 296              	.LCFI12:
 297              		.cfi_def_cfa_offset 80
 298 0004 02AF     		add	r7, sp, #8
 299              	.LCFI13:
 300              		.cfi_def_cfa 7, 72
 301 0006 F860     		str	r0, [r7, #12]
 302 0008 0846     		mov	r0, r1
 303 000a 3946     		mov	r1, r7
ARM GAS  C:\Users\SAMEER~1.ALM\AppData\Local\Temp\ccXJ6CLf.s 			page 9


 304 000c 81E80C00 		stm	r1, {r2, r3}
 305 0010 0346     		mov	r3, r0
 306 0012 FB72     		strb	r3, [r7, #11]
 151:./uart/uart-cmd.c **** 
 152:./uart/uart-cmd.c ****  int len=0;
 307              		.loc 1 152 6
 308 0014 0023     		movs	r3, #0
 309 0016 7B63     		str	r3, [r7, #52]
 153:./uart/uart-cmd.c ****  char buf[16]="";
 310              		.loc 1 153 7
 311 0018 0023     		movs	r3, #0
 312 001a 7B62     		str	r3, [r7, #36]
 313 001c 07F12803 		add	r3, r7, #40
 314 0020 0022     		movs	r2, #0
 315 0022 1A60     		str	r2, [r3]
 316 0024 5A60     		str	r2, [r3, #4]
 317 0026 9A60     		str	r2, [r3, #8]
 154:./uart/uart-cmd.c ****  param_t p={0};
 318              		.loc 1 154 10
 319 0028 07F11403 		add	r3, r7, #20
 320 002c 0022     		movs	r2, #0
 321 002e 1A60     		str	r2, [r3]
 322 0030 5A60     		str	r2, [r3, #4]
 323 0032 9A60     		str	r2, [r3, #8]
 324 0034 DA60     		str	r2, [r3, #12]
 155:./uart/uart-cmd.c ****  len=param_split(param,(param_t*)&p);
 325              		.loc 1 155 6
 326 0036 07F11403 		add	r3, r7, #20
 327 003a 1A46     		mov	r2, r3
 328 003c 3B46     		mov	r3, r7
 329 003e 93E80300 		ldm	r3, {r0, r1}
 330 0042 FFF7FEFF 		bl	param_split
 331 0046 7863     		str	r0, [r7, #52]
 156:./uart/uart-cmd.c **** 
 157:./uart/uart-cmd.c ****  if(len>0)
 332              		.loc 1 157 4
 333 0048 7B6B     		ldr	r3, [r7, #52]
 334 004a 002B     		cmp	r3, #0
 335 004c 0FDD     		ble	.L8
 158:./uart/uart-cmd.c ****  {
 159:./uart/uart-cmd.c ****     uart_param_exeute(usartx,cmd,p);
 336              		.loc 1 159 5
 337 004e FC7A     		ldrb	r4, [r7, #11]	@ zero_extendqisi2
 338 0050 6A46     		mov	r2, sp
 339 0052 07F11C03 		add	r3, r7, #28
 340 0056 93E80300 		ldm	r3, {r0, r1}
 341 005a 82E80300 		stm	r2, {r0, r1}
 342 005e 07F11403 		add	r3, r7, #20
 343 0062 0CCB     		ldm	r3, {r2, r3}
 344 0064 2146     		mov	r1, r4
 345 0066 F868     		ldr	r0, [r7, #12]
 346 0068 FFF7FEFF 		bl	uart_param_exeute
 160:./uart/uart-cmd.c **** 	//uart_param_exeute(cmd,p.param,p.param_len,p.data,p.data_len);
 161:./uart/uart-cmd.c ****  }
 162:./uart/uart-cmd.c ****  else
 163:./uart/uart-cmd.c ****  {
 164:./uart/uart-cmd.c ****     uart_println(usartx,"parameter is incorrect ....!");
ARM GAS  C:\Users\SAMEER~1.ALM\AppData\Local\Temp\ccXJ6CLf.s 			page 10


 165:./uart/uart-cmd.c ****  }
 166:./uart/uart-cmd.c **** 
 167:./uart/uart-cmd.c **** }
 347              		.loc 1 167 1
 348 006c 03E0     		b	.L10
 349              	.L8:
 164:./uart/uart-cmd.c ****  }
 350              		.loc 1 164 5
 351 006e 0449     		ldr	r1, .L11
 352 0070 F868     		ldr	r0, [r7, #12]
 353 0072 FFF7FEFF 		bl	uart_println
 354              	.L10:
 355              		.loc 1 167 1
 356 0076 00BF     		nop
 357 0078 3C37     		adds	r7, r7, #60
 358              	.LCFI14:
 359              		.cfi_def_cfa_offset 12
 360 007a BD46     		mov	sp, r7
 361              	.LCFI15:
 362              		.cfi_def_cfa_register 13
 363              		@ sp needed
 364 007c 90BD     		pop	{r4, r7, pc}
 365              	.L12:
 366 007e 00BF     		.align	2
 367              	.L11:
 368 0080 00000000 		.word	.LC0
 369              		.cfi_endproc
 370              	.LFE35:
 372              		.section	.rodata
 373 0035 000000   		.align	2
 374              	.LC3:
 375 0038 756E6B6E 		.ascii	"unknown command ....\000"
 375      6F776E20 
 375      636F6D6D 
 375      616E6420 
 375      2E2E2E2E 
 376              		.section	.text.uart_param_exeute,"ax",%progbits
 377              		.align	1
 378              		.syntax unified
 379              		.thumb
 380              		.thumb_func
 382              	uart_param_exeute:
 383              	.LFB36:
 168:./uart/uart-cmd.c **** //-------------------------------------------------------------------------------------------------
 169:./uart/uart-cmd.c **** /**
 170:./uart/uart-cmd.c ****  * @brief a generic parameter execute method that 
 171:./uart/uart-cmd.c ****  *        look to specific functions which had parameters
 172:./uart/uart-cmd.c ****  * @details the commands with no parameter just shown and not handled because of break
 173:./uart/uart-cmd.c ****  *          and using the defualt to specify the unrecognized command  
 174:./uart/uart-cmd.c ****  * @param cmd the command ID
 175:./uart/uart-cmd.c ****  * @param p   the parameter struct after spliting  
 176:./uart/uart-cmd.c ****  */
 177:./uart/uart-cmd.c **** void uart_param_exeute(USART_TypeDef * usartx,uint8_t cmd,param_t p)
 178:./uart/uart-cmd.c **** {
 384              		.loc 1 178 1
 385              		.cfi_startproc
 386              		@ args = 16, pretend = 8, frame = 8
ARM GAS  C:\Users\SAMEER~1.ALM\AppData\Local\Temp\ccXJ6CLf.s 			page 11


 387              		@ frame_needed = 1, uses_anonymous_args = 0
 388 0000 82B0     		sub	sp, sp, #8
 389              	.LCFI16:
 390              		.cfi_def_cfa_offset 8
 391 0002 80B5     		push	{r7, lr}
 392              	.LCFI17:
 393              		.cfi_def_cfa_offset 16
 394              		.cfi_offset 7, -16
 395              		.cfi_offset 14, -12
 396 0004 82B0     		sub	sp, sp, #8
 397              	.LCFI18:
 398              		.cfi_def_cfa_offset 24
 399 0006 00AF     		add	r7, sp, #0
 400              	.LCFI19:
 401              		.cfi_def_cfa_register 7
 402 0008 7860     		str	r0, [r7, #4]
 403 000a 07F11000 		add	r0, r7, #16
 404 000e 80E80C00 		stm	r0, {r2, r3}
 405 0012 0B46     		mov	r3, r1
 406 0014 FB70     		strb	r3, [r7, #3]
 179:./uart/uart-cmd.c ****    switch (cmd)
 180:./uart/uart-cmd.c ****     {
 181:./uart/uart-cmd.c **** //      case _MPU_STOP: 				break;
 182:./uart/uart-cmd.c **** //      case _MPU_WHO_IAM: 			break;
 183:./uart/uart-cmd.c **** //      case _MPU_INIT: 				break;
 184:./uart/uart-cmd.c **** //      case _MPU_READ_ALL: 			break;
 185:./uart/uart-cmd.c **** //      case _MPU_READ_ACCEL: 		break;
 186:./uart/uart-cmd.c **** //      case _MPU_READ_GYRO: 			break;
 187:./uart/uart-cmd.c **** //	    case _MPU_READ_TEMP: 			break;
 188:./uart/uart-cmd.c **** //	    case _MPU_READ_REG:			break;
 189:./uart/uart-cmd.c **** //	    case _MPU_WRITE_REG:			break;
 190:./uart/uart-cmd.c **** 
 191:./uart/uart-cmd.c ****       //case _TX: uart_tx_param_execute(p); break;
 192:./uart/uart-cmd.c ****       //case _RX: break;
 193:./uart/uart-cmd.c ****       default:
 194:./uart/uart-cmd.c ****         	uart_println(usartx,"unknown command ....");
 407              		.loc 1 194 10
 408 0016 0549     		ldr	r1, .L14
 409 0018 7868     		ldr	r0, [r7, #4]
 410 001a FFF7FEFF 		bl	uart_println
 195:./uart/uart-cmd.c ****     }
 196:./uart/uart-cmd.c **** }
 411              		.loc 1 196 1
 412 001e 00BF     		nop
 413 0020 0837     		adds	r7, r7, #8
 414              	.LCFI20:
 415              		.cfi_def_cfa_offset 16
 416 0022 BD46     		mov	sp, r7
 417              	.LCFI21:
 418              		.cfi_def_cfa_register 13
 419              		@ sp needed
 420 0024 BDE88040 		pop	{r7, lr}
 421              	.LCFI22:
 422              		.cfi_restore 14
 423              		.cfi_restore 7
 424              		.cfi_def_cfa_offset 8
 425 0028 02B0     		add	sp, sp, #8
ARM GAS  C:\Users\SAMEER~1.ALM\AppData\Local\Temp\ccXJ6CLf.s 			page 12


 426              	.LCFI23:
 427              		.cfi_def_cfa_offset 0
 428 002a 7047     		bx	lr
 429              	.L15:
 430              		.align	2
 431              	.L14:
 432 002c 38000000 		.word	.LC3
 433              		.cfi_endproc
 434              	.LFE36:
 436              		.section	.rodata
 437 004d 000000   		.align	2
 438              	.LC4:
 439 0050 00       		.ascii	"\000"
 440 0051 000000   		.align	2
 441              	.LC5:
 442 0054 636F6D6D 		.ascii	"command error....!\000"
 442      616E6420 
 442      6572726F 
 442      722E2E2E 
 442      2E2100
 443 0067 00       		.align	2
 444              	.LC6:
 445 0068 636D645F 		.ascii	"cmd_start:\000"
 445      73746172 
 445      743A00
 446 0073 00       		.align	2
 447              	.LC7:
 448 0074 636D645F 		.ascii	"cmd_end:\000"
 448      656E643A 
 448      00
 449 007d 000000   		.align	2
 450              	.LC8:
 451 0080 64617461 		.ascii	"data_end:\000"
 451      5F656E64 
 451      3A00
 452              		.section	.text.uart_handle_frame,"ax",%progbits
 453              		.align	1
 454              		.global	uart_handle_frame
 455              		.syntax unified
 456              		.thumb
 457              		.thumb_func
 459              	uart_handle_frame:
 460              	.LFB37:
 197:./uart/uart-cmd.c **** //-------------------------------------------------------------------------------------------------
 198:./uart/uart-cmd.c **** 
 199:./uart/uart-cmd.c **** 
 200:./uart/uart-cmd.c **** //********************************************************************************************
 201:./uart/uart-cmd.c **** //
 202:./uart/uart-cmd.c **** // uart command and frame handling definition
 203:./uart/uart-cmd.c **** //
 204:./uart/uart-cmd.c **** //********************************************************************************************
 205:./uart/uart-cmd.c **** /**
 206:./uart/uart-cmd.c ****  * @brief handles the whole message as if it is a correct command structure
 207:./uart/uart-cmd.c ****  * @details handles the whole message received on the uart and check if it has a
 208:./uart/uart-cmd.c ****  *          a correct structure command with paramters and values pairs
 209:./uart/uart-cmd.c ****  *          However, in case of an incorrect command an error message 
 210:./uart/uart-cmd.c ****  *          sends in response on the uart
ARM GAS  C:\Users\SAMEER~1.ALM\AppData\Local\Temp\ccXJ6CLf.s 			page 13


 211:./uart/uart-cmd.c ****  * @return void
 212:./uart/uart-cmd.c ****  */
 213:./uart/uart-cmd.c **** void uart_handle_frame(USART_TypeDef * usartx)
 214:./uart/uart-cmd.c **** {
 461              		.loc 1 214 1
 462              		.cfi_startproc
 463              		@ args = 0, pretend = 0, frame = 88
 464              		@ frame_needed = 1, uses_anonymous_args = 0
 465 0000 80B5     		push	{r7, lr}
 466              	.LCFI24:
 467              		.cfi_def_cfa_offset 8
 468              		.cfi_offset 7, -8
 469              		.cfi_offset 14, -4
 470 0002 98B0     		sub	sp, sp, #96
 471              	.LCFI25:
 472              		.cfi_def_cfa_offset 104
 473 0004 02AF     		add	r7, sp, #8
 474              	.LCFI26:
 475              		.cfi_def_cfa 7, 96
 476 0006 7860     		str	r0, [r7, #4]
 215:./uart/uart-cmd.c ****  int cmd_start,cmd_end,data_end;
 216:./uart/uart-cmd.c ****  uint8_t cmd_len=0,data_len=0;
 477              		.loc 1 216 10
 478 0008 0023     		movs	r3, #0
 479 000a 87F85730 		strb	r3, [r7, #87]
 480              		.loc 1 216 20
 481 000e 0023     		movs	r3, #0
 482 0010 87F85630 		strb	r3, [r7, #86]
 217:./uart/uart-cmd.c ****  uint8_t data_buf[32]={0};
 483              		.loc 1 217 10
 484 0014 0023     		movs	r3, #0
 485 0016 BB62     		str	r3, [r7, #40]
 486 0018 07F12C03 		add	r3, r7, #44
 487 001c 0022     		movs	r2, #0
 488 001e 1A60     		str	r2, [r3]
 489 0020 5A60     		str	r2, [r3, #4]
 490 0022 9A60     		str	r2, [r3, #8]
 491 0024 DA60     		str	r2, [r3, #12]
 492 0026 1A61     		str	r2, [r3, #16]
 493 0028 5A61     		str	r2, [r3, #20]
 494 002a 9A61     		str	r2, [r3, #24]
 218:./uart/uart-cmd.c ****  uint8_t cmd_buf[16]={0};
 495              		.loc 1 218 10
 496 002c 0023     		movs	r3, #0
 497 002e BB61     		str	r3, [r7, #24]
 498 0030 07F11C03 		add	r3, r7, #28
 499 0034 0022     		movs	r2, #0
 500 0036 1A60     		str	r2, [r3]
 501 0038 5A60     		str	r2, [r3, #4]
 502 003a 9A60     		str	r2, [r3, #8]
 219:./uart/uart-cmd.c ****  char buf[16]="";
 503              		.loc 1 219 7
 504 003c 0023     		movs	r3, #0
 505 003e BB60     		str	r3, [r7, #8]
 506 0040 07F10C03 		add	r3, r7, #12
 507 0044 0022     		movs	r2, #0
 508 0046 1A60     		str	r2, [r3]
ARM GAS  C:\Users\SAMEER~1.ALM\AppData\Local\Temp\ccXJ6CLf.s 			page 14


 509 0048 5A60     		str	r2, [r3, #4]
 510 004a 9A60     		str	r2, [r3, #8]
 220:./uart/uart-cmd.c ****  
 221:./uart/uart-cmd.c ****  cmd_start=mem_indexOf(rx_buffer,rx_buffer_length,'#',0);
 511              		.loc 1 221 12
 512 004c 554B     		ldr	r3, .L21
 513 004e 1B78     		ldrb	r3, [r3]
 514 0050 DBB2     		uxtb	r3, r3
 515 0052 1946     		mov	r1, r3
 516 0054 0023     		movs	r3, #0
 517 0056 2322     		movs	r2, #35
 518 0058 5348     		ldr	r0, .L21+4
 519 005a FFF7FEFF 		bl	mem_indexOf
 520 005e 3865     		str	r0, [r7, #80]
 222:./uart/uart-cmd.c ****  cmd_end=  mem_indexOf(rx_buffer,rx_buffer_length,' ',0);
 521              		.loc 1 222 12
 522 0060 504B     		ldr	r3, .L21
 523 0062 1B78     		ldrb	r3, [r3]
 524 0064 DBB2     		uxtb	r3, r3
 525 0066 1946     		mov	r1, r3
 526 0068 0023     		movs	r3, #0
 527 006a 2022     		movs	r2, #32
 528 006c 4E48     		ldr	r0, .L21+4
 529 006e FFF7FEFF 		bl	mem_indexOf
 530 0072 F864     		str	r0, [r7, #76]
 223:./uart/uart-cmd.c ****  data_end= mem_indexOf(rx_buffer,rx_buffer_length,';',0);
 531              		.loc 1 223 12
 532 0074 4B4B     		ldr	r3, .L21
 533 0076 1B78     		ldrb	r3, [r3]
 534 0078 DBB2     		uxtb	r3, r3
 535 007a 1946     		mov	r1, r3
 536 007c 0023     		movs	r3, #0
 537 007e 3B22     		movs	r2, #59
 538 0080 4948     		ldr	r0, .L21+4
 539 0082 FFF7FEFF 		bl	mem_indexOf
 540 0086 B864     		str	r0, [r7, #72]
 224:./uart/uart-cmd.c ****  
 225:./uart/uart-cmd.c ****  if(cmd_start !=-1 && cmd_end!=-1 && data_end!=-1)
 541              		.loc 1 225 4
 542 0088 3B6D     		ldr	r3, [r7, #80]
 543 008a B3F1FF3F 		cmp	r3, #-1
 544 008e 4DD0     		beq	.L17
 545              		.loc 1 225 20 discriminator 1
 546 0090 FB6C     		ldr	r3, [r7, #76]
 547 0092 B3F1FF3F 		cmp	r3, #-1
 548 0096 49D0     		beq	.L17
 549              		.loc 1 225 35 discriminator 2
 550 0098 BB6C     		ldr	r3, [r7, #72]
 551 009a B3F1FF3F 		cmp	r3, #-1
 552 009e 45D0     		beq	.L17
 226:./uart/uart-cmd.c ****  {
 227:./uart/uart-cmd.c **** 	cmd_len=cmd_end-cmd_start-1;
 553              		.loc 1 227 17
 554 00a0 FB6C     		ldr	r3, [r7, #76]
 555 00a2 DAB2     		uxtb	r2, r3
 556 00a4 3B6D     		ldr	r3, [r7, #80]
 557 00a6 DBB2     		uxtb	r3, r3
ARM GAS  C:\Users\SAMEER~1.ALM\AppData\Local\Temp\ccXJ6CLf.s 			page 15


 558 00a8 D31A     		subs	r3, r2, r3
 559 00aa DBB2     		uxtb	r3, r3
 560              		.loc 1 227 9
 561 00ac 013B     		subs	r3, r3, #1
 562 00ae 87F85730 		strb	r3, [r7, #87]
 228:./uart/uart-cmd.c **** 	data_len=data_end-cmd_end-1;
 563              		.loc 1 228 19
 564 00b2 BB6C     		ldr	r3, [r7, #72]
 565 00b4 DAB2     		uxtb	r2, r3
 566 00b6 FB6C     		ldr	r3, [r7, #76]
 567 00b8 DBB2     		uxtb	r3, r3
 568 00ba D31A     		subs	r3, r2, r3
 569 00bc DBB2     		uxtb	r3, r3
 570              		.loc 1 228 10
 571 00be 013B     		subs	r3, r3, #1
 572 00c0 87F85630 		strb	r3, [r7, #86]
 229:./uart/uart-cmd.c **** 	data_len=(data_len>0)? data_len-1:0; 
 573              		.loc 1 229 10
 574 00c4 97F85630 		ldrb	r3, [r7, #86]	@ zero_extendqisi2
 575 00c8 002B     		cmp	r3, #0
 576 00ca 04D0     		beq	.L18
 577              		.loc 1 229 10 is_stmt 0 discriminator 1
 578 00cc 97F85630 		ldrb	r3, [r7, #86]
 579 00d0 013B     		subs	r3, r3, #1
 580 00d2 DBB2     		uxtb	r3, r3
 581 00d4 00E0     		b	.L19
 582              	.L18:
 583              		.loc 1 229 10 discriminator 2
 584 00d6 0023     		movs	r3, #0
 585              	.L19:
 586              		.loc 1 229 10 discriminator 4
 587 00d8 87F85630 		strb	r3, [r7, #86]
 230:./uart/uart-cmd.c **** 
 231:./uart/uart-cmd.c ****      memcpy((uint8_t*)cmd_buf, (uint8_t*)rx_buffer+cmd_start+1,cmd_len);    	
 588              		.loc 1 231 61 is_stmt 1 discriminator 4
 589 00dc 3B6D     		ldr	r3, [r7, #80]
 590 00de 0133     		adds	r3, r3, #1
 591              		.loc 1 231 6 discriminator 4
 592 00e0 314A     		ldr	r2, .L21+4
 593 00e2 9918     		adds	r1, r3, r2
 594 00e4 97F85720 		ldrb	r2, [r7, #87]	@ zero_extendqisi2
 595 00e8 07F11803 		add	r3, r7, #24
 596 00ec 1846     		mov	r0, r3
 597 00ee FFF7FEFF 		bl	memcpy
 232:./uart/uart-cmd.c **** 	 memcpy((uint8_t*)data_buf,(uint8_t*)rx_buffer+cmd_end+1,data_len);
 598              		.loc 1 232 56 discriminator 4
 599 00f2 FB6C     		ldr	r3, [r7, #76]
 600 00f4 0133     		adds	r3, r3, #1
 601              		.loc 1 232 3 discriminator 4
 602 00f6 2C4A     		ldr	r2, .L21+4
 603 00f8 9918     		adds	r1, r3, r2
 604 00fa 97F85620 		ldrb	r2, [r7, #86]	@ zero_extendqisi2
 605 00fe 07F12803 		add	r3, r7, #40
 606 0102 1846     		mov	r0, r3
 607 0104 FFF7FEFF 		bl	memcpy
 233:./uart/uart-cmd.c **** 	 uart_handle_cmd(usartx,cmd_buf,cmd_len,data_buf,data_len);
 608              		.loc 1 233 3 discriminator 4
ARM GAS  C:\Users\SAMEER~1.ALM\AppData\Local\Temp\ccXJ6CLf.s 			page 16


 609 0108 97F85720 		ldrb	r2, [r7, #87]	@ zero_extendqisi2
 610 010c 97F85630 		ldrb	r3, [r7, #86]	@ zero_extendqisi2
 611 0110 07F12800 		add	r0, r7, #40
 612 0114 07F11801 		add	r1, r7, #24
 613 0118 0093     		str	r3, [sp]
 614 011a 0346     		mov	r3, r0
 615 011c 7868     		ldr	r0, [r7, #4]
 616 011e FFF7FEFF 		bl	uart_handle_cmd
 234:./uart/uart-cmd.c **** 	 uart_println(usartx,"");
 617              		.loc 1 234 3 discriminator 4
 618 0122 2249     		ldr	r1, .L21+8
 619 0124 7868     		ldr	r0, [r7, #4]
 620 0126 FFF7FEFF 		bl	uart_println
 621 012a 37E0     		b	.L20
 622              	.L17:
 235:./uart/uart-cmd.c ****  }
 236:./uart/uart-cmd.c ****  else
 237:./uart/uart-cmd.c ****  {
 238:./uart/uart-cmd.c ****     uart_println(usartx,"command error....!");
 623              		.loc 1 238 5
 624 012c 2049     		ldr	r1, .L21+12
 625 012e 7868     		ldr	r0, [r7, #4]
 626 0130 FFF7FEFF 		bl	uart_println
 239:./uart/uart-cmd.c **** 	uart_print(usartx,"cmd_start:");
 627              		.loc 1 239 2
 628 0134 1F49     		ldr	r1, .L21+16
 629 0136 7868     		ldr	r0, [r7, #4]
 630 0138 FFF7FEFF 		bl	uart_print
 240:./uart/uart-cmd.c **** 	utoa(cmd_start,buf,10);
 631              		.loc 1 240 2
 632 013c 3B6D     		ldr	r3, [r7, #80]
 633 013e 07F10801 		add	r1, r7, #8
 634 0142 0A22     		movs	r2, #10
 635 0144 1846     		mov	r0, r3
 636 0146 FFF7FEFF 		bl	utoa
 241:./uart/uart-cmd.c **** 	uart_println(usartx,buf);
 637              		.loc 1 241 2
 638 014a 07F10803 		add	r3, r7, #8
 639 014e 1946     		mov	r1, r3
 640 0150 7868     		ldr	r0, [r7, #4]
 641 0152 FFF7FEFF 		bl	uart_println
 242:./uart/uart-cmd.c **** 	uart_print(usartx,"cmd_end:");
 642              		.loc 1 242 2
 643 0156 1849     		ldr	r1, .L21+20
 644 0158 7868     		ldr	r0, [r7, #4]
 645 015a FFF7FEFF 		bl	uart_print
 243:./uart/uart-cmd.c **** 	utoa(cmd_end,buf,10);
 646              		.loc 1 243 2
 647 015e FB6C     		ldr	r3, [r7, #76]
 648 0160 07F10801 		add	r1, r7, #8
 649 0164 0A22     		movs	r2, #10
 650 0166 1846     		mov	r0, r3
 651 0168 FFF7FEFF 		bl	utoa
 244:./uart/uart-cmd.c **** 	uart_println(usartx,buf);
 652              		.loc 1 244 2
 653 016c 07F10803 		add	r3, r7, #8
 654 0170 1946     		mov	r1, r3
ARM GAS  C:\Users\SAMEER~1.ALM\AppData\Local\Temp\ccXJ6CLf.s 			page 17


 655 0172 7868     		ldr	r0, [r7, #4]
 656 0174 FFF7FEFF 		bl	uart_println
 245:./uart/uart-cmd.c **** 	uart_print(usartx,"data_end:");
 657              		.loc 1 245 2
 658 0178 1049     		ldr	r1, .L21+24
 659 017a 7868     		ldr	r0, [r7, #4]
 660 017c FFF7FEFF 		bl	uart_print
 246:./uart/uart-cmd.c **** 	utoa(data_end,buf,10);
 661              		.loc 1 246 2
 662 0180 BB6C     		ldr	r3, [r7, #72]
 663 0182 07F10801 		add	r1, r7, #8
 664 0186 0A22     		movs	r2, #10
 665 0188 1846     		mov	r0, r3
 666 018a FFF7FEFF 		bl	utoa
 247:./uart/uart-cmd.c **** 	uart_println(usartx,buf);
 667              		.loc 1 247 2
 668 018e 07F10803 		add	r3, r7, #8
 669 0192 1946     		mov	r1, r3
 670 0194 7868     		ldr	r0, [r7, #4]
 671 0196 FFF7FEFF 		bl	uart_println
 248:./uart/uart-cmd.c ****  }
 249:./uart/uart-cmd.c **** 
 250:./uart/uart-cmd.c **** }
 672              		.loc 1 250 1
 673 019a 00BF     		nop
 674              	.L20:
 675 019c 00BF     		nop
 676 019e 5837     		adds	r7, r7, #88
 677              	.LCFI27:
 678              		.cfi_def_cfa_offset 8
 679 01a0 BD46     		mov	sp, r7
 680              	.LCFI28:
 681              		.cfi_def_cfa_register 13
 682              		@ sp needed
 683 01a2 80BD     		pop	{r7, pc}
 684              	.L22:
 685              		.align	2
 686              	.L21:
 687 01a4 00000000 		.word	rx_buffer_length
 688 01a8 00000000 		.word	rx_buffer
 689 01ac 50000000 		.word	.LC4
 690 01b0 54000000 		.word	.LC5
 691 01b4 68000000 		.word	.LC6
 692 01b8 74000000 		.word	.LC7
 693 01bc 80000000 		.word	.LC8
 694              		.cfi_endproc
 695              	.LFE37:
 697              		.section	.rodata
 698 008a 0000     		.align	2
 699              	.LC9:
 700 008c 72756E00 		.ascii	"run\000"
 701              		.align	2
 702              	.LC10:
 703 0090 686C7400 		.ascii	"hlt\000"
 704              		.align	2
 705              	.LC11:
 706 0094 696E6974 		.ascii	"init\000"
ARM GAS  C:\Users\SAMEER~1.ALM\AppData\Local\Temp\ccXJ6CLf.s 			page 18


 706      00
 707 0099 000000   		.align	2
 708              	.LC12:
 709 009c 696E666F 		.ascii	"info\000"
 709      00
 710 00a1 000000   		.align	2
 711              	.LC13:
 712 00a4 72656164 		.ascii	"read\000"
 712      00
 713 00a9 000000   		.align	2
 714              	.LC14:
 715 00ac 77726974 		.ascii	"write\000"
 715      6500
 716 00b2 0000     		.align	2
 717              	.LC15:
 718 00b4 77686F00 		.ascii	"who\000"
 719              		.align	2
 720              	.LC16:
 721 00b8 736D706C 		.ascii	"smpl\000"
 721      00
 722 00bd 000000   		.align	2
 723              	.LC17:
 724 00c0 726E6700 		.ascii	"rng\000"
 725              		.align	2
 726              	.LC18:
 727 00c4 6C706600 		.ascii	"lpf\000"
 728              		.align	2
 729              	.LC19:
 730 00c8 68706600 		.ascii	"hpf\000"
 731              		.align	2
 732              	.LC20:
 733 00cc 636C6B00 		.ascii	"clk\000"
 734              		.align	2
 735              	.LC21:
 736 00d0 72737400 		.ascii	"rst\000"
 737              		.align	2
 738              	.LC22:
 739 00d4 74737400 		.ascii	"tst\000"
 740              		.align	2
 741              	.LC23:
 742 00d8 63796300 		.ascii	"cyc\000"
 743              		.align	2
 744              	.LC24:
 745 00dc 696E636F 		.ascii	"incorrect command/parameter ....!\000"
 745      72726563 
 745      7420636F 
 745      6D6D616E 
 745      642F7061 
 746              		.section	.text.uart_handle_cmd,"ax",%progbits
 747              		.align	1
 748              		.global	uart_handle_cmd
 749              		.syntax unified
 750              		.thumb
 751              		.thumb_func
 753              	uart_handle_cmd:
 754              	.LFB38:
 251:./uart/uart-cmd.c **** //-------------------------------------------------------------------------------------------------
ARM GAS  C:\Users\SAMEER~1.ALM\AppData\Local\Temp\ccXJ6CLf.s 			page 19


 252:./uart/uart-cmd.c **** /**
 253:./uart/uart-cmd.c ****  * @brief handle the correct structured received command message
 254:./uart/uart-cmd.c ****  * 
 255:./uart/uart-cmd.c ****  * @details this method gets two arrays one is a pointer to the command string while 
 256:./uart/uart-cmd.c ****  *          the second part is a pointer to the data part (i.e both parameters and values 
 257:./uart/uart-cmd.c ****  *          or values only based on the coomand)
 258:./uart/uart-cmd.c ****  * @param cmd         a pointer to the command string
 259:./uart/uart-cmd.c ****  * @param cmd_len     the length of the command string  
 260:./uart/uart-cmd.c ****  * @param data        a pointer to the data string (both parameters and values pairs)
 261:./uart/uart-cmd.c ****  * @param data_len    the length of the data string
 262:./uart/uart-cmd.c ****  * @return void 
 263:./uart/uart-cmd.c ****  */
 264:./uart/uart-cmd.c **** void uart_handle_cmd(USART_TypeDef * usartx,uint8_t * cmd,size_t cmd_len, uint8_t * data, size_t da
 265:./uart/uart-cmd.c **** {
 755              		.loc 1 265 1
 756              		.cfi_startproc
 757              		@ args = 4, pretend = 0, frame = 16
 758              		@ frame_needed = 1, uses_anonymous_args = 0
 759 0000 80B5     		push	{r7, lr}
 760              	.LCFI29:
 761              		.cfi_def_cfa_offset 8
 762              		.cfi_offset 7, -8
 763              		.cfi_offset 14, -4
 764 0002 84B0     		sub	sp, sp, #16
 765              	.LCFI30:
 766              		.cfi_def_cfa_offset 24
 767 0004 00AF     		add	r7, sp, #0
 768              	.LCFI31:
 769              		.cfi_def_cfa_register 7
 770 0006 F860     		str	r0, [r7, #12]
 771 0008 B960     		str	r1, [r7, #8]
 772 000a 7A60     		str	r2, [r7, #4]
 773 000c 3B60     		str	r3, [r7]
 266:./uart/uart-cmd.c ****   
 267:./uart/uart-cmd.c ****   if(strcasecmp((const char *)cmd,"run")==0)
 774              		.loc 1 267 6
 775 000e 5F49     		ldr	r1, .L41
 776 0010 B868     		ldr	r0, [r7, #8]
 777 0012 FFF7FEFF 		bl	strcasecmp
 778 0016 0346     		mov	r3, r0
 779              		.loc 1 267 5
 780 0018 002B     		cmp	r3, #0
 781 001a 03D1     		bne	.L24
 268:./uart/uart-cmd.c ****   {
 269:./uart/uart-cmd.c **** 	  uart_run_cmd_handle(usartx);
 782              		.loc 1 269 4
 783 001c F868     		ldr	r0, [r7, #12]
 784 001e FFF7FEFF 		bl	uart_run_cmd_handle
 270:./uart/uart-cmd.c ****   } 
 271:./uart/uart-cmd.c ****   else if(strcasecmp((const char *)cmd,"hlt")==0)
 272:./uart/uart-cmd.c ****   {
 273:./uart/uart-cmd.c **** 	  uart_hlt_cmd_handle(usartx);
 274:./uart/uart-cmd.c ****   }
 275:./uart/uart-cmd.c ****   else if(strcasecmp((const char *)cmd,"init")==0)
 276:./uart/uart-cmd.c ****   {
 277:./uart/uart-cmd.c **** 	  uart_init_cmd_handle(usartx);
 278:./uart/uart-cmd.c ****   }
ARM GAS  C:\Users\SAMEER~1.ALM\AppData\Local\Temp\ccXJ6CLf.s 			page 20


 279:./uart/uart-cmd.c ****   else if(strcasecmp((const char *)cmd,"info")==0)
 280:./uart/uart-cmd.c ****   {
 281:./uart/uart-cmd.c **** 	  uart_info_cmd_handle(usartx);
 282:./uart/uart-cmd.c ****   }
 283:./uart/uart-cmd.c ****   else if(strcasecmp((const char *)cmd,"read")==0)
 284:./uart/uart-cmd.c ****   {
 285:./uart/uart-cmd.c **** 
 286:./uart/uart-cmd.c **** 	  uart_read_cmd_handle(usartx,data,data_len);
 287:./uart/uart-cmd.c ****   }    
 288:./uart/uart-cmd.c ****   else if(strcasecmp((const char *)cmd,"write")==0)
 289:./uart/uart-cmd.c ****   {
 290:./uart/uart-cmd.c **** 	  uart_write_cmd_handle(usartx,data,data_len);
 291:./uart/uart-cmd.c ****   }    
 292:./uart/uart-cmd.c ****   else if(strcasecmp((const char *)cmd,"who")==0)
 293:./uart/uart-cmd.c ****   {
 294:./uart/uart-cmd.c **** 	  uart_who_cmd_handle(usartx);
 295:./uart/uart-cmd.c ****   }    
 296:./uart/uart-cmd.c ****   else if(strcasecmp((const char *)cmd,"smpl")==0)
 297:./uart/uart-cmd.c ****   {
 298:./uart/uart-cmd.c **** 	  uart_smpl_cmd_handle(usartx,data,data_len);
 299:./uart/uart-cmd.c ****   }    
 300:./uart/uart-cmd.c ****   else if(strcasecmp((const char *)cmd,"rng")==0)
 301:./uart/uart-cmd.c ****   {
 302:./uart/uart-cmd.c **** 	  uart_rng_cmd_handle(usartx,data,data_len);
 303:./uart/uart-cmd.c ****   }    
 304:./uart/uart-cmd.c ****   else if(strcasecmp((const char *)cmd,"lpf")==0)
 305:./uart/uart-cmd.c ****   {
 306:./uart/uart-cmd.c **** 	  uart_lpf_cmd_handle(usartx,data,data_len);
 307:./uart/uart-cmd.c ****   }    
 308:./uart/uart-cmd.c ****   else if(strcasecmp((const char *)cmd,"hpf")==0)
 309:./uart/uart-cmd.c ****   {
 310:./uart/uart-cmd.c **** 	  uart_hpf_cmd_handle(usartx,data,data_len);
 311:./uart/uart-cmd.c ****   }    
 312:./uart/uart-cmd.c ****   else if(strcasecmp((const char *)cmd,"clk")==0)
 313:./uart/uart-cmd.c ****   {
 314:./uart/uart-cmd.c **** 	 uart_clk_cmd_handle(usartx,data,data_len);
 315:./uart/uart-cmd.c ****   } 
 316:./uart/uart-cmd.c ****   else if(strcasecmp((const char *)cmd,"rst")==0)
 317:./uart/uart-cmd.c ****   {
 318:./uart/uart-cmd.c **** 	 uart_rst_cmd_handle(usartx);
 319:./uart/uart-cmd.c ****   } 
 320:./uart/uart-cmd.c ****   else if(strcasecmp((const char *)cmd,"tst")==0)
 321:./uart/uart-cmd.c ****   {
 322:./uart/uart-cmd.c **** 	  uart_tst_cmd_handle(usartx,data,data_len);
 323:./uart/uart-cmd.c ****   } 
 324:./uart/uart-cmd.c ****   else if(strcasecmp((const char *)cmd,"cyc")==0)
 325:./uart/uart-cmd.c ****   {
 326:./uart/uart-cmd.c **** 	  uart_cyc_cmd_handle(usartx,data,data_len);
 327:./uart/uart-cmd.c ****   } 
 328:./uart/uart-cmd.c ****   else
 329:./uart/uart-cmd.c ****   {
 330:./uart/uart-cmd.c ****     uart_println(usartx,"incorrect command/parameter ....!");
 331:./uart/uart-cmd.c ****   }
 332:./uart/uart-cmd.c **** }
 785              		.loc 1 332 1
 786 0022 AFE0     		b	.L40
 787              	.L24:
ARM GAS  C:\Users\SAMEER~1.ALM\AppData\Local\Temp\ccXJ6CLf.s 			page 21


 271:./uart/uart-cmd.c ****   {
 788              		.loc 1 271 11
 789 0024 5A49     		ldr	r1, .L41+4
 790 0026 B868     		ldr	r0, [r7, #8]
 791 0028 FFF7FEFF 		bl	strcasecmp
 792 002c 0346     		mov	r3, r0
 271:./uart/uart-cmd.c ****   {
 793              		.loc 1 271 10
 794 002e 002B     		cmp	r3, #0
 795 0030 03D1     		bne	.L26
 273:./uart/uart-cmd.c ****   }
 796              		.loc 1 273 4
 797 0032 F868     		ldr	r0, [r7, #12]
 798 0034 FFF7FEFF 		bl	uart_hlt_cmd_handle
 799              		.loc 1 332 1
 800 0038 A4E0     		b	.L40
 801              	.L26:
 275:./uart/uart-cmd.c ****   {
 802              		.loc 1 275 11
 803 003a 5649     		ldr	r1, .L41+8
 804 003c B868     		ldr	r0, [r7, #8]
 805 003e FFF7FEFF 		bl	strcasecmp
 806 0042 0346     		mov	r3, r0
 275:./uart/uart-cmd.c ****   {
 807              		.loc 1 275 10
 808 0044 002B     		cmp	r3, #0
 809 0046 03D1     		bne	.L27
 277:./uart/uart-cmd.c ****   }
 810              		.loc 1 277 4
 811 0048 F868     		ldr	r0, [r7, #12]
 812 004a FFF7FEFF 		bl	uart_init_cmd_handle
 813              		.loc 1 332 1
 814 004e 99E0     		b	.L40
 815              	.L27:
 279:./uart/uart-cmd.c ****   {
 816              		.loc 1 279 11
 817 0050 5149     		ldr	r1, .L41+12
 818 0052 B868     		ldr	r0, [r7, #8]
 819 0054 FFF7FEFF 		bl	strcasecmp
 820 0058 0346     		mov	r3, r0
 279:./uart/uart-cmd.c ****   {
 821              		.loc 1 279 10
 822 005a 002B     		cmp	r3, #0
 823 005c 03D1     		bne	.L28
 281:./uart/uart-cmd.c ****   }
 824              		.loc 1 281 4
 825 005e F868     		ldr	r0, [r7, #12]
 826 0060 FFF7FEFF 		bl	uart_info_cmd_handle
 827              		.loc 1 332 1
 828 0064 8EE0     		b	.L40
 829              	.L28:
 283:./uart/uart-cmd.c ****   {
 830              		.loc 1 283 11
 831 0066 4D49     		ldr	r1, .L41+16
 832 0068 B868     		ldr	r0, [r7, #8]
 833 006a FFF7FEFF 		bl	strcasecmp
 834 006e 0346     		mov	r3, r0
ARM GAS  C:\Users\SAMEER~1.ALM\AppData\Local\Temp\ccXJ6CLf.s 			page 22


 283:./uart/uart-cmd.c ****   {
 835              		.loc 1 283 10
 836 0070 002B     		cmp	r3, #0
 837 0072 05D1     		bne	.L29
 286:./uart/uart-cmd.c ****   }    
 838              		.loc 1 286 4
 839 0074 BA69     		ldr	r2, [r7, #24]
 840 0076 3968     		ldr	r1, [r7]
 841 0078 F868     		ldr	r0, [r7, #12]
 842 007a FFF7FEFF 		bl	uart_read_cmd_handle
 843              		.loc 1 332 1
 844 007e 81E0     		b	.L40
 845              	.L29:
 288:./uart/uart-cmd.c ****   {
 846              		.loc 1 288 11
 847 0080 4749     		ldr	r1, .L41+20
 848 0082 B868     		ldr	r0, [r7, #8]
 849 0084 FFF7FEFF 		bl	strcasecmp
 850 0088 0346     		mov	r3, r0
 288:./uart/uart-cmd.c ****   {
 851              		.loc 1 288 10
 852 008a 002B     		cmp	r3, #0
 853 008c 05D1     		bne	.L30
 290:./uart/uart-cmd.c ****   }    
 854              		.loc 1 290 4
 855 008e BA69     		ldr	r2, [r7, #24]
 856 0090 3968     		ldr	r1, [r7]
 857 0092 F868     		ldr	r0, [r7, #12]
 858 0094 FFF7FEFF 		bl	uart_write_cmd_handle
 859              		.loc 1 332 1
 860 0098 74E0     		b	.L40
 861              	.L30:
 292:./uart/uart-cmd.c ****   {
 862              		.loc 1 292 11
 863 009a 4249     		ldr	r1, .L41+24
 864 009c B868     		ldr	r0, [r7, #8]
 865 009e FFF7FEFF 		bl	strcasecmp
 866 00a2 0346     		mov	r3, r0
 292:./uart/uart-cmd.c ****   {
 867              		.loc 1 292 10
 868 00a4 002B     		cmp	r3, #0
 869 00a6 03D1     		bne	.L31
 294:./uart/uart-cmd.c ****   }    
 870              		.loc 1 294 4
 871 00a8 F868     		ldr	r0, [r7, #12]
 872 00aa FFF7FEFF 		bl	uart_who_cmd_handle
 873              		.loc 1 332 1
 874 00ae 69E0     		b	.L40
 875              	.L31:
 296:./uart/uart-cmd.c ****   {
 876              		.loc 1 296 11
 877 00b0 3D49     		ldr	r1, .L41+28
 878 00b2 B868     		ldr	r0, [r7, #8]
 879 00b4 FFF7FEFF 		bl	strcasecmp
 880 00b8 0346     		mov	r3, r0
 296:./uart/uart-cmd.c ****   {
 881              		.loc 1 296 10
ARM GAS  C:\Users\SAMEER~1.ALM\AppData\Local\Temp\ccXJ6CLf.s 			page 23


 882 00ba 002B     		cmp	r3, #0
 883 00bc 05D1     		bne	.L32
 298:./uart/uart-cmd.c ****   }    
 884              		.loc 1 298 4
 885 00be BA69     		ldr	r2, [r7, #24]
 886 00c0 3968     		ldr	r1, [r7]
 887 00c2 F868     		ldr	r0, [r7, #12]
 888 00c4 FFF7FEFF 		bl	uart_smpl_cmd_handle
 889              		.loc 1 332 1
 890 00c8 5CE0     		b	.L40
 891              	.L32:
 300:./uart/uart-cmd.c ****   {
 892              		.loc 1 300 11
 893 00ca 3849     		ldr	r1, .L41+32
 894 00cc B868     		ldr	r0, [r7, #8]
 895 00ce FFF7FEFF 		bl	strcasecmp
 896 00d2 0346     		mov	r3, r0
 300:./uart/uart-cmd.c ****   {
 897              		.loc 1 300 10
 898 00d4 002B     		cmp	r3, #0
 899 00d6 05D1     		bne	.L33
 302:./uart/uart-cmd.c ****   }    
 900              		.loc 1 302 4
 901 00d8 BA69     		ldr	r2, [r7, #24]
 902 00da 3968     		ldr	r1, [r7]
 903 00dc F868     		ldr	r0, [r7, #12]
 904 00de FFF7FEFF 		bl	uart_rng_cmd_handle
 905              		.loc 1 332 1
 906 00e2 4FE0     		b	.L40
 907              	.L33:
 304:./uart/uart-cmd.c ****   {
 908              		.loc 1 304 11
 909 00e4 3249     		ldr	r1, .L41+36
 910 00e6 B868     		ldr	r0, [r7, #8]
 911 00e8 FFF7FEFF 		bl	strcasecmp
 912 00ec 0346     		mov	r3, r0
 304:./uart/uart-cmd.c ****   {
 913              		.loc 1 304 10
 914 00ee 002B     		cmp	r3, #0
 915 00f0 05D1     		bne	.L34
 306:./uart/uart-cmd.c ****   }    
 916              		.loc 1 306 4
 917 00f2 BA69     		ldr	r2, [r7, #24]
 918 00f4 3968     		ldr	r1, [r7]
 919 00f6 F868     		ldr	r0, [r7, #12]
 920 00f8 FFF7FEFF 		bl	uart_lpf_cmd_handle
 921              		.loc 1 332 1
 922 00fc 42E0     		b	.L40
 923              	.L34:
 308:./uart/uart-cmd.c ****   {
 924              		.loc 1 308 11
 925 00fe 2D49     		ldr	r1, .L41+40
 926 0100 B868     		ldr	r0, [r7, #8]
 927 0102 FFF7FEFF 		bl	strcasecmp
 928 0106 0346     		mov	r3, r0
 308:./uart/uart-cmd.c ****   {
 929              		.loc 1 308 10
ARM GAS  C:\Users\SAMEER~1.ALM\AppData\Local\Temp\ccXJ6CLf.s 			page 24


 930 0108 002B     		cmp	r3, #0
 931 010a 05D1     		bne	.L35
 310:./uart/uart-cmd.c ****   }    
 932              		.loc 1 310 4
 933 010c BA69     		ldr	r2, [r7, #24]
 934 010e 3968     		ldr	r1, [r7]
 935 0110 F868     		ldr	r0, [r7, #12]
 936 0112 FFF7FEFF 		bl	uart_hpf_cmd_handle
 937              		.loc 1 332 1
 938 0116 35E0     		b	.L40
 939              	.L35:
 312:./uart/uart-cmd.c ****   {
 940              		.loc 1 312 11
 941 0118 2749     		ldr	r1, .L41+44
 942 011a B868     		ldr	r0, [r7, #8]
 943 011c FFF7FEFF 		bl	strcasecmp
 944 0120 0346     		mov	r3, r0
 312:./uart/uart-cmd.c ****   {
 945              		.loc 1 312 10
 946 0122 002B     		cmp	r3, #0
 947 0124 05D1     		bne	.L36
 314:./uart/uart-cmd.c ****   } 
 948              		.loc 1 314 3
 949 0126 BA69     		ldr	r2, [r7, #24]
 950 0128 3968     		ldr	r1, [r7]
 951 012a F868     		ldr	r0, [r7, #12]
 952 012c FFF7FEFF 		bl	uart_clk_cmd_handle
 953              		.loc 1 332 1
 954 0130 28E0     		b	.L40
 955              	.L36:
 316:./uart/uart-cmd.c ****   {
 956              		.loc 1 316 11
 957 0132 2249     		ldr	r1, .L41+48
 958 0134 B868     		ldr	r0, [r7, #8]
 959 0136 FFF7FEFF 		bl	strcasecmp
 960 013a 0346     		mov	r3, r0
 316:./uart/uart-cmd.c ****   {
 961              		.loc 1 316 10
 962 013c 002B     		cmp	r3, #0
 963 013e 03D1     		bne	.L37
 318:./uart/uart-cmd.c ****   } 
 964              		.loc 1 318 3
 965 0140 F868     		ldr	r0, [r7, #12]
 966 0142 FFF7FEFF 		bl	uart_rst_cmd_handle
 967              		.loc 1 332 1
 968 0146 1DE0     		b	.L40
 969              	.L37:
 320:./uart/uart-cmd.c ****   {
 970              		.loc 1 320 11
 971 0148 1D49     		ldr	r1, .L41+52
 972 014a B868     		ldr	r0, [r7, #8]
 973 014c FFF7FEFF 		bl	strcasecmp
 974 0150 0346     		mov	r3, r0
 320:./uart/uart-cmd.c ****   {
 975              		.loc 1 320 10
 976 0152 002B     		cmp	r3, #0
 977 0154 05D1     		bne	.L38
ARM GAS  C:\Users\SAMEER~1.ALM\AppData\Local\Temp\ccXJ6CLf.s 			page 25


 322:./uart/uart-cmd.c ****   } 
 978              		.loc 1 322 4
 979 0156 BA69     		ldr	r2, [r7, #24]
 980 0158 3968     		ldr	r1, [r7]
 981 015a F868     		ldr	r0, [r7, #12]
 982 015c FFF7FEFF 		bl	uart_tst_cmd_handle
 983              		.loc 1 332 1
 984 0160 10E0     		b	.L40
 985              	.L38:
 324:./uart/uart-cmd.c ****   {
 986              		.loc 1 324 11
 987 0162 1849     		ldr	r1, .L41+56
 988 0164 B868     		ldr	r0, [r7, #8]
 989 0166 FFF7FEFF 		bl	strcasecmp
 990 016a 0346     		mov	r3, r0
 324:./uart/uart-cmd.c ****   {
 991              		.loc 1 324 10
 992 016c 002B     		cmp	r3, #0
 993 016e 05D1     		bne	.L39
 326:./uart/uart-cmd.c ****   } 
 994              		.loc 1 326 4
 995 0170 BA69     		ldr	r2, [r7, #24]
 996 0172 3968     		ldr	r1, [r7]
 997 0174 F868     		ldr	r0, [r7, #12]
 998 0176 FFF7FEFF 		bl	uart_cyc_cmd_handle
 999              		.loc 1 332 1
 1000 017a 03E0     		b	.L40
 1001              	.L39:
 330:./uart/uart-cmd.c ****   }
 1002              		.loc 1 330 5
 1003 017c 1249     		ldr	r1, .L41+60
 1004 017e F868     		ldr	r0, [r7, #12]
 1005 0180 FFF7FEFF 		bl	uart_println
 1006              	.L40:
 1007              		.loc 1 332 1
 1008 0184 00BF     		nop
 1009 0186 1037     		adds	r7, r7, #16
 1010              	.LCFI32:
 1011              		.cfi_def_cfa_offset 8
 1012 0188 BD46     		mov	sp, r7
 1013              	.LCFI33:
 1014              		.cfi_def_cfa_register 13
 1015              		@ sp needed
 1016 018a 80BD     		pop	{r7, pc}
 1017              	.L42:
 1018              		.align	2
 1019              	.L41:
 1020 018c 8C000000 		.word	.LC9
 1021 0190 90000000 		.word	.LC10
 1022 0194 94000000 		.word	.LC11
 1023 0198 9C000000 		.word	.LC12
 1024 019c A4000000 		.word	.LC13
 1025 01a0 AC000000 		.word	.LC14
 1026 01a4 B4000000 		.word	.LC15
 1027 01a8 B8000000 		.word	.LC16
 1028 01ac C0000000 		.word	.LC17
 1029 01b0 C4000000 		.word	.LC18
ARM GAS  C:\Users\SAMEER~1.ALM\AppData\Local\Temp\ccXJ6CLf.s 			page 26


 1030 01b4 C8000000 		.word	.LC19
 1031 01b8 CC000000 		.word	.LC20
 1032 01bc D0000000 		.word	.LC21
 1033 01c0 D4000000 		.word	.LC22
 1034 01c4 D8000000 		.word	.LC23
 1035 01c8 DC000000 		.word	.LC24
 1036              		.cfi_endproc
 1037              	.LFE38:
 1039              		.section	.rodata
 1040 00fe 0000     		.align	2
 1041              	.LC25:
 1042 0100 72756E20 		.ascii	"run acquestion for MPU6050 cmd .....\000"
 1042      61637175 
 1042      65737469 
 1042      6F6E2066 
 1042      6F72204D 
 1043              		.section	.text.uart_run_cmd_handle,"ax",%progbits
 1044              		.align	1
 1045              		.global	uart_run_cmd_handle
 1046              		.syntax unified
 1047              		.thumb
 1048              		.thumb_func
 1050              	uart_run_cmd_handle:
 1051              	.LFB39:
 333:./uart/uart-cmd.c **** //-------------------------------------------------------------------------------------------------
 334:./uart/uart-cmd.c **** //********************************************************************************************
 335:./uart/uart-cmd.c **** //
 336:./uart/uart-cmd.c **** //  uart commands Prototype function
 337:./uart/uart-cmd.c **** //
 338:./uart/uart-cmd.c **** //********************************************************************************************
 339:./uart/uart-cmd.c **** /**
 340:./uart/uart-cmd.c ****  * @brief force system to run/stop  data acquestion of MPU6050 sensors
 341:./uart/uart-cmd.c ****  * @details 
 342:./uart/uart-cmd.c ****  * @return  
 343:./uart/uart-cmd.c ****  */
 344:./uart/uart-cmd.c **** void  uart_run_cmd_handle(USART_TypeDef * usartx)
 345:./uart/uart-cmd.c **** {
 1052              		.loc 1 345 1
 1053              		.cfi_startproc
 1054              		@ args = 0, pretend = 0, frame = 8
 1055              		@ frame_needed = 1, uses_anonymous_args = 0
 1056 0000 80B5     		push	{r7, lr}
 1057              	.LCFI34:
 1058              		.cfi_def_cfa_offset 8
 1059              		.cfi_offset 7, -8
 1060              		.cfi_offset 14, -4
 1061 0002 82B0     		sub	sp, sp, #8
 1062              	.LCFI35:
 1063              		.cfi_def_cfa_offset 16
 1064 0004 00AF     		add	r7, sp, #0
 1065              	.LCFI36:
 1066              		.cfi_def_cfa_register 7
 1067 0006 7860     		str	r0, [r7, #4]
 346:./uart/uart-cmd.c **** //! run command: force system to run/stop  data acquestion of MPU6050 sensors
 347:./uart/uart-cmd.c ****  uart_println(usartx,"run acquestion for MPU6050 cmd .....");  
 1068              		.loc 1 347 2
 1069 0008 0549     		ldr	r1, .L44
ARM GAS  C:\Users\SAMEER~1.ALM\AppData\Local\Temp\ccXJ6CLf.s 			page 27


 1070 000a 7868     		ldr	r0, [r7, #4]
 1071 000c FFF7FEFF 		bl	uart_println
 348:./uart/uart-cmd.c ****   mpu_settings.acq_run=1;//mpu_acq_run=1;
 1072              		.loc 1 348 23
 1073 0010 044B     		ldr	r3, .L44+4
 1074 0012 0122     		movs	r2, #1
 1075 0014 9A71     		strb	r2, [r3, #6]
 349:./uart/uart-cmd.c **** }
 1076              		.loc 1 349 1
 1077 0016 00BF     		nop
 1078 0018 0837     		adds	r7, r7, #8
 1079              	.LCFI37:
 1080              		.cfi_def_cfa_offset 8
 1081 001a BD46     		mov	sp, r7
 1082              	.LCFI38:
 1083              		.cfi_def_cfa_register 13
 1084              		@ sp needed
 1085 001c 80BD     		pop	{r7, pc}
 1086              	.L45:
 1087 001e 00BF     		.align	2
 1088              	.L44:
 1089 0020 00010000 		.word	.LC25
 1090 0024 00000000 		.word	mpu_settings
 1091              		.cfi_endproc
 1092              	.LFE39:
 1094              		.section	.rodata
 1095 0125 000000   		.align	2
 1096              	.LC26:
 1097 0128 68616C74 		.ascii	"halt acquestion for MPU6050 cmd .....\000"
 1097      20616371 
 1097      75657374 
 1097      696F6E20 
 1097      666F7220 
 1098              		.section	.text.uart_hlt_cmd_handle,"ax",%progbits
 1099              		.align	1
 1100              		.global	uart_hlt_cmd_handle
 1101              		.syntax unified
 1102              		.thumb
 1103              		.thumb_func
 1105              	uart_hlt_cmd_handle:
 1106              	.LFB40:
 350:./uart/uart-cmd.c **** //-----------------------------------------------------------------------------
 351:./uart/uart-cmd.c **** /**
 352:./uart/uart-cmd.c ****  * @brief handle the halt command
 353:./uart/uart-cmd.c ****  * 
 354:./uart/uart-cmd.c ****  * @details this method handle the blink command which request 
 355:./uart/uart-cmd.c ****  *          to deactivate of the bliniking task 
 356:./uart/uart-cmd.c ****  * @return void
 357:./uart/uart-cmd.c ****  */
 358:./uart/uart-cmd.c **** void  uart_hlt_cmd_handle(USART_TypeDef * usartx)
 359:./uart/uart-cmd.c **** {
 1107              		.loc 1 359 1
 1108              		.cfi_startproc
 1109              		@ args = 0, pretend = 0, frame = 8
 1110              		@ frame_needed = 1, uses_anonymous_args = 0
 1111 0000 80B5     		push	{r7, lr}
 1112              	.LCFI39:
ARM GAS  C:\Users\SAMEER~1.ALM\AppData\Local\Temp\ccXJ6CLf.s 			page 28


 1113              		.cfi_def_cfa_offset 8
 1114              		.cfi_offset 7, -8
 1115              		.cfi_offset 14, -4
 1116 0002 82B0     		sub	sp, sp, #8
 1117              	.LCFI40:
 1118              		.cfi_def_cfa_offset 16
 1119 0004 00AF     		add	r7, sp, #0
 1120              	.LCFI41:
 1121              		.cfi_def_cfa_register 7
 1122 0006 7860     		str	r0, [r7, #4]
 360:./uart/uart-cmd.c ****   uart_println(usartx,"halt acquestion for MPU6050 cmd .....");  
 1123              		.loc 1 360 3
 1124 0008 0549     		ldr	r1, .L47
 1125 000a 7868     		ldr	r0, [r7, #4]
 1126 000c FFF7FEFF 		bl	uart_println
 361:./uart/uart-cmd.c ****   mpu_settings.acq_run=0;//mpu_acq_run=0;
 1127              		.loc 1 361 23
 1128 0010 044B     		ldr	r3, .L47+4
 1129 0012 0022     		movs	r2, #0
 1130 0014 9A71     		strb	r2, [r3, #6]
 362:./uart/uart-cmd.c **** }
 1131              		.loc 1 362 1
 1132 0016 00BF     		nop
 1133 0018 0837     		adds	r7, r7, #8
 1134              	.LCFI42:
 1135              		.cfi_def_cfa_offset 8
 1136 001a BD46     		mov	sp, r7
 1137              	.LCFI43:
 1138              		.cfi_def_cfa_register 13
 1139              		@ sp needed
 1140 001c 80BD     		pop	{r7, pc}
 1141              	.L48:
 1142 001e 00BF     		.align	2
 1143              	.L47:
 1144 0020 28010000 		.word	.LC26
 1145 0024 00000000 		.word	mpu_settings
 1146              		.cfi_endproc
 1147              	.LFE40:
 1149              		.section	.rodata
 1150 014e 0000     		.align	2
 1151              	.LC27:
 1152 0150 696E6974 		.ascii	"initialization MPU6050 cmd .....\000"
 1152      69616C69 
 1152      7A617469 
 1152      6F6E204D 
 1152      50553630 
 1153 0171 000000   		.align	2
 1154              	.LC28:
 1155 0174 4661696C 		.ascii	"Failed to initialize the MPU6050 ER::\000"
 1155      65642074 
 1155      6F20696E 
 1155      69746961 
 1155      6C697A65 
 1156 019a 0000     		.align	2
 1157              	.LC29:
 1158 019c 696E6974 		.ascii	"initialization MPU6050 Done .....\000"
 1158      69616C69 
ARM GAS  C:\Users\SAMEER~1.ALM\AppData\Local\Temp\ccXJ6CLf.s 			page 29


 1158      7A617469 
 1158      6F6E204D 
 1158      50553630 
 1159              		.section	.text.uart_init_cmd_handle,"ax",%progbits
 1160              		.align	1
 1161              		.global	uart_init_cmd_handle
 1162              		.syntax unified
 1163              		.thumb
 1164              		.thumb_func
 1166              	uart_init_cmd_handle:
 1167              	.LFB41:
 363:./uart/uart-cmd.c **** //-------------------------------------------------------------------------------------------------
 364:./uart/uart-cmd.c **** /**
 365:./uart/uart-cmd.c ****  * @brief init command: initialize MPU6050 Module
 366:./uart/uart-cmd.c ****  * @details 
 367:./uart/uart-cmd.c ****  * @return  
 368:./uart/uart-cmd.c ****  */
 369:./uart/uart-cmd.c **** void  uart_init_cmd_handle(USART_TypeDef * usartx)
 370:./uart/uart-cmd.c **** {
 1168              		.loc 1 370 1
 1169              		.cfi_startproc
 1170              		@ args = 0, pretend = 0, frame = 16
 1171              		@ frame_needed = 1, uses_anonymous_args = 0
 1172 0000 80B5     		push	{r7, lr}
 1173              	.LCFI44:
 1174              		.cfi_def_cfa_offset 8
 1175              		.cfi_offset 7, -8
 1176              		.cfi_offset 14, -4
 1177 0002 84B0     		sub	sp, sp, #16
 1178              	.LCFI45:
 1179              		.cfi_def_cfa_offset 24
 1180 0004 00AF     		add	r7, sp, #0
 1181              	.LCFI46:
 1182              		.cfi_def_cfa_register 7
 1183 0006 7860     		str	r0, [r7, #4]
 371:./uart/uart-cmd.c ****  uint8_t error=0;
 1184              		.loc 1 371 10
 1185 0008 0023     		movs	r3, #0
 1186 000a FB73     		strb	r3, [r7, #15]
 372:./uart/uart-cmd.c **** //! init command: initialize MPU6050 Module
 373:./uart/uart-cmd.c ****   uart_println(usartx,"initialization MPU6050 cmd .....");  
 1187              		.loc 1 373 3
 1188 000c 1249     		ldr	r1, .L52
 1189 000e 7868     		ldr	r0, [r7, #4]
 1190 0010 FFF7FEFF 		bl	uart_println
 374:./uart/uart-cmd.c ****   i2c_init_std(MPU6050_I2C,MPU6050_I2C_CLOCK,0x20);
 1191              		.loc 1 374 3
 1192 0014 2022     		movs	r2, #32
 1193 0016 1149     		ldr	r1, .L52+4
 1194 0018 1148     		ldr	r0, .L52+8
 1195 001a FFF7FEFF 		bl	i2c_init_std
 375:./uart/uart-cmd.c ****   error=mpu6050_init((MPU6050_t *)&myMPU6050,MPU6050_Accel_Range_2G,MPU6050_Gyro_Range_500s);
 1196              		.loc 1 375 9
 1197 001e 0122     		movs	r2, #1
 1198 0020 0021     		movs	r1, #0
 1199 0022 1048     		ldr	r0, .L52+12
 1200 0024 FFF7FEFF 		bl	mpu6050_init
ARM GAS  C:\Users\SAMEER~1.ALM\AppData\Local\Temp\ccXJ6CLf.s 			page 30


 1201 0028 0346     		mov	r3, r0
 1202 002a FB73     		strb	r3, [r7, #15]
 376:./uart/uart-cmd.c ****   if(error != I2C_OK)
 1203              		.loc 1 376 5
 1204 002c FB7B     		ldrb	r3, [r7, #15]	@ zero_extendqisi2
 1205 002e 002B     		cmp	r3, #0
 1206 0030 0AD0     		beq	.L50
 377:./uart/uart-cmd.c ****   {
 378:./uart/uart-cmd.c **** 	uart_print(usartx,"Failed to initialize the MPU6050 ER::");
 1207              		.loc 1 378 2
 1208 0032 0D49     		ldr	r1, .L52+16
 1209 0034 7868     		ldr	r0, [r7, #4]
 1210 0036 FFF7FEFF 		bl	uart_print
 379:./uart/uart-cmd.c **** 	uart_print_integer(usartx,error,10);
 1211              		.loc 1 379 2
 1212 003a FB7B     		ldrb	r3, [r7, #15]	@ zero_extendqisi2
 1213 003c 0A22     		movs	r2, #10
 1214 003e 1946     		mov	r1, r3
 1215 0040 7868     		ldr	r0, [r7, #4]
 1216 0042 FFF7FEFF 		bl	uart_print_integer
 380:./uart/uart-cmd.c **** 	return ;
 1217              		.loc 1 380 2
 1218 0046 03E0     		b	.L49
 1219              	.L50:
 381:./uart/uart-cmd.c ****   }
 382:./uart/uart-cmd.c ****   uart_println(usartx,"initialization MPU6050 Done .....");  
 1220              		.loc 1 382 3
 1221 0048 0849     		ldr	r1, .L52+20
 1222 004a 7868     		ldr	r0, [r7, #4]
 1223 004c FFF7FEFF 		bl	uart_println
 1224              	.L49:
 383:./uart/uart-cmd.c **** 
 384:./uart/uart-cmd.c **** }
 1225              		.loc 1 384 1
 1226 0050 1037     		adds	r7, r7, #16
 1227              	.LCFI47:
 1228              		.cfi_def_cfa_offset 8
 1229 0052 BD46     		mov	sp, r7
 1230              	.LCFI48:
 1231              		.cfi_def_cfa_register 13
 1232              		@ sp needed
 1233 0054 80BD     		pop	{r7, pc}
 1234              	.L53:
 1235 0056 00BF     		.align	2
 1236              	.L52:
 1237 0058 50010000 		.word	.LC27
 1238 005c 801A0600 		.word	400000
 1239 0060 00540040 		.word	1073763328
 1240 0064 00000000 		.word	myMPU6050
 1241 0068 74010000 		.word	.LC28
 1242 006c 9C010000 		.word	.LC29
 1243              		.cfi_endproc
 1244              	.LFE41:
 1246              		.section	.rodata
 1247 01be 0000     		.align	2
 1248              	.LC30:
 1249 01c0 52657365 		.ascii	"Reset MPU6050 cmd .....\000"
ARM GAS  C:\Users\SAMEER~1.ALM\AppData\Local\Temp\ccXJ6CLf.s 			page 31


 1249      74204D50 
 1249      55363035 
 1249      3020636D 
 1249      64202E2E 
 1250              		.align	2
 1251              	.LC31:
 1252 01d8 4D505536 		.ascii	"MPU6050 successfully Reset \000"
 1252      30353020 
 1252      73756363 
 1252      65737366 
 1252      756C6C79 
 1253              		.align	2
 1254              	.LC32:
 1255 01f4 4572726F 		.ascii	"Error:0x\000"
 1255      723A3078 
 1255      00
 1256 01fd 000000   		.align	2
 1257              	.LC33:
 1258 0200 09206661 		.ascii	"\011 failed to reset MPU6050 \000"
 1258      696C6564 
 1258      20746F20 
 1258      72657365 
 1258      74204D50 
 1259              		.section	.text.uart_rst_cmd_handle,"ax",%progbits
 1260              		.align	1
 1261              		.global	uart_rst_cmd_handle
 1262              		.syntax unified
 1263              		.thumb
 1264              		.thumb_func
 1266              	uart_rst_cmd_handle:
 1267              	.LFB42:
 385:./uart/uart-cmd.c **** //-----------------------------------------------------------------------------
 386:./uart/uart-cmd.c **** /**
 387:./uart/uart-cmd.c ****  * @brief info command: returns specific info about the mpu6050
 388:./uart/uart-cmd.c ****  * @details 
 389:./uart/uart-cmd.c ****  * @return  
 390:./uart/uart-cmd.c ****  */
 391:./uart/uart-cmd.c **** void  uart_rst_cmd_handle(USART_TypeDef * usartx)
 392:./uart/uart-cmd.c **** {
 1268              		.loc 1 392 1
 1269              		.cfi_startproc
 1270              		@ args = 0, pretend = 0, frame = 16
 1271              		@ frame_needed = 1, uses_anonymous_args = 0
 1272 0000 80B5     		push	{r7, lr}
 1273              	.LCFI49:
 1274              		.cfi_def_cfa_offset 8
 1275              		.cfi_offset 7, -8
 1276              		.cfi_offset 14, -4
 1277 0002 84B0     		sub	sp, sp, #16
 1278              	.LCFI50:
 1279              		.cfi_def_cfa_offset 24
 1280 0004 00AF     		add	r7, sp, #0
 1281              	.LCFI51:
 1282              		.cfi_def_cfa_register 7
 1283 0006 7860     		str	r0, [r7, #4]
 393:./uart/uart-cmd.c ****  uint8_t error=0;
 1284              		.loc 1 393 10
ARM GAS  C:\Users\SAMEER~1.ALM\AppData\Local\Temp\ccXJ6CLf.s 			page 32


 1285 0008 0023     		movs	r3, #0
 1286 000a FB73     		strb	r3, [r7, #15]
 394:./uart/uart-cmd.c **** //! reset command: reset MPU6050 Module
 395:./uart/uart-cmd.c ****   uart_println(usartx,"Reset MPU6050 cmd .....");  
 1287              		.loc 1 395 3
 1288 000c 1149     		ldr	r1, .L58
 1289 000e 7868     		ldr	r0, [r7, #4]
 1290 0010 FFF7FEFF 		bl	uart_println
 396:./uart/uart-cmd.c ****   error=mpu6050_reset((MPU6050_t*)&myMPU6050);
 1291              		.loc 1 396 9
 1292 0014 1048     		ldr	r0, .L58+4
 1293 0016 FFF7FEFF 		bl	mpu6050_reset
 1294 001a 0346     		mov	r3, r0
 1295 001c FB73     		strb	r3, [r7, #15]
 397:./uart/uart-cmd.c ****   if(error==I2C_OK)
 1296              		.loc 1 397 5
 1297 001e FB7B     		ldrb	r3, [r7, #15]	@ zero_extendqisi2
 1298 0020 002B     		cmp	r3, #0
 1299 0022 04D1     		bne	.L55
 398:./uart/uart-cmd.c ****   uart_print(usartx,"MPU6050 successfully Reset ");
 1300              		.loc 1 398 3
 1301 0024 0D49     		ldr	r1, .L58+8
 1302 0026 7868     		ldr	r0, [r7, #4]
 1303 0028 FFF7FEFF 		bl	uart_print
 399:./uart/uart-cmd.c ****   else
 400:./uart/uart-cmd.c ****   {
 401:./uart/uart-cmd.c **** 	uart_print(usartx,"Error:0x");
 402:./uart/uart-cmd.c **** 	uart_print_integer(usartx,error,16);
 403:./uart/uart-cmd.c ****     uart_print(usartx,"\t failed to reset MPU6050 ");
 404:./uart/uart-cmd.c ****   }
 405:./uart/uart-cmd.c ****    
 406:./uart/uart-cmd.c **** }
 1304              		.loc 1 406 1
 1305 002c 0DE0     		b	.L57
 1306              	.L55:
 401:./uart/uart-cmd.c **** 	uart_print_integer(usartx,error,16);
 1307              		.loc 1 401 2
 1308 002e 0C49     		ldr	r1, .L58+12
 1309 0030 7868     		ldr	r0, [r7, #4]
 1310 0032 FFF7FEFF 		bl	uart_print
 402:./uart/uart-cmd.c ****     uart_print(usartx,"\t failed to reset MPU6050 ");
 1311              		.loc 1 402 2
 1312 0036 FB7B     		ldrb	r3, [r7, #15]	@ zero_extendqisi2
 1313 0038 1022     		movs	r2, #16
 1314 003a 1946     		mov	r1, r3
 1315 003c 7868     		ldr	r0, [r7, #4]
 1316 003e FFF7FEFF 		bl	uart_print_integer
 403:./uart/uart-cmd.c ****   }
 1317              		.loc 1 403 5
 1318 0042 0849     		ldr	r1, .L58+16
 1319 0044 7868     		ldr	r0, [r7, #4]
 1320 0046 FFF7FEFF 		bl	uart_print
 1321              	.L57:
 1322              		.loc 1 406 1
 1323 004a 00BF     		nop
 1324 004c 1037     		adds	r7, r7, #16
 1325              	.LCFI52:
ARM GAS  C:\Users\SAMEER~1.ALM\AppData\Local\Temp\ccXJ6CLf.s 			page 33


 1326              		.cfi_def_cfa_offset 8
 1327 004e BD46     		mov	sp, r7
 1328              	.LCFI53:
 1329              		.cfi_def_cfa_register 13
 1330              		@ sp needed
 1331 0050 80BD     		pop	{r7, pc}
 1332              	.L59:
 1333 0052 00BF     		.align	2
 1334              	.L58:
 1335 0054 C0010000 		.word	.LC30
 1336 0058 00000000 		.word	myMPU6050
 1337 005c D8010000 		.word	.LC31
 1338 0060 F4010000 		.word	.LC32
 1339 0064 00020000 		.word	.LC33
 1340              		.cfi_endproc
 1341              	.LFE42:
 1343              		.section	.text.uart_info_cmd_handle,"ax",%progbits
 1344              		.align	1
 1345              		.global	uart_info_cmd_handle
 1346              		.syntax unified
 1347              		.thumb
 1348              		.thumb_func
 1350              	uart_info_cmd_handle:
 1351              	.LFB43:
 407:./uart/uart-cmd.c **** //-----------------------------------------------------------------------------
 408:./uart/uart-cmd.c **** /**
 409:./uart/uart-cmd.c ****  * @brief info command: returns specific info about the mpu6050
 410:./uart/uart-cmd.c ****  * @details 
 411:./uart/uart-cmd.c ****  * @return  
 412:./uart/uart-cmd.c ****  */
 413:./uart/uart-cmd.c **** void  uart_info_cmd_handle(USART_TypeDef * usartx)
 414:./uart/uart-cmd.c **** {
 1352              		.loc 1 414 1
 1353              		.cfi_startproc
 1354              		@ args = 0, pretend = 0, frame = 8
 1355              		@ frame_needed = 1, uses_anonymous_args = 0
 1356              		@ link register save eliminated.
 1357 0000 80B4     		push	{r7}
 1358              	.LCFI54:
 1359              		.cfi_def_cfa_offset 4
 1360              		.cfi_offset 7, -4
 1361 0002 83B0     		sub	sp, sp, #12
 1362              	.LCFI55:
 1363              		.cfi_def_cfa_offset 16
 1364 0004 00AF     		add	r7, sp, #0
 1365              	.LCFI56:
 1366              		.cfi_def_cfa_register 7
 1367 0006 7860     		str	r0, [r7, #4]
 415:./uart/uart-cmd.c **** //! init command: initialize MPU6050 Module
 416:./uart/uart-cmd.c **** 
 417:./uart/uart-cmd.c **** }
 1368              		.loc 1 417 1
 1369 0008 00BF     		nop
 1370 000a 0C37     		adds	r7, r7, #12
 1371              	.LCFI57:
 1372              		.cfi_def_cfa_offset 4
 1373 000c BD46     		mov	sp, r7
ARM GAS  C:\Users\SAMEER~1.ALM\AppData\Local\Temp\ccXJ6CLf.s 			page 34


 1374              	.LCFI58:
 1375              		.cfi_def_cfa_register 13
 1376              		@ sp needed
 1377 000e 80BC     		pop	{r7}
 1378              	.LCFI59:
 1379              		.cfi_restore 7
 1380              		.cfi_def_cfa_offset 0
 1381 0010 7047     		bx	lr
 1382              		.cfi_endproc
 1383              	.LFE43:
 1385              		.section	.rodata
 1386 021b 00       		.align	2
 1387              	.LC34:
 1388 021c 4D505536 		.ascii	"MPU6050_WHO_AM_I  :\000"
 1388      3035305F 
 1388      57484F5F 
 1388      414D5F49 
 1388      20203A00 
 1389              		.align	2
 1390              	.LC35:
 1391 0230 09206661 		.ascii	"\011 failed to read MPU6050 \000"
 1391      696C6564 
 1391      20746F20 
 1391      72656164 
 1391      204D5055 
 1392 024a 0000     		.align	2
 1393              	.LC36:
 1394 024c 0D0A00   		.ascii	"\015\012\000"
 1395              		.section	.text.uart_who_cmd_handle,"ax",%progbits
 1396              		.align	1
 1397              		.global	uart_who_cmd_handle
 1398              		.syntax unified
 1399              		.thumb
 1400              		.thumb_func
 1402              	uart_who_cmd_handle:
 1403              	.LFB44:
 418:./uart/uart-cmd.c **** //-----------------------------------------------------------------------------
 419:./uart/uart-cmd.c **** /**
 420:./uart/uart-cmd.c ****  * @brief who command: returns WHO_IAM register content 
 421:./uart/uart-cmd.c ****  * @details the WHOIAM is (reg@0x75)::0x68 
 422:./uart/uart-cmd.c ****  * @return  
 423:./uart/uart-cmd.c ****  */
 424:./uart/uart-cmd.c **** void  uart_who_cmd_handle(USART_TypeDef * usartx)
 425:./uart/uart-cmd.c **** {
 1404              		.loc 1 425 1
 1405              		.cfi_startproc
 1406              		@ args = 0, pretend = 0, frame = 16
 1407              		@ frame_needed = 1, uses_anonymous_args = 0
 1408 0000 80B5     		push	{r7, lr}
 1409              	.LCFI60:
 1410              		.cfi_def_cfa_offset 8
 1411              		.cfi_offset 7, -8
 1412              		.cfi_offset 14, -4
 1413 0002 84B0     		sub	sp, sp, #16
 1414              	.LCFI61:
 1415              		.cfi_def_cfa_offset 24
 1416 0004 00AF     		add	r7, sp, #0
ARM GAS  C:\Users\SAMEER~1.ALM\AppData\Local\Temp\ccXJ6CLf.s 			page 35


 1417              	.LCFI62:
 1418              		.cfi_def_cfa_register 7
 1419 0006 7860     		str	r0, [r7, #4]
 426:./uart/uart-cmd.c **** //! init command: initialize MPU6050 Module
 427:./uart/uart-cmd.c **** uint8_t temp=0, error=0;
 1420              		.loc 1 427 9
 1421 0008 0023     		movs	r3, #0
 1422 000a BB73     		strb	r3, [r7, #14]
 1423              		.loc 1 427 17
 1424 000c 0023     		movs	r3, #0
 1425 000e FB73     		strb	r3, [r7, #15]
 428:./uart/uart-cmd.c **** uart_print(usartx,"MPU6050_WHO_AM_I  :");	
 1426              		.loc 1 428 1
 1427 0010 1649     		ldr	r1, .L64
 1428 0012 7868     		ldr	r0, [r7, #4]
 1429 0014 FFF7FEFF 		bl	uart_print
 429:./uart/uart-cmd.c **** error=i2c_read_7bit_base_byte_std(MPU6050_I2C, myMPU6050.Address, MPU6050_WHO_AM_I , &temp);
 1430              		.loc 1 429 7
 1431 0018 154B     		ldr	r3, .L64+4
 1432 001a 1978     		ldrb	r1, [r3]	@ zero_extendqisi2
 1433 001c 07F10E03 		add	r3, r7, #14
 1434 0020 7522     		movs	r2, #117
 1435 0022 1448     		ldr	r0, .L64+8
 1436 0024 FFF7FEFF 		bl	i2c_read_7bit_base_byte_std
 1437 0028 0346     		mov	r3, r0
 1438 002a FB73     		strb	r3, [r7, #15]
 430:./uart/uart-cmd.c **** if(error==I2C_OK)
 1439              		.loc 1 430 3
 1440 002c FB7B     		ldrb	r3, [r7, #15]	@ zero_extendqisi2
 1441 002e 002B     		cmp	r3, #0
 1442 0030 06D1     		bne	.L62
 431:./uart/uart-cmd.c ****   uart_print_integer(usartx,temp,16);
 1443              		.loc 1 431 3
 1444 0032 BB7B     		ldrb	r3, [r7, #14]	@ zero_extendqisi2
 1445 0034 1022     		movs	r2, #16
 1446 0036 1946     		mov	r1, r3
 1447 0038 7868     		ldr	r0, [r7, #4]
 1448 003a FFF7FEFF 		bl	uart_print_integer
 1449 003e 0DE0     		b	.L63
 1450              	.L62:
 432:./uart/uart-cmd.c **** else
 433:./uart/uart-cmd.c ****  {
 434:./uart/uart-cmd.c ****   uart_print(usartx,"Error:0x");
 1451              		.loc 1 434 3
 1452 0040 0D49     		ldr	r1, .L64+12
 1453 0042 7868     		ldr	r0, [r7, #4]
 1454 0044 FFF7FEFF 		bl	uart_print
 435:./uart/uart-cmd.c ****   uart_print_integer(usartx,error,16);
 1455              		.loc 1 435 3
 1456 0048 FB7B     		ldrb	r3, [r7, #15]	@ zero_extendqisi2
 1457 004a 1022     		movs	r2, #16
 1458 004c 1946     		mov	r1, r3
 1459 004e 7868     		ldr	r0, [r7, #4]
 1460 0050 FFF7FEFF 		bl	uart_print_integer
 436:./uart/uart-cmd.c ****   uart_print(usartx,"\t failed to read MPU6050 ");
 1461              		.loc 1 436 3
 1462 0054 0949     		ldr	r1, .L64+16
ARM GAS  C:\Users\SAMEER~1.ALM\AppData\Local\Temp\ccXJ6CLf.s 			page 36


 1463 0056 7868     		ldr	r0, [r7, #4]
 1464 0058 FFF7FEFF 		bl	uart_print
 1465              	.L63:
 437:./uart/uart-cmd.c ****  }
 438:./uart/uart-cmd.c ****    
 439:./uart/uart-cmd.c ****  uart_print(usartx,"\r\n");
 1466              		.loc 1 439 2
 1467 005c 0849     		ldr	r1, .L64+20
 1468 005e 7868     		ldr	r0, [r7, #4]
 1469 0060 FFF7FEFF 		bl	uart_print
 440:./uart/uart-cmd.c **** }
 1470              		.loc 1 440 1
 1471 0064 00BF     		nop
 1472 0066 1037     		adds	r7, r7, #16
 1473              	.LCFI63:
 1474              		.cfi_def_cfa_offset 8
 1475 0068 BD46     		mov	sp, r7
 1476              	.LCFI64:
 1477              		.cfi_def_cfa_register 13
 1478              		@ sp needed
 1479 006a 80BD     		pop	{r7, pc}
 1480              	.L65:
 1481              		.align	2
 1482              	.L64:
 1483 006c 1C020000 		.word	.LC34
 1484 0070 00000000 		.word	myMPU6050
 1485 0074 00540040 		.word	1073763328
 1486 0078 F4010000 		.word	.LC32
 1487 007c 30020000 		.word	.LC35
 1488 0080 4C020000 		.word	.LC36
 1489              		.cfi_endproc
 1490              	.LFE44:
 1492              		.section	.rodata
 1493 024f 00       		.align	2
 1494              	.LC37:
 1495 0250 72656164 		.ascii	"read command ....\000"
 1495      20636F6D 
 1495      6D616E64 
 1495      202E2E2E 
 1495      2E00
 1496 0262 0000     		.align	2
 1497              	.LC38:
 1498 0264 72656164 		.ascii	"read command parameter len:\000"
 1498      20636F6D 
 1498      6D616E64 
 1498      20706172 
 1498      616D6574 
 1499              		.align	2
 1500              	.LC39:
 1501 0280 7061726D 		.ascii	"parm:\000"
 1501      3A00
 1502 0286 0000     		.align	2
 1503              	.LC40:
 1504 0288 64617461 		.ascii	"data:\000"
 1504      3A00
 1505 028e 0000     		.align	2
 1506              	.LC41:
ARM GAS  C:\Users\SAMEER~1.ALM\AppData\Local\Temp\ccXJ6CLf.s 			page 37


 1507 0290 4661696C 		.ascii	"Failed to execute the read Command ...\000"
 1507      65642074 
 1507      6F206578 
 1507      65637574 
 1507      65207468 
 1508 02b7 00       		.align	2
 1509              	.LC42:
 1510 02b8 4552523A 		.ascii	"ERR::0x\000"
 1510      3A307800 
 1511              		.section	.text.uart_read_cmd_handle,"ax",%progbits
 1512              		.align	1
 1513              		.global	uart_read_cmd_handle
 1514              		.syntax unified
 1515              		.thumb
 1516              		.thumb_func
 1518              	uart_read_cmd_handle:
 1519              	.LFB45:
 441:./uart/uart-cmd.c **** //-----------------------------------------------------------------------------
 442:./uart/uart-cmd.c **** /**
 443:./uart/uart-cmd.c ****  * @brief 	read command that could be a specific register or sensor of MPU6050
 444:./uart/uart-cmd.c ****  * @details read command allow to specify different types of read operation 
 445:./uart/uart-cmd.c ****  * 			such as read register, 
 446:./uart/uart-cmd.c ****  * 					read accelometer, 
 447:./uart/uart-cmd.c ****  * 					read gyroscope, 
 448:./uart/uart-cmd.c ****  * 					read temperature
 449:./uart/uart-cmd.c ****  * 					read all 
 450:./uart/uart-cmd.c ****  * @return  void
 451:./uart/uart-cmd.c ****  */
 452:./uart/uart-cmd.c **** void  uart_read_cmd_handle(USART_TypeDef * usartx,uint8_t * data, size_t data_len)
 453:./uart/uart-cmd.c **** {
 1520              		.loc 1 453 1
 1521              		.cfi_startproc
 1522              		@ args = 0, pretend = 0, frame = 120
 1523              		@ frame_needed = 1, uses_anonymous_args = 0
 1524 0000 80B5     		push	{r7, lr}
 1525              	.LCFI65:
 1526              		.cfi_def_cfa_offset 8
 1527              		.cfi_offset 7, -8
 1528              		.cfi_offset 14, -4
 1529 0002 A0B0     		sub	sp, sp, #128
 1530              	.LCFI66:
 1531              		.cfi_def_cfa_offset 136
 1532 0004 02AF     		add	r7, sp, #8
 1533              	.LCFI67:
 1534              		.cfi_def_cfa 7, 128
 1535 0006 F860     		str	r0, [r7, #12]
 1536 0008 B960     		str	r1, [r7, #8]
 1537 000a 7A60     		str	r2, [r7, #4]
 454:./uart/uart-cmd.c ****   int len=0;
 1538              		.loc 1 454 7
 1539 000c 0023     		movs	r3, #0
 1540 000e 3B67     		str	r3, [r7, #112]
 455:./uart/uart-cmd.c ****   uint8_t list_len=0,i=0;
 1541              		.loc 1 455 11
 1542 0010 0023     		movs	r3, #0
 1543 0012 87F86F30 		strb	r3, [r7, #111]
 1544              		.loc 1 455 22
ARM GAS  C:\Users\SAMEER~1.ALM\AppData\Local\Temp\ccXJ6CLf.s 			page 38


 1545 0016 0023     		movs	r3, #0
 1546 0018 87F87730 		strb	r3, [r7, #119]
 456:./uart/uart-cmd.c ****   uint8_t error=0;
 1547              		.loc 1 456 11
 1548 001c 0023     		movs	r3, #0
 1549 001e 87F86E30 		strb	r3, [r7, #110]
 457:./uart/uart-cmd.c ****   cmd_t command;
 458:./uart/uart-cmd.c ****   param_t p={0};
 1550              		.loc 1 458 11
 1551 0022 07F12003 		add	r3, r7, #32
 1552 0026 0022     		movs	r2, #0
 1553 0028 1A60     		str	r2, [r3]
 1554 002a 5A60     		str	r2, [r3, #4]
 1555 002c 9A60     		str	r2, [r3, #8]
 1556 002e DA60     		str	r2, [r3, #12]
 459:./uart/uart-cmd.c ****   command.cmd=0;
 1557              		.loc 1 459 14
 1558 0030 0023     		movs	r3, #0
 1559 0032 87F83030 		strb	r3, [r7, #48]
 460:./uart/uart-cmd.c ****   char buf[16]="";
 1560              		.loc 1 460 8
 1561 0036 0023     		movs	r3, #0
 1562 0038 3B61     		str	r3, [r7, #16]
 1563 003a 07F11403 		add	r3, r7, #20
 1564 003e 0022     		movs	r2, #0
 1565 0040 1A60     		str	r2, [r3]
 1566 0042 5A60     		str	r2, [r3, #4]
 1567 0044 9A60     		str	r2, [r3, #8]
 461:./uart/uart-cmd.c ****   uart_println(usartx,"read command ....");
 1568              		.loc 1 461 3
 1569 0046 4F49     		ldr	r1, .L74
 1570 0048 F868     		ldr	r0, [r7, #12]
 1571 004a FFF7FEFF 		bl	uart_println
 462:./uart/uart-cmd.c ****   list_len= cmd_split(data,data_len,'-',(cmd_t*)&command);
 1572              		.loc 1 462 13
 1573 004e 07F13003 		add	r3, r7, #48
 1574 0052 2D22     		movs	r2, #45
 1575 0054 7968     		ldr	r1, [r7, #4]
 1576 0056 B868     		ldr	r0, [r7, #8]
 1577 0058 FFF7FEFF 		bl	cmd_split
 1578 005c 0346     		mov	r3, r0
 1579              		.loc 1 462 11
 1580 005e 87F86F30 		strb	r3, [r7, #111]
 463:./uart/uart-cmd.c ****   uart_print(usartx,"read command parameter len:");
 1581              		.loc 1 463 3
 1582 0062 4949     		ldr	r1, .L74+4
 1583 0064 F868     		ldr	r0, [r7, #12]
 1584 0066 FFF7FEFF 		bl	uart_print
 464:./uart/uart-cmd.c ****   uart_print_integer(usartx,list_len,10);
 1585              		.loc 1 464 3
 1586 006a 97F86F30 		ldrb	r3, [r7, #111]	@ zero_extendqisi2
 1587 006e 0A22     		movs	r2, #10
 1588 0070 1946     		mov	r1, r3
 1589 0072 F868     		ldr	r0, [r7, #12]
 1590 0074 FFF7FEFF 		bl	uart_print_integer
 465:./uart/uart-cmd.c ****   uart_print(usartx,"\r\n");
 1591              		.loc 1 465 3
ARM GAS  C:\Users\SAMEER~1.ALM\AppData\Local\Temp\ccXJ6CLf.s 			page 39


 1592 0078 4449     		ldr	r1, .L74+8
 1593 007a F868     		ldr	r0, [r7, #12]
 1594 007c FFF7FEFF 		bl	uart_print
 466:./uart/uart-cmd.c ****   
 467:./uart/uart-cmd.c ****   if(list_len>0)
 1595              		.loc 1 467 5
 1596 0080 97F86F30 		ldrb	r3, [r7, #111]	@ zero_extendqisi2
 1597 0084 002B     		cmp	r3, #0
 1598 0086 78D0     		beq	.L73
 468:./uart/uart-cmd.c ****   {
 469:./uart/uart-cmd.c ****     for(i=0;i<command.param_len;i++)
 1599              		.loc 1 469 10
 1600 0088 0023     		movs	r3, #0
 1601 008a 87F87730 		strb	r3, [r7, #119]
 1602              		.loc 1 469 5
 1603 008e 6EE0     		b	.L68
 1604              	.L72:
 470:./uart/uart-cmd.c **** 	{
 471:./uart/uart-cmd.c **** 	  len=param_split(command.parameters[i],(param_t*)&p);
 1605              		.loc 1 471 8
 1606 0090 97F87730 		ldrb	r3, [r7, #119]	@ zero_extendqisi2
 1607 0094 07F12002 		add	r2, r7, #32
 1608 0098 DB00     		lsls	r3, r3, #3
 1609 009a 7833     		adds	r3, r3, #120
 1610 009c 3B44     		add	r3, r3, r7
 1611 009e 443B     		subs	r3, r3, #68
 1612 00a0 93E80300 		ldm	r3, {r0, r1}
 1613 00a4 FFF7FEFF 		bl	param_split
 1614 00a8 3867     		str	r0, [r7, #112]
 472:./uart/uart-cmd.c ****     if(p.param_len> 0)
 1615              		.loc 1 472 9
 1616 00aa 97F82430 		ldrb	r3, [r7, #36]	@ zero_extendqisi2
 1617              		.loc 1 472 7
 1618 00ae 002B     		cmp	r3, #0
 1619 00b0 19D0     		beq	.L69
 473:./uart/uart-cmd.c ****     {
 474:./uart/uart-cmd.c **** 		 memset(buf,0,16);
 1620              		.loc 1 474 4
 1621 00b2 07F11003 		add	r3, r7, #16
 1622 00b6 1022     		movs	r2, #16
 1623 00b8 0021     		movs	r1, #0
 1624 00ba 1846     		mov	r0, r3
 1625 00bc FFF7FEFF 		bl	memset
 475:./uart/uart-cmd.c ****    	 memcpy(buf,p.param,p.param_len);
 1626              		.loc 1 475 18
 1627 00c0 396A     		ldr	r1, [r7, #32]
 1628              		.loc 1 475 26
 1629 00c2 97F82430 		ldrb	r3, [r7, #36]	@ zero_extendqisi2
 1630              		.loc 1 475 6
 1631 00c6 1A46     		mov	r2, r3
 1632 00c8 07F11003 		add	r3, r7, #16
 1633 00cc 1846     		mov	r0, r3
 1634 00ce FFF7FEFF 		bl	memcpy
 476:./uart/uart-cmd.c **** 		 uart_print(usartx,"parm:");
 1635              		.loc 1 476 4
 1636 00d2 2F49     		ldr	r1, .L74+12
 1637 00d4 F868     		ldr	r0, [r7, #12]
ARM GAS  C:\Users\SAMEER~1.ALM\AppData\Local\Temp\ccXJ6CLf.s 			page 40


 1638 00d6 FFF7FEFF 		bl	uart_print
 477:./uart/uart-cmd.c **** 		 uart_println(usartx,buf);
 1639              		.loc 1 477 4
 1640 00da 07F11003 		add	r3, r7, #16
 1641 00de 1946     		mov	r1, r3
 1642 00e0 F868     		ldr	r0, [r7, #12]
 1643 00e2 FFF7FEFF 		bl	uart_println
 1644              	.L69:
 478:./uart/uart-cmd.c ****     }
 479:./uart/uart-cmd.c ****     if(p.data_len>0)
 1645              		.loc 1 479 9
 1646 00e6 97F82C30 		ldrb	r3, [r7, #44]	@ zero_extendqisi2
 1647              		.loc 1 479 7
 1648 00ea 002B     		cmp	r3, #0
 1649 00ec 19D0     		beq	.L70
 480:./uart/uart-cmd.c ****     {
 481:./uart/uart-cmd.c **** 		 memset(buf,0,16);
 1650              		.loc 1 481 4
 1651 00ee 07F11003 		add	r3, r7, #16
 1652 00f2 1022     		movs	r2, #16
 1653 00f4 0021     		movs	r1, #0
 1654 00f6 1846     		mov	r0, r3
 1655 00f8 FFF7FEFF 		bl	memset
 482:./uart/uart-cmd.c ****    	 memcpy(buf,p.data,p.data_len);
 1656              		.loc 1 482 18
 1657 00fc B96A     		ldr	r1, [r7, #40]
 1658              		.loc 1 482 25
 1659 00fe 97F82C30 		ldrb	r3, [r7, #44]	@ zero_extendqisi2
 1660              		.loc 1 482 6
 1661 0102 1A46     		mov	r2, r3
 1662 0104 07F11003 		add	r3, r7, #16
 1663 0108 1846     		mov	r0, r3
 1664 010a FFF7FEFF 		bl	memcpy
 483:./uart/uart-cmd.c **** 		 uart_print(usartx,"data:");
 1665              		.loc 1 483 4
 1666 010e 2149     		ldr	r1, .L74+16
 1667 0110 F868     		ldr	r0, [r7, #12]
 1668 0112 FFF7FEFF 		bl	uart_print
 484:./uart/uart-cmd.c **** 		 uart_println(usartx,buf);
 1669              		.loc 1 484 4
 1670 0116 07F11003 		add	r3, r7, #16
 1671 011a 1946     		mov	r1, r3
 1672 011c F868     		ldr	r0, [r7, #12]
 1673 011e FFF7FEFF 		bl	uart_println
 1674              	.L70:
 485:./uart/uart-cmd.c ****     }
 486:./uart/uart-cmd.c **** 	  if(len>0)
 1675              		.loc 1 486 6
 1676 0122 3B6F     		ldr	r3, [r7, #112]
 1677 0124 002B     		cmp	r3, #0
 1678 0126 1DDD     		ble	.L71
 487:./uart/uart-cmd.c **** 	  {
 488:./uart/uart-cmd.c **** 		 error= uart_read_cmd_param_exe(usartx,p);
 1679              		.loc 1 488 11
 1680 0128 FB6A     		ldr	r3, [r7, #44]
 1681 012a 0093     		str	r3, [sp]
 1682 012c 07F12003 		add	r3, r7, #32
ARM GAS  C:\Users\SAMEER~1.ALM\AppData\Local\Temp\ccXJ6CLf.s 			page 41


 1683 0130 0ECB     		ldm	r3, {r1, r2, r3}
 1684 0132 F868     		ldr	r0, [r7, #12]
 1685 0134 FFF7FEFF 		bl	uart_read_cmd_param_exe
 1686 0138 0346     		mov	r3, r0
 1687 013a 87F86E30 		strb	r3, [r7, #110]
 489:./uart/uart-cmd.c **** 		 if(error!=I2C_OK)
 1688              		.loc 1 489 6
 1689 013e 97F86E30 		ldrb	r3, [r7, #110]	@ zero_extendqisi2
 1690 0142 002B     		cmp	r3, #0
 1691 0144 0ED0     		beq	.L71
 490:./uart/uart-cmd.c **** 		 {
 491:./uart/uart-cmd.c **** 			uart_println(usartx,"Failed to execute the read Command ...");
 1692              		.loc 1 491 4
 1693 0146 1449     		ldr	r1, .L74+20
 1694 0148 F868     		ldr	r0, [r7, #12]
 1695 014a FFF7FEFF 		bl	uart_println
 492:./uart/uart-cmd.c **** 			uart_print(usartx,"ERR::0x");
 1696              		.loc 1 492 4
 1697 014e 1349     		ldr	r1, .L74+24
 1698 0150 F868     		ldr	r0, [r7, #12]
 1699 0152 FFF7FEFF 		bl	uart_print
 493:./uart/uart-cmd.c **** 			uart_print_integer(usartx,error,16);
 1700              		.loc 1 493 4
 1701 0156 97F86E30 		ldrb	r3, [r7, #110]	@ zero_extendqisi2
 1702 015a 1022     		movs	r2, #16
 1703 015c 1946     		mov	r1, r3
 1704 015e F868     		ldr	r0, [r7, #12]
 1705 0160 FFF7FEFF 		bl	uart_print_integer
 1706              	.L71:
 469:./uart/uart-cmd.c **** 	{
 1707              		.loc 1 469 34 discriminator 2
 1708 0164 97F87730 		ldrb	r3, [r7, #119]	@ zero_extendqisi2
 1709 0168 0133     		adds	r3, r3, #1
 1710 016a 87F87730 		strb	r3, [r7, #119]
 1711              	.L68:
 469:./uart/uart-cmd.c **** 	{
 1712              		.loc 1 469 22 discriminator 1
 1713 016e 97F83130 		ldrb	r3, [r7, #49]	@ zero_extendqisi2
 469:./uart/uart-cmd.c **** 	{
 1714              		.loc 1 469 5 discriminator 1
 1715 0172 97F87720 		ldrb	r2, [r7, #119]	@ zero_extendqisi2
 1716 0176 9A42     		cmp	r2, r3
 1717 0178 8AD3     		bcc	.L72
 1718              	.L73:
 494:./uart/uart-cmd.c **** 		 }
 495:./uart/uart-cmd.c **** 	  }
 496:./uart/uart-cmd.c **** 	}
 497:./uart/uart-cmd.c ****   }
 498:./uart/uart-cmd.c **** }
 1719              		.loc 1 498 1
 1720 017a 00BF     		nop
 1721 017c 7837     		adds	r7, r7, #120
 1722              	.LCFI68:
 1723              		.cfi_def_cfa_offset 8
 1724 017e BD46     		mov	sp, r7
 1725              	.LCFI69:
 1726              		.cfi_def_cfa_register 13
ARM GAS  C:\Users\SAMEER~1.ALM\AppData\Local\Temp\ccXJ6CLf.s 			page 42


 1727              		@ sp needed
 1728 0180 80BD     		pop	{r7, pc}
 1729              	.L75:
 1730 0182 00BF     		.align	2
 1731              	.L74:
 1732 0184 50020000 		.word	.LC37
 1733 0188 64020000 		.word	.LC38
 1734 018c 4C020000 		.word	.LC36
 1735 0190 80020000 		.word	.LC39
 1736 0194 88020000 		.word	.LC40
 1737 0198 90020000 		.word	.LC41
 1738 019c B8020000 		.word	.LC42
 1739              		.cfi_endproc
 1740              	.LFE45:
 1742              		.section	.rodata
 1743              		.align	2
 1744              	.LC43:
 1745 02c0 4661696C 		.ascii	"Failed to execute the write Command ...\000"
 1745      65642074 
 1745      6F206578 
 1745      65637574 
 1745      65207468 
 1746              		.section	.text.uart_write_cmd_handle,"ax",%progbits
 1747              		.align	1
 1748              		.global	uart_write_cmd_handle
 1749              		.syntax unified
 1750              		.thumb
 1751              		.thumb_func
 1753              	uart_write_cmd_handle:
 1754              	.LFB46:
 499:./uart/uart-cmd.c **** //-----------------------------------------------------------------------------
 500:./uart/uart-cmd.c **** /**
 501:./uart/uart-cmd.c ****  * @brief 	write command that could be a specific register of MPU6050
 502:./uart/uart-cmd.c ****  * @details write command allow to write to specific register 
 503:./uart/uart-cmd.c ****  * @return  void
 504:./uart/uart-cmd.c ****  */
 505:./uart/uart-cmd.c **** void  uart_write_cmd_handle(USART_TypeDef * usartx,uint8_t * data, size_t data_len)
 506:./uart/uart-cmd.c **** {
 1755              		.loc 1 506 1
 1756              		.cfi_startproc
 1757              		@ args = 0, pretend = 0, frame = 120
 1758              		@ frame_needed = 1, uses_anonymous_args = 0
 1759 0000 80B5     		push	{r7, lr}
 1760              	.LCFI70:
 1761              		.cfi_def_cfa_offset 8
 1762              		.cfi_offset 7, -8
 1763              		.cfi_offset 14, -4
 1764 0002 A2B0     		sub	sp, sp, #136
 1765              	.LCFI71:
 1766              		.cfi_def_cfa_offset 144
 1767 0004 04AF     		add	r7, sp, #16
 1768              	.LCFI72:
 1769              		.cfi_def_cfa 7, 128
 1770 0006 F860     		str	r0, [r7, #12]
 1771 0008 B960     		str	r1, [r7, #8]
 1772 000a 7A60     		str	r2, [r7, #4]
 507:./uart/uart-cmd.c **** //! write register command: write to aspecific register in MPU6050 Module
ARM GAS  C:\Users\SAMEER~1.ALM\AppData\Local\Temp\ccXJ6CLf.s 			page 43


 508:./uart/uart-cmd.c ****   int len=0;
 1773              		.loc 1 508 7
 1774 000c 0023     		movs	r3, #0
 1775 000e 3B67     		str	r3, [r7, #112]
 509:./uart/uart-cmd.c ****   uint8_t list_len=0,i=0;
 1776              		.loc 1 509 11
 1777 0010 0023     		movs	r3, #0
 1778 0012 87F86F30 		strb	r3, [r7, #111]
 1779              		.loc 1 509 22
 1780 0016 0023     		movs	r3, #0
 1781 0018 87F87730 		strb	r3, [r7, #119]
 510:./uart/uart-cmd.c ****   uint8_t error=0;
 1782              		.loc 1 510 11
 1783 001c 0023     		movs	r3, #0
 1784 001e 87F86E30 		strb	r3, [r7, #110]
 511:./uart/uart-cmd.c ****   uint8_t reg_address=0, reg_val=0;
 1785              		.loc 1 511 11
 1786 0022 0023     		movs	r3, #0
 1787 0024 87F86D30 		strb	r3, [r7, #109]
 1788              		.loc 1 511 26
 1789 0028 0023     		movs	r3, #0
 1790 002a 87F86C30 		strb	r3, [r7, #108]
 512:./uart/uart-cmd.c ****   cmd_t command;
 513:./uart/uart-cmd.c ****   param_t p={0};
 1791              		.loc 1 513 11
 1792 002e 07F12003 		add	r3, r7, #32
 1793 0032 0022     		movs	r2, #0
 1794 0034 1A60     		str	r2, [r3]
 1795 0036 5A60     		str	r2, [r3, #4]
 1796 0038 9A60     		str	r2, [r3, #8]
 1797 003a DA60     		str	r2, [r3, #12]
 514:./uart/uart-cmd.c ****   command.cmd=0;
 1798              		.loc 1 514 14
 1799 003c 0023     		movs	r3, #0
 1800 003e 87F83030 		strb	r3, [r7, #48]
 515:./uart/uart-cmd.c ****   char buf[16]="";
 1801              		.loc 1 515 8
 1802 0042 0023     		movs	r3, #0
 1803 0044 3B61     		str	r3, [r7, #16]
 1804 0046 07F11403 		add	r3, r7, #20
 1805 004a 0022     		movs	r2, #0
 1806 004c 1A60     		str	r2, [r3]
 1807 004e 5A60     		str	r2, [r3, #4]
 1808 0050 9A60     		str	r2, [r3, #8]
 516:./uart/uart-cmd.c **** 
 517:./uart/uart-cmd.c ****   list_len= cmd_split(data,data_len,'-',(cmd_t*)&command);
 1809              		.loc 1 517 13
 1810 0052 07F13003 		add	r3, r7, #48
 1811 0056 2D22     		movs	r2, #45
 1812 0058 7968     		ldr	r1, [r7, #4]
 1813 005a B868     		ldr	r0, [r7, #8]
 1814 005c FFF7FEFF 		bl	cmd_split
 1815 0060 0346     		mov	r3, r0
 1816              		.loc 1 517 11
 1817 0062 87F86F30 		strb	r3, [r7, #111]
 518:./uart/uart-cmd.c ****   if(list_len>0)
 1818              		.loc 1 518 5
ARM GAS  C:\Users\SAMEER~1.ALM\AppData\Local\Temp\ccXJ6CLf.s 			page 44


 1819 0066 97F86F30 		ldrb	r3, [r7, #111]	@ zero_extendqisi2
 1820 006a 002B     		cmp	r3, #0
 1821 006c 00F08F80 		beq	.L83
 519:./uart/uart-cmd.c ****   {
 520:./uart/uart-cmd.c ****    for(i=0;i<command.param_len;i++)
 1822              		.loc 1 520 9
 1823 0070 0023     		movs	r3, #0
 1824 0072 87F87730 		strb	r3, [r7, #119]
 1825              		.loc 1 520 4
 1826 0076 5EE0     		b	.L78
 1827              	.L82:
 521:./uart/uart-cmd.c **** 	 {
 522:./uart/uart-cmd.c **** 	   len=param_split(command.parameters[i],(param_t*)&p);
 1828              		.loc 1 522 9
 1829 0078 97F87730 		ldrb	r3, [r7, #119]	@ zero_extendqisi2
 1830 007c 07F12002 		add	r2, r7, #32
 1831 0080 DB00     		lsls	r3, r3, #3
 1832 0082 7833     		adds	r3, r3, #120
 1833 0084 3B44     		add	r3, r3, r7
 1834 0086 443B     		subs	r3, r3, #68
 1835 0088 93E80300 		ldm	r3, {r0, r1}
 1836 008c FFF7FEFF 		bl	param_split
 1837 0090 3867     		str	r0, [r7, #112]
 523:./uart/uart-cmd.c ****        if(p.param_len> 0)
 1838              		.loc 1 523 12
 1839 0092 97F82430 		ldrb	r3, [r7, #36]	@ zero_extendqisi2
 1840              		.loc 1 523 10
 1841 0096 002B     		cmp	r3, #0
 1842 0098 19D0     		beq	.L79
 524:./uart/uart-cmd.c ****        {
 525:./uart/uart-cmd.c **** 		    memset(buf,0,16);
 1843              		.loc 1 525 7
 1844 009a 07F11003 		add	r3, r7, #16
 1845 009e 1022     		movs	r2, #16
 1846 00a0 0021     		movs	r1, #0
 1847 00a2 1846     		mov	r0, r3
 1848 00a4 FFF7FEFF 		bl	memset
 526:./uart/uart-cmd.c ****    	    memcpy(buf,p.param,p.param_len);
 1849              		.loc 1 526 21
 1850 00a8 396A     		ldr	r1, [r7, #32]
 1851              		.loc 1 526 29
 1852 00aa 97F82430 		ldrb	r3, [r7, #36]	@ zero_extendqisi2
 1853              		.loc 1 526 9
 1854 00ae 1A46     		mov	r2, r3
 1855 00b0 07F11003 		add	r3, r7, #16
 1856 00b4 1846     		mov	r0, r3
 1857 00b6 FFF7FEFF 		bl	memcpy
 527:./uart/uart-cmd.c **** 		    uart_print(usartx,"parm:");
 1858              		.loc 1 527 7
 1859 00ba 3749     		ldr	r1, .L84
 1860 00bc F868     		ldr	r0, [r7, #12]
 1861 00be FFF7FEFF 		bl	uart_print
 528:./uart/uart-cmd.c **** 		    uart_println(usartx,buf);
 1862              		.loc 1 528 7
 1863 00c2 07F11003 		add	r3, r7, #16
 1864 00c6 1946     		mov	r1, r3
 1865 00c8 F868     		ldr	r0, [r7, #12]
ARM GAS  C:\Users\SAMEER~1.ALM\AppData\Local\Temp\ccXJ6CLf.s 			page 45


 1866 00ca FFF7FEFF 		bl	uart_println
 1867              	.L79:
 529:./uart/uart-cmd.c ****        }
 530:./uart/uart-cmd.c ****        if(p.data_len>0)
 1868              		.loc 1 530 12
 1869 00ce 97F82C30 		ldrb	r3, [r7, #44]	@ zero_extendqisi2
 1870              		.loc 1 530 10
 1871 00d2 002B     		cmp	r3, #0
 1872 00d4 19D0     		beq	.L80
 531:./uart/uart-cmd.c ****        {
 532:./uart/uart-cmd.c **** 		    memset(buf,0,16);
 1873              		.loc 1 532 7
 1874 00d6 07F11003 		add	r3, r7, #16
 1875 00da 1022     		movs	r2, #16
 1876 00dc 0021     		movs	r1, #0
 1877 00de 1846     		mov	r0, r3
 1878 00e0 FFF7FEFF 		bl	memset
 533:./uart/uart-cmd.c ****    		  memcpy(buf,p.data,p.data_len);
 1879              		.loc 1 533 20
 1880 00e4 B96A     		ldr	r1, [r7, #40]
 1881              		.loc 1 533 27
 1882 00e6 97F82C30 		ldrb	r3, [r7, #44]	@ zero_extendqisi2
 1883              		.loc 1 533 8
 1884 00ea 1A46     		mov	r2, r3
 1885 00ec 07F11003 		add	r3, r7, #16
 1886 00f0 1846     		mov	r0, r3
 1887 00f2 FFF7FEFF 		bl	memcpy
 534:./uart/uart-cmd.c **** 		    uart_print(usartx,"data:");
 1888              		.loc 1 534 7
 1889 00f6 2949     		ldr	r1, .L84+4
 1890 00f8 F868     		ldr	r0, [r7, #12]
 1891 00fa FFF7FEFF 		bl	uart_print
 535:./uart/uart-cmd.c **** 		    uart_println(usartx,buf);
 1892              		.loc 1 535 7
 1893 00fe 07F11003 		add	r3, r7, #16
 1894 0102 1946     		mov	r1, r3
 1895 0104 F868     		ldr	r0, [r7, #12]
 1896 0106 FFF7FEFF 		bl	uart_println
 1897              	.L80:
 536:./uart/uart-cmd.c ****        }
 537:./uart/uart-cmd.c **** 	   if(len>0)
 1898              		.loc 1 537 7
 1899 010a 3B6F     		ldr	r3, [r7, #112]
 1900 010c 002B     		cmp	r3, #0
 1901 010e 0DDD     		ble	.L81
 538:./uart/uart-cmd.c ****      {
 539:./uart/uart-cmd.c **** 
 540:./uart/uart-cmd.c **** 		    uart_write_cmd_param_exe(usartx,p,(uint8_t*)&reg_address,(uint8_t*)&reg_val);
 1902              		.loc 1 540 7
 1903 0110 07F16C03 		add	r3, r7, #108
 1904 0114 0293     		str	r3, [sp, #8]
 1905 0116 07F16D03 		add	r3, r7, #109
 1906 011a 0193     		str	r3, [sp, #4]
 1907 011c FB6A     		ldr	r3, [r7, #44]
 1908 011e 0093     		str	r3, [sp]
 1909 0120 07F12003 		add	r3, r7, #32
 1910 0124 0ECB     		ldm	r3, {r1, r2, r3}
ARM GAS  C:\Users\SAMEER~1.ALM\AppData\Local\Temp\ccXJ6CLf.s 			page 46


 1911 0126 F868     		ldr	r0, [r7, #12]
 1912 0128 FFF7FEFF 		bl	uart_write_cmd_param_exe
 1913              	.L81:
 520:./uart/uart-cmd.c **** 	 {
 1914              		.loc 1 520 33 discriminator 2
 1915 012c 97F87730 		ldrb	r3, [r7, #119]	@ zero_extendqisi2
 1916 0130 0133     		adds	r3, r3, #1
 1917 0132 87F87730 		strb	r3, [r7, #119]
 1918              	.L78:
 520:./uart/uart-cmd.c **** 	 {
 1919              		.loc 1 520 21 discriminator 1
 1920 0136 97F83130 		ldrb	r3, [r7, #49]	@ zero_extendqisi2
 520:./uart/uart-cmd.c **** 	 {
 1921              		.loc 1 520 4 discriminator 1
 1922 013a 97F87720 		ldrb	r2, [r7, #119]	@ zero_extendqisi2
 1923 013e 9A42     		cmp	r2, r3
 1924 0140 9AD3     		bcc	.L82
 541:./uart/uart-cmd.c **** 	   }
 542:./uart/uart-cmd.c **** 	 }
 543:./uart/uart-cmd.c **** 	 if(reg_address>=0x0d && reg_address<=0x75)
 1925              		.loc 1 543 17
 1926 0142 97F86D30 		ldrb	r3, [r7, #109]	@ zero_extendqisi2
 1927              		.loc 1 543 5
 1928 0146 0C2B     		cmp	r3, #12
 1929 0148 21D9     		bls	.L83
 1930              		.loc 1 543 38 discriminator 1
 1931 014a 97F86D30 		ldrb	r3, [r7, #109]	@ zero_extendqisi2
 1932              		.loc 1 543 24 discriminator 1
 1933 014e 752B     		cmp	r3, #117
 1934 0150 1DD8     		bhi	.L83
 544:./uart/uart-cmd.c **** 	 {
 545:./uart/uart-cmd.c **** 	   error=uart_write_reg_exe(usartx,(MPU6050_t*)&myMPU6050,reg_address,reg_val);
 1935              		.loc 1 545 11
 1936 0152 97F86D20 		ldrb	r2, [r7, #109]	@ zero_extendqisi2
 1937 0156 97F86C30 		ldrb	r3, [r7, #108]	@ zero_extendqisi2
 1938 015a 1149     		ldr	r1, .L84+8
 1939 015c F868     		ldr	r0, [r7, #12]
 1940 015e FFF7FEFF 		bl	uart_write_reg_exe
 1941 0162 0346     		mov	r3, r0
 1942 0164 87F86E30 		strb	r3, [r7, #110]
 546:./uart/uart-cmd.c **** 	   if(error!=I2C_OK)
 1943              		.loc 1 546 7
 1944 0168 97F86E30 		ldrb	r3, [r7, #110]	@ zero_extendqisi2
 1945 016c 002B     		cmp	r3, #0
 1946 016e 0ED0     		beq	.L83
 547:./uart/uart-cmd.c **** 	   {
 548:./uart/uart-cmd.c **** 			uart_println(usartx,"Failed to execute the write Command ...");
 1947              		.loc 1 548 4
 1948 0170 0C49     		ldr	r1, .L84+12
 1949 0172 F868     		ldr	r0, [r7, #12]
 1950 0174 FFF7FEFF 		bl	uart_println
 549:./uart/uart-cmd.c **** 			uart_print(usartx,"ERR::0x");
 1951              		.loc 1 549 4
 1952 0178 0B49     		ldr	r1, .L84+16
 1953 017a F868     		ldr	r0, [r7, #12]
 1954 017c FFF7FEFF 		bl	uart_print
 550:./uart/uart-cmd.c **** 			uart_print_integer(usartx,error,16);
ARM GAS  C:\Users\SAMEER~1.ALM\AppData\Local\Temp\ccXJ6CLf.s 			page 47


 1955              		.loc 1 550 4
 1956 0180 97F86E30 		ldrb	r3, [r7, #110]	@ zero_extendqisi2
 1957 0184 1022     		movs	r2, #16
 1958 0186 1946     		mov	r1, r3
 1959 0188 F868     		ldr	r0, [r7, #12]
 1960 018a FFF7FEFF 		bl	uart_print_integer
 1961              	.L83:
 551:./uart/uart-cmd.c **** 	   }
 552:./uart/uart-cmd.c ****   	}
 553:./uart/uart-cmd.c ****   }
 554:./uart/uart-cmd.c **** }
 1962              		.loc 1 554 1
 1963 018e 00BF     		nop
 1964 0190 7837     		adds	r7, r7, #120
 1965              	.LCFI73:
 1966              		.cfi_def_cfa_offset 8
 1967 0192 BD46     		mov	sp, r7
 1968              	.LCFI74:
 1969              		.cfi_def_cfa_register 13
 1970              		@ sp needed
 1971 0194 80BD     		pop	{r7, pc}
 1972              	.L85:
 1973 0196 00BF     		.align	2
 1974              	.L84:
 1975 0198 80020000 		.word	.LC39
 1976 019c 88020000 		.word	.LC40
 1977 01a0 00000000 		.word	myMPU6050
 1978 01a4 C0020000 		.word	.LC43
 1979 01a8 B8020000 		.word	.LC42
 1980              		.cfi_endproc
 1981              	.LFE46:
 1983              		.section	.rodata
 1984              		.align	2
 1985              	.LC44:
 1986 02e8 53616D70 		.ascii	"Sample data rate is set to 0x\000"
 1986      6C652064 
 1986      61746120 
 1986      72617465 
 1986      20697320 
 1987              		.section	.text.uart_smpl_cmd_handle,"ax",%progbits
 1988              		.align	1
 1989              		.global	uart_smpl_cmd_handle
 1990              		.syntax unified
 1991              		.thumb
 1992              		.thumb_func
 1994              	uart_smpl_cmd_handle:
 1995              	.LFB47:
 555:./uart/uart-cmd.c **** //-----------------------------------------------------------------------------
 556:./uart/uart-cmd.c **** /**
 557:./uart/uart-cmd.c ****  * @brief
 558:./uart/uart-cmd.c ****  * @details 
 559:./uart/uart-cmd.c ****  * @return  
 560:./uart/uart-cmd.c ****  */
 561:./uart/uart-cmd.c **** uint8_t uart_smpl_cmd_handle(USART_TypeDef * usartx,uint8_t * data, size_t data_len)
 562:./uart/uart-cmd.c **** {
 1996              		.loc 1 562 1
 1997              		.cfi_startproc
ARM GAS  C:\Users\SAMEER~1.ALM\AppData\Local\Temp\ccXJ6CLf.s 			page 48


 1998              		@ args = 0, pretend = 0, frame = 40
 1999              		@ frame_needed = 1, uses_anonymous_args = 0
 2000 0000 80B5     		push	{r7, lr}
 2001              	.LCFI75:
 2002              		.cfi_def_cfa_offset 8
 2003              		.cfi_offset 7, -8
 2004              		.cfi_offset 14, -4
 2005 0002 8AB0     		sub	sp, sp, #40
 2006              	.LCFI76:
 2007              		.cfi_def_cfa_offset 48
 2008 0004 00AF     		add	r7, sp, #0
 2009              	.LCFI77:
 2010              		.cfi_def_cfa_register 7
 2011 0006 F860     		str	r0, [r7, #12]
 2012 0008 B960     		str	r1, [r7, #8]
 2013 000a 7A60     		str	r2, [r7, #4]
 563:./uart/uart-cmd.c ****  uint8_t sample_rate=0;  
 2014              		.loc 1 563 10
 2015 000c 0023     		movs	r3, #0
 2016 000e 87F82730 		strb	r3, [r7, #39]
 564:./uart/uart-cmd.c ****   char  buf[16]="";
 2017              		.loc 1 564 9
 2018 0012 0023     		movs	r3, #0
 2019 0014 7B61     		str	r3, [r7, #20]
 2020 0016 07F11803 		add	r3, r7, #24
 2021 001a 0022     		movs	r2, #0
 2022 001c 1A60     		str	r2, [r3]
 2023 001e 5A60     		str	r2, [r3, #4]
 2024 0020 9A60     		str	r2, [r3, #8]
 565:./uart/uart-cmd.c ****   sample_rate=atol((const char *)data);  
 2025              		.loc 1 565 15
 2026 0022 B868     		ldr	r0, [r7, #8]
 2027 0024 FFF7FEFF 		bl	atol
 2028 0028 0346     		mov	r3, r0
 2029              		.loc 1 565 14
 2030 002a 87F82730 		strb	r3, [r7, #39]
 566:./uart/uart-cmd.c **** 
 567:./uart/uart-cmd.c ****  uint8_t error=0;
 2031              		.loc 1 567 10
 2032 002e 0023     		movs	r3, #0
 2033 0030 87F82630 		strb	r3, [r7, #38]
 568:./uart/uart-cmd.c ****  error=mpu6050_setDataRate((MPU6050_t*)&myMPU6050,sample_rate);
 2034              		.loc 1 568 8
 2035 0034 97F82730 		ldrb	r3, [r7, #39]	@ zero_extendqisi2
 2036 0038 1946     		mov	r1, r3
 2037 003a 0D48     		ldr	r0, .L89
 2038 003c FFF7FEFF 		bl	mpu6050_setDataRate
 2039 0040 0346     		mov	r3, r0
 2040 0042 87F82630 		strb	r3, [r7, #38]
 569:./uart/uart-cmd.c ****  if(error==I2C_OK) 
 2041              		.loc 1 569 4
 2042 0046 97F82630 		ldrb	r3, [r7, #38]	@ zero_extendqisi2
 2043 004a 002B     		cmp	r3, #0
 2044 004c 0AD1     		bne	.L87
 570:./uart/uart-cmd.c ****   {
 571:./uart/uart-cmd.c **** 	uart_print(usartx,"Sample data rate is set to 0x");
 2045              		.loc 1 571 2
ARM GAS  C:\Users\SAMEER~1.ALM\AppData\Local\Temp\ccXJ6CLf.s 			page 49


 2046 004e 0949     		ldr	r1, .L89+4
 2047 0050 F868     		ldr	r0, [r7, #12]
 2048 0052 FFF7FEFF 		bl	uart_print
 572:./uart/uart-cmd.c **** 	uart_print_integer(usartx,sample_rate,16);	
 2049              		.loc 1 572 2
 2050 0056 97F82730 		ldrb	r3, [r7, #39]	@ zero_extendqisi2
 2051 005a 1022     		movs	r2, #16
 2052 005c 1946     		mov	r1, r3
 2053 005e F868     		ldr	r0, [r7, #12]
 2054 0060 FFF7FEFF 		bl	uart_print_integer
 2055              	.L87:
 573:./uart/uart-cmd.c ****   }
 574:./uart/uart-cmd.c ****   return error;
 2056              		.loc 1 574 10
 2057 0064 97F82630 		ldrb	r3, [r7, #38]	@ zero_extendqisi2
 575:./uart/uart-cmd.c **** }
 2058              		.loc 1 575 1
 2059 0068 1846     		mov	r0, r3
 2060 006a 2837     		adds	r7, r7, #40
 2061              	.LCFI78:
 2062              		.cfi_def_cfa_offset 8
 2063 006c BD46     		mov	sp, r7
 2064              	.LCFI79:
 2065              		.cfi_def_cfa_register 13
 2066              		@ sp needed
 2067 006e 80BD     		pop	{r7, pc}
 2068              	.L90:
 2069              		.align	2
 2070              	.L89:
 2071 0070 00000000 		.word	myMPU6050
 2072 0074 E8020000 		.word	.LC44
 2073              		.cfi_endproc
 2074              	.LFE47:
 2076              		.section	.text.uart_rng_cmd_handle,"ax",%progbits
 2077              		.align	1
 2078              		.global	uart_rng_cmd_handle
 2079              		.syntax unified
 2080              		.thumb
 2081              		.thumb_func
 2083              	uart_rng_cmd_handle:
 2084              	.LFB48:
 576:./uart/uart-cmd.c **** //-----------------------------------------------------------------------------
 577:./uart/uart-cmd.c **** /**
 578:./uart/uart-cmd.c ****  * @brief
 579:./uart/uart-cmd.c ****  * @details 
 580:./uart/uart-cmd.c ****  * @return  
 581:./uart/uart-cmd.c ****  */
 582:./uart/uart-cmd.c **** void  uart_rng_cmd_handle(USART_TypeDef * usartx,uint8_t * data, size_t data_len)
 583:./uart/uart-cmd.c **** {
 2085              		.loc 1 583 1
 2086              		.cfi_startproc
 2087              		@ args = 0, pretend = 0, frame = 16
 2088              		@ frame_needed = 1, uses_anonymous_args = 0
 2089              		@ link register save eliminated.
 2090 0000 80B4     		push	{r7}
 2091              	.LCFI80:
 2092              		.cfi_def_cfa_offset 4
ARM GAS  C:\Users\SAMEER~1.ALM\AppData\Local\Temp\ccXJ6CLf.s 			page 50


 2093              		.cfi_offset 7, -4
 2094 0002 85B0     		sub	sp, sp, #20
 2095              	.LCFI81:
 2096              		.cfi_def_cfa_offset 24
 2097 0004 00AF     		add	r7, sp, #0
 2098              	.LCFI82:
 2099              		.cfi_def_cfa_register 7
 2100 0006 F860     		str	r0, [r7, #12]
 2101 0008 B960     		str	r1, [r7, #8]
 2102 000a 7A60     		str	r2, [r7, #4]
 584:./uart/uart-cmd.c **** 
 585:./uart/uart-cmd.c **** }
 2103              		.loc 1 585 1
 2104 000c 00BF     		nop
 2105 000e 1437     		adds	r7, r7, #20
 2106              	.LCFI83:
 2107              		.cfi_def_cfa_offset 4
 2108 0010 BD46     		mov	sp, r7
 2109              	.LCFI84:
 2110              		.cfi_def_cfa_register 13
 2111              		@ sp needed
 2112 0012 80BC     		pop	{r7}
 2113              	.LCFI85:
 2114              		.cfi_restore 7
 2115              		.cfi_def_cfa_offset 0
 2116 0014 7047     		bx	lr
 2117              		.cfi_endproc
 2118              	.LFE48:
 2120              		.section	.rodata
 2121 0306 0000     		.align	2
 2122              	.LC45:
 2123 0308 6C706620 		.ascii	"lpf rate is set to 0x\000"
 2123      72617465 
 2123      20697320 
 2123      73657420 
 2123      746F2030 
 2124              		.section	.text.uart_lpf_cmd_handle,"ax",%progbits
 2125              		.align	1
 2126              		.global	uart_lpf_cmd_handle
 2127              		.syntax unified
 2128              		.thumb
 2129              		.thumb_func
 2131              	uart_lpf_cmd_handle:
 2132              	.LFB49:
 586:./uart/uart-cmd.c **** //-----------------------------------------------------------------------------
 587:./uart/uart-cmd.c **** /**
 588:./uart/uart-cmd.c ****  * @brief
 589:./uart/uart-cmd.c ****  * @details 
 590:./uart/uart-cmd.c ****  * @return  
 591:./uart/uart-cmd.c ****  */
 592:./uart/uart-cmd.c **** uint8_t  uart_lpf_cmd_handle(USART_TypeDef * usartx,uint8_t * data, size_t data_len)
 593:./uart/uart-cmd.c **** {
 2133              		.loc 1 593 1
 2134              		.cfi_startproc
 2135              		@ args = 0, pretend = 0, frame = 40
 2136              		@ frame_needed = 1, uses_anonymous_args = 0
 2137 0000 80B5     		push	{r7, lr}
ARM GAS  C:\Users\SAMEER~1.ALM\AppData\Local\Temp\ccXJ6CLf.s 			page 51


 2138              	.LCFI86:
 2139              		.cfi_def_cfa_offset 8
 2140              		.cfi_offset 7, -8
 2141              		.cfi_offset 14, -4
 2142 0002 8AB0     		sub	sp, sp, #40
 2143              	.LCFI87:
 2144              		.cfi_def_cfa_offset 48
 2145 0004 00AF     		add	r7, sp, #0
 2146              	.LCFI88:
 2147              		.cfi_def_cfa_register 7
 2148 0006 F860     		str	r0, [r7, #12]
 2149 0008 B960     		str	r1, [r7, #8]
 2150 000a 7A60     		str	r2, [r7, #4]
 594:./uart/uart-cmd.c **** //! Read temp command: read only accelometer sensor in MPU6050 Module 
 595:./uart/uart-cmd.c ****  uint8_t lpf=0;  
 2151              		.loc 1 595 10
 2152 000c 0023     		movs	r3, #0
 2153 000e 87F82730 		strb	r3, [r7, #39]
 596:./uart/uart-cmd.c ****   char  buf[16]="";
 2154              		.loc 1 596 9
 2155 0012 0023     		movs	r3, #0
 2156 0014 7B61     		str	r3, [r7, #20]
 2157 0016 07F11803 		add	r3, r7, #24
 2158 001a 0022     		movs	r2, #0
 2159 001c 1A60     		str	r2, [r3]
 2160 001e 5A60     		str	r2, [r3, #4]
 2161 0020 9A60     		str	r2, [r3, #8]
 597:./uart/uart-cmd.c ****   lpf=atol((const char *)data);  
 2162              		.loc 1 597 7
 2163 0022 B868     		ldr	r0, [r7, #8]
 2164 0024 FFF7FEFF 		bl	atol
 2165 0028 0346     		mov	r3, r0
 2166              		.loc 1 597 6
 2167 002a 87F82730 		strb	r3, [r7, #39]
 598:./uart/uart-cmd.c **** 
 599:./uart/uart-cmd.c ****  uint8_t error=0;
 2168              		.loc 1 599 10
 2169 002e 0023     		movs	r3, #0
 2170 0030 87F82630 		strb	r3, [r7, #38]
 600:./uart/uart-cmd.c ****  error=mpu6050_set_lpf((MPU6050_t*)&myMPU6050,lpf);
 2171              		.loc 1 600 8
 2172 0034 97F82730 		ldrb	r3, [r7, #39]	@ zero_extendqisi2
 2173 0038 1946     		mov	r1, r3
 2174 003a 0D48     		ldr	r0, .L95
 2175 003c FFF7FEFF 		bl	mpu6050_set_lpf
 2176 0040 0346     		mov	r3, r0
 2177 0042 87F82630 		strb	r3, [r7, #38]
 601:./uart/uart-cmd.c ****  if(error==I2C_OK) 
 2178              		.loc 1 601 4
 2179 0046 97F82630 		ldrb	r3, [r7, #38]	@ zero_extendqisi2
 2180 004a 002B     		cmp	r3, #0
 2181 004c 0AD1     		bne	.L93
 602:./uart/uart-cmd.c ****   {
 603:./uart/uart-cmd.c **** 	uart_print(usartx,"lpf rate is set to 0x");
 2182              		.loc 1 603 2
 2183 004e 0949     		ldr	r1, .L95+4
 2184 0050 F868     		ldr	r0, [r7, #12]
ARM GAS  C:\Users\SAMEER~1.ALM\AppData\Local\Temp\ccXJ6CLf.s 			page 52


 2185 0052 FFF7FEFF 		bl	uart_print
 604:./uart/uart-cmd.c **** 	uart_print_integer(usartx,lpf,16);	
 2186              		.loc 1 604 2
 2187 0056 97F82730 		ldrb	r3, [r7, #39]	@ zero_extendqisi2
 2188 005a 1022     		movs	r2, #16
 2189 005c 1946     		mov	r1, r3
 2190 005e F868     		ldr	r0, [r7, #12]
 2191 0060 FFF7FEFF 		bl	uart_print_integer
 2192              	.L93:
 605:./uart/uart-cmd.c ****   }
 606:./uart/uart-cmd.c ****   return error;
 2193              		.loc 1 606 10
 2194 0064 97F82630 		ldrb	r3, [r7, #38]	@ zero_extendqisi2
 607:./uart/uart-cmd.c **** }
 2195              		.loc 1 607 1
 2196 0068 1846     		mov	r0, r3
 2197 006a 2837     		adds	r7, r7, #40
 2198              	.LCFI89:
 2199              		.cfi_def_cfa_offset 8
 2200 006c BD46     		mov	sp, r7
 2201              	.LCFI90:
 2202              		.cfi_def_cfa_register 13
 2203              		@ sp needed
 2204 006e 80BD     		pop	{r7, pc}
 2205              	.L96:
 2206              		.align	2
 2207              	.L95:
 2208 0070 00000000 		.word	myMPU6050
 2209 0074 08030000 		.word	.LC45
 2210              		.cfi_endproc
 2211              	.LFE49:
 2213              		.section	.rodata
 2214 031e 0000     		.align	2
 2215              	.LC46:
 2216 0320 68706620 		.ascii	"hpf rate is set to 0x\000"
 2216      72617465 
 2216      20697320 
 2216      73657420 
 2216      746F2030 
 2217              		.section	.text.uart_hpf_cmd_handle,"ax",%progbits
 2218              		.align	1
 2219              		.global	uart_hpf_cmd_handle
 2220              		.syntax unified
 2221              		.thumb
 2222              		.thumb_func
 2224              	uart_hpf_cmd_handle:
 2225              	.LFB50:
 608:./uart/uart-cmd.c **** //-----------------------------------------------------------------------------
 609:./uart/uart-cmd.c **** /**
 610:./uart/uart-cmd.c ****  * @brief
 611:./uart/uart-cmd.c ****  * @details 
 612:./uart/uart-cmd.c ****  * @return  
 613:./uart/uart-cmd.c ****  */
 614:./uart/uart-cmd.c **** uint8_t  uart_hpf_cmd_handle(USART_TypeDef * usartx,uint8_t * data, size_t data_len)
 615:./uart/uart-cmd.c **** {
 2226              		.loc 1 615 1
 2227              		.cfi_startproc
ARM GAS  C:\Users\SAMEER~1.ALM\AppData\Local\Temp\ccXJ6CLf.s 			page 53


 2228              		@ args = 0, pretend = 0, frame = 40
 2229              		@ frame_needed = 1, uses_anonymous_args = 0
 2230 0000 80B5     		push	{r7, lr}
 2231              	.LCFI91:
 2232              		.cfi_def_cfa_offset 8
 2233              		.cfi_offset 7, -8
 2234              		.cfi_offset 14, -4
 2235 0002 8AB0     		sub	sp, sp, #40
 2236              	.LCFI92:
 2237              		.cfi_def_cfa_offset 48
 2238 0004 00AF     		add	r7, sp, #0
 2239              	.LCFI93:
 2240              		.cfi_def_cfa_register 7
 2241 0006 F860     		str	r0, [r7, #12]
 2242 0008 B960     		str	r1, [r7, #8]
 2243 000a 7A60     		str	r2, [r7, #4]
 616:./uart/uart-cmd.c **** uint8_t hpf=0;  
 2244              		.loc 1 616 9
 2245 000c 0023     		movs	r3, #0
 2246 000e 87F82730 		strb	r3, [r7, #39]
 617:./uart/uart-cmd.c ****   char  buf[16]="";
 2247              		.loc 1 617 9
 2248 0012 0023     		movs	r3, #0
 2249 0014 7B61     		str	r3, [r7, #20]
 2250 0016 07F11803 		add	r3, r7, #24
 2251 001a 0022     		movs	r2, #0
 2252 001c 1A60     		str	r2, [r3]
 2253 001e 5A60     		str	r2, [r3, #4]
 2254 0020 9A60     		str	r2, [r3, #8]
 618:./uart/uart-cmd.c ****   hpf=atol((const char *)data);  
 2255              		.loc 1 618 7
 2256 0022 B868     		ldr	r0, [r7, #8]
 2257 0024 FFF7FEFF 		bl	atol
 2258 0028 0346     		mov	r3, r0
 2259              		.loc 1 618 6
 2260 002a 87F82730 		strb	r3, [r7, #39]
 619:./uart/uart-cmd.c **** 
 620:./uart/uart-cmd.c ****  uint8_t error=0;
 2261              		.loc 1 620 10
 2262 002e 0023     		movs	r3, #0
 2263 0030 87F82630 		strb	r3, [r7, #38]
 621:./uart/uart-cmd.c ****  error=mpu6050_set_lpf((MPU6050_t*)&myMPU6050,hpf);
 2264              		.loc 1 621 8
 2265 0034 97F82730 		ldrb	r3, [r7, #39]	@ zero_extendqisi2
 2266 0038 1946     		mov	r1, r3
 2267 003a 0D48     		ldr	r0, .L100
 2268 003c FFF7FEFF 		bl	mpu6050_set_lpf
 2269 0040 0346     		mov	r3, r0
 2270 0042 87F82630 		strb	r3, [r7, #38]
 622:./uart/uart-cmd.c ****  if(error==I2C_OK) 
 2271              		.loc 1 622 4
 2272 0046 97F82630 		ldrb	r3, [r7, #38]	@ zero_extendqisi2
 2273 004a 002B     		cmp	r3, #0
 2274 004c 0AD1     		bne	.L98
 623:./uart/uart-cmd.c ****   {
 624:./uart/uart-cmd.c **** 	uart_print(usartx,"hpf rate is set to 0x");
 2275              		.loc 1 624 2
ARM GAS  C:\Users\SAMEER~1.ALM\AppData\Local\Temp\ccXJ6CLf.s 			page 54


 2276 004e 0949     		ldr	r1, .L100+4
 2277 0050 F868     		ldr	r0, [r7, #12]
 2278 0052 FFF7FEFF 		bl	uart_print
 625:./uart/uart-cmd.c **** 	uart_print_integer(usartx,hpf,16);	
 2279              		.loc 1 625 2
 2280 0056 97F82730 		ldrb	r3, [r7, #39]	@ zero_extendqisi2
 2281 005a 1022     		movs	r2, #16
 2282 005c 1946     		mov	r1, r3
 2283 005e F868     		ldr	r0, [r7, #12]
 2284 0060 FFF7FEFF 		bl	uart_print_integer
 2285              	.L98:
 626:./uart/uart-cmd.c ****   }
 627:./uart/uart-cmd.c ****   return error;
 2286              		.loc 1 627 10
 2287 0064 97F82630 		ldrb	r3, [r7, #38]	@ zero_extendqisi2
 628:./uart/uart-cmd.c **** }
 2288              		.loc 1 628 1
 2289 0068 1846     		mov	r0, r3
 2290 006a 2837     		adds	r7, r7, #40
 2291              	.LCFI94:
 2292              		.cfi_def_cfa_offset 8
 2293 006c BD46     		mov	sp, r7
 2294              	.LCFI95:
 2295              		.cfi_def_cfa_register 13
 2296              		@ sp needed
 2297 006e 80BD     		pop	{r7, pc}
 2298              	.L101:
 2299              		.align	2
 2300              	.L100:
 2301 0070 00000000 		.word	myMPU6050
 2302 0074 20030000 		.word	.LC46
 2303              		.cfi_endproc
 2304              	.LFE50:
 2306              		.section	.text.uart_clk_cmd_handle,"ax",%progbits
 2307              		.align	1
 2308              		.global	uart_clk_cmd_handle
 2309              		.syntax unified
 2310              		.thumb
 2311              		.thumb_func
 2313              	uart_clk_cmd_handle:
 2314              	.LFB51:
 629:./uart/uart-cmd.c **** //-----------------------------------------------------------------------------
 630:./uart/uart-cmd.c **** /**
 631:./uart/uart-cmd.c ****  * @brief
 632:./uart/uart-cmd.c ****  * @details 
 633:./uart/uart-cmd.c ****  * @return  
 634:./uart/uart-cmd.c ****  */
 635:./uart/uart-cmd.c **** void  uart_clk_cmd_handle(USART_TypeDef * usartx,uint8_t * data, size_t data_len)
 636:./uart/uart-cmd.c **** {
 2315              		.loc 1 636 1
 2316              		.cfi_startproc
 2317              		@ args = 0, pretend = 0, frame = 16
 2318              		@ frame_needed = 1, uses_anonymous_args = 0
 2319              		@ link register save eliminated.
 2320 0000 80B4     		push	{r7}
 2321              	.LCFI96:
 2322              		.cfi_def_cfa_offset 4
ARM GAS  C:\Users\SAMEER~1.ALM\AppData\Local\Temp\ccXJ6CLf.s 			page 55


 2323              		.cfi_offset 7, -4
 2324 0002 85B0     		sub	sp, sp, #20
 2325              	.LCFI97:
 2326              		.cfi_def_cfa_offset 24
 2327 0004 00AF     		add	r7, sp, #0
 2328              	.LCFI98:
 2329              		.cfi_def_cfa_register 7
 2330 0006 F860     		str	r0, [r7, #12]
 2331 0008 B960     		str	r1, [r7, #8]
 2332 000a 7A60     		str	r2, [r7, #4]
 637:./uart/uart-cmd.c **** 
 638:./uart/uart-cmd.c **** }
 2333              		.loc 1 638 1
 2334 000c 00BF     		nop
 2335 000e 1437     		adds	r7, r7, #20
 2336              	.LCFI99:
 2337              		.cfi_def_cfa_offset 4
 2338 0010 BD46     		mov	sp, r7
 2339              	.LCFI100:
 2340              		.cfi_def_cfa_register 13
 2341              		@ sp needed
 2342 0012 80BC     		pop	{r7}
 2343              	.LCFI101:
 2344              		.cfi_restore 7
 2345              		.cfi_def_cfa_offset 0
 2346 0014 7047     		bx	lr
 2347              		.cfi_endproc
 2348              	.LFE51:
 2350              		.section	.text.uart_tst_cmd_handle,"ax",%progbits
 2351              		.align	1
 2352              		.global	uart_tst_cmd_handle
 2353              		.syntax unified
 2354              		.thumb
 2355              		.thumb_func
 2357              	uart_tst_cmd_handle:
 2358              	.LFB52:
 639:./uart/uart-cmd.c **** //-----------------------------------------------------------------------------
 640:./uart/uart-cmd.c **** /**
 641:./uart/uart-cmd.c ****  * @brief
 642:./uart/uart-cmd.c ****  * @details 
 643:./uart/uart-cmd.c ****  * @return  
 644:./uart/uart-cmd.c ****  */
 645:./uart/uart-cmd.c **** void  uart_tst_cmd_handle(USART_TypeDef * usartx,uint8_t * data, size_t data_len)
 646:./uart/uart-cmd.c **** {
 2359              		.loc 1 646 1
 2360              		.cfi_startproc
 2361              		@ args = 0, pretend = 0, frame = 16
 2362              		@ frame_needed = 1, uses_anonymous_args = 0
 2363              		@ link register save eliminated.
 2364 0000 80B4     		push	{r7}
 2365              	.LCFI102:
 2366              		.cfi_def_cfa_offset 4
 2367              		.cfi_offset 7, -4
 2368 0002 85B0     		sub	sp, sp, #20
 2369              	.LCFI103:
 2370              		.cfi_def_cfa_offset 24
 2371 0004 00AF     		add	r7, sp, #0
ARM GAS  C:\Users\SAMEER~1.ALM\AppData\Local\Temp\ccXJ6CLf.s 			page 56


 2372              	.LCFI104:
 2373              		.cfi_def_cfa_register 7
 2374 0006 F860     		str	r0, [r7, #12]
 2375 0008 B960     		str	r1, [r7, #8]
 2376 000a 7A60     		str	r2, [r7, #4]
 647:./uart/uart-cmd.c **** 
 648:./uart/uart-cmd.c **** }
 2377              		.loc 1 648 1
 2378 000c 00BF     		nop
 2379 000e 1437     		adds	r7, r7, #20
 2380              	.LCFI105:
 2381              		.cfi_def_cfa_offset 4
 2382 0010 BD46     		mov	sp, r7
 2383              	.LCFI106:
 2384              		.cfi_def_cfa_register 13
 2385              		@ sp needed
 2386 0012 80BC     		pop	{r7}
 2387              	.LCFI107:
 2388              		.cfi_restore 7
 2389              		.cfi_def_cfa_offset 0
 2390 0014 7047     		bx	lr
 2391              		.cfi_endproc
 2392              	.LFE52:
 2394              		.section	.rodata
 2395 0336 0000     		.align	2
 2396              	.LC47:
 2397 0338 6379636C 		.ascii	"cycle is changed .....\000"
 2397      65206973 
 2397      20636861 
 2397      6E676564 
 2397      202E2E2E 
 2398 034f 00       		.align	2
 2399              	.LC48:
 2400 0350 6379636C 		.ascii	"cycle speed is fast than the allowed upper limit  ."
 2400      65207370 
 2400      65656420 
 2400      69732066 
 2400      61737420 
 2401 0383 2E2E2E2E 		.ascii	"....\015\012\000"
 2401      0D0A00
 2402 038a 0000     		.align	2
 2403              	.LC49:
 2404 038c 63757272 		.ascii	"current cycle speed:\000"
 2404      656E7420 
 2404      6379636C 
 2404      65207370 
 2404      6565643A 
 2405              		.section	.text.uart_cyc_cmd_handle,"ax",%progbits
 2406              		.align	1
 2407              		.global	uart_cyc_cmd_handle
 2408              		.syntax unified
 2409              		.thumb
 2410              		.thumb_func
 2412              	uart_cyc_cmd_handle:
 2413              	.LFB53:
 649:./uart/uart-cmd.c **** //-----------------------------------------------------------------------------
 650:./uart/uart-cmd.c **** /**
ARM GAS  C:\Users\SAMEER~1.ALM\AppData\Local\Temp\ccXJ6CLf.s 			page 57


 651:./uart/uart-cmd.c ****  * @brief
 652:./uart/uart-cmd.c ****  * @details 
 653:./uart/uart-cmd.c ****  * @return  
 654:./uart/uart-cmd.c ****  */
 655:./uart/uart-cmd.c **** void  uart_cyc_cmd_handle(USART_TypeDef * usartx,uint8_t * data, size_t data_len)
 656:./uart/uart-cmd.c **** {
 2414              		.loc 1 656 1
 2415              		.cfi_startproc
 2416              		@ args = 0, pretend = 0, frame = 40
 2417              		@ frame_needed = 1, uses_anonymous_args = 0
 2418 0000 80B5     		push	{r7, lr}
 2419              	.LCFI108:
 2420              		.cfi_def_cfa_offset 8
 2421              		.cfi_offset 7, -8
 2422              		.cfi_offset 14, -4
 2423 0002 8AB0     		sub	sp, sp, #40
 2424              	.LCFI109:
 2425              		.cfi_def_cfa_offset 48
 2426 0004 00AF     		add	r7, sp, #0
 2427              	.LCFI110:
 2428              		.cfi_def_cfa_register 7
 2429 0006 F860     		str	r0, [r7, #12]
 2430 0008 B960     		str	r1, [r7, #8]
 2431 000a 7A60     		str	r2, [r7, #4]
 657:./uart/uart-cmd.c ****   uint32_t val=0;  
 2432              		.loc 1 657 12
 2433 000c 0023     		movs	r3, #0
 2434 000e 7B62     		str	r3, [r7, #36]
 658:./uart/uart-cmd.c ****   char  buf[16]="";
 2435              		.loc 1 658 9
 2436 0010 0023     		movs	r3, #0
 2437 0012 7B61     		str	r3, [r7, #20]
 2438 0014 07F11803 		add	r3, r7, #24
 2439 0018 0022     		movs	r2, #0
 2440 001a 1A60     		str	r2, [r3]
 2441 001c 5A60     		str	r2, [r3, #4]
 2442 001e 9A60     		str	r2, [r3, #8]
 659:./uart/uart-cmd.c ****   val=atol((const char *)data);  
 2443              		.loc 1 659 7
 2444 0020 B868     		ldr	r0, [r7, #8]
 2445 0022 FFF7FEFF 		bl	atol
 2446 0026 0346     		mov	r3, r0
 2447              		.loc 1 659 6
 2448 0028 7B62     		str	r3, [r7, #36]
 660:./uart/uart-cmd.c **** 
 661:./uart/uart-cmd.c ****   if(val >=10 && val<1000)
 2449              		.loc 1 661 5
 2450 002a 7B6A     		ldr	r3, [r7, #36]
 2451 002c 092B     		cmp	r3, #9
 2452 002e 0FD9     		bls	.L105
 2453              		.loc 1 661 15 discriminator 1
 2454 0030 7B6A     		ldr	r3, [r7, #36]
 2455 0032 B3F57A7F 		cmp	r3, #1000
 2456 0036 0BD2     		bcs	.L105
 662:./uart/uart-cmd.c ****   {
 663:./uart/uart-cmd.c ****    mpu_cycle =10000U* val;  
 2457              		.loc 1 663 21
ARM GAS  C:\Users\SAMEER~1.ALM\AppData\Local\Temp\ccXJ6CLf.s 			page 58


 2458 0038 7B6A     		ldr	r3, [r7, #36]
 2459 003a 42F21072 		movw	r2, #10000
 2460 003e 02FB03F3 		mul	r3, r2, r3
 2461              		.loc 1 663 14
 2462 0042 124A     		ldr	r2, .L107
 2463 0044 1360     		str	r3, [r2]
 664:./uart/uart-cmd.c ****    uart_println(usartx,"cycle is changed .....");
 2464              		.loc 1 664 4
 2465 0046 1249     		ldr	r1, .L107+4
 2466 0048 F868     		ldr	r0, [r7, #12]
 2467 004a FFF7FEFF 		bl	uart_println
 2468 004e 07E0     		b	.L106
 2469              	.L105:
 665:./uart/uart-cmd.c ****   }
 666:./uart/uart-cmd.c ****   else
 667:./uart/uart-cmd.c ****   {
 668:./uart/uart-cmd.c ****    mpu_cycle=MPU_WAIT_TIMEOUT;
 2470              		.loc 1 668 13
 2471 0050 0E4B     		ldr	r3, .L107
 2472 0052 4CF25032 		movw	r2, #50000
 2473 0056 1A60     		str	r2, [r3]
 669:./uart/uart-cmd.c ****    uart_println(usartx,"cycle speed is fast than the allowed upper limit  .....\r\n");  
 2474              		.loc 1 669 4
 2475 0058 0E49     		ldr	r1, .L107+8
 2476 005a F868     		ldr	r0, [r7, #12]
 2477 005c FFF7FEFF 		bl	uart_println
 2478              	.L106:
 670:./uart/uart-cmd.c ****   }
 671:./uart/uart-cmd.c **** 
 672:./uart/uart-cmd.c ****    uart_print(usartx,"current cycle speed:");
 2479              		.loc 1 672 4
 2480 0060 0D49     		ldr	r1, .L107+12
 2481 0062 F868     		ldr	r0, [r7, #12]
 2482 0064 FFF7FEFF 		bl	uart_print
 673:./uart/uart-cmd.c ****    utoa(mpu_cycle,buf,10);
 2483              		.loc 1 673 4
 2484 0068 084B     		ldr	r3, .L107
 2485 006a 1B68     		ldr	r3, [r3]
 2486 006c 07F11401 		add	r1, r7, #20
 2487 0070 0A22     		movs	r2, #10
 2488 0072 1846     		mov	r0, r3
 2489 0074 FFF7FEFF 		bl	utoa
 674:./uart/uart-cmd.c ****    uart_println(usartx,buf);
 2490              		.loc 1 674 4
 2491 0078 07F11403 		add	r3, r7, #20
 2492 007c 1946     		mov	r1, r3
 2493 007e F868     		ldr	r0, [r7, #12]
 2494 0080 FFF7FEFF 		bl	uart_println
 675:./uart/uart-cmd.c **** }
 2495              		.loc 1 675 1
 2496 0084 00BF     		nop
 2497 0086 2837     		adds	r7, r7, #40
 2498              	.LCFI111:
 2499              		.cfi_def_cfa_offset 8
 2500 0088 BD46     		mov	sp, r7
 2501              	.LCFI112:
 2502              		.cfi_def_cfa_register 13
ARM GAS  C:\Users\SAMEER~1.ALM\AppData\Local\Temp\ccXJ6CLf.s 			page 59


 2503              		@ sp needed
 2504 008a 80BD     		pop	{r7, pc}
 2505              	.L108:
 2506              		.align	2
 2507              	.L107:
 2508 008c 00000000 		.word	mpu_cycle
 2509 0090 38030000 		.word	.LC47
 2510 0094 50030000 		.word	.LC48
 2511 0098 8C030000 		.word	.LC49
 2512              		.cfi_endproc
 2513              	.LFE53:
 2515              		.section	.rodata
 2516 03a1 000000   		.align	2
 2517              	.LC50:
 2518 03a4 2D7200   		.ascii	"-r\000"
 2519 03a7 00       		.align	2
 2520              	.LC51:
 2521 03a8 2D7600   		.ascii	"-v\000"
 2522 03ab 00       		.align	2
 2523              	.LC52:
 2524 03ac 756E6B6E 		.ascii	"unknown parameter :\000"
 2524      6F776E20 
 2524      70617261 
 2524      6D657465 
 2524      72203A00 
 2525              		.section	.text.uart_write_cmd_param_exe,"ax",%progbits
 2526              		.align	1
 2527              		.global	uart_write_cmd_param_exe
 2528              		.syntax unified
 2529              		.thumb
 2530              		.thumb_func
 2532              	uart_write_cmd_param_exe:
 2533              	.LFB54:
 676:./uart/uart-cmd.c **** //-----------------------------------------------------------------------------
 677:./uart/uart-cmd.c **** 
 678:./uart/uart-cmd.c **** 
 679:./uart/uart-cmd.c **** 
 680:./uart/uart-cmd.c **** 
 681:./uart/uart-cmd.c **** //********************************************************************************************
 682:./uart/uart-cmd.c **** //
 683:./uart/uart-cmd.c **** // uart sub commaond command and frame handling definition
 684:./uart/uart-cmd.c **** //
 685:./uart/uart-cmd.c **** //********************************************************************************************
 686:./uart/uart-cmd.c **** void uart_write_cmd_param_exe(USART_TypeDef * usartx,param_t p, uint8_t * reg_address, uint8_t * re
 687:./uart/uart-cmd.c **** {
 2534              		.loc 1 687 1
 2535              		.cfi_startproc
 2536              		@ args = 28, pretend = 16, frame = 32
 2537              		@ frame_needed = 1, uses_anonymous_args = 0
 2538 0000 84B0     		sub	sp, sp, #16
 2539              	.LCFI113:
 2540              		.cfi_def_cfa_offset 16
 2541 0002 80B5     		push	{r7, lr}
 2542              	.LCFI114:
 2543              		.cfi_def_cfa_offset 24
 2544              		.cfi_offset 7, -24
 2545              		.cfi_offset 14, -20
ARM GAS  C:\Users\SAMEER~1.ALM\AppData\Local\Temp\ccXJ6CLf.s 			page 60


 2546 0004 88B0     		sub	sp, sp, #32
 2547              	.LCFI115:
 2548              		.cfi_def_cfa_offset 56
 2549 0006 00AF     		add	r7, sp, #0
 2550              	.LCFI116:
 2551              		.cfi_def_cfa_register 7
 2552 0008 7860     		str	r0, [r7, #4]
 2553 000a 07F12C00 		add	r0, r7, #44
 2554 000e 80E80E00 		stm	r0, {r1, r2, r3}
 688:./uart/uart-cmd.c ****  char buf[16]="";
 2555              		.loc 1 688 7
 2556 0012 0023     		movs	r3, #0
 2557 0014 FB60     		str	r3, [r7, #12]
 2558 0016 07F11003 		add	r3, r7, #16
 2559 001a 0022     		movs	r2, #0
 2560 001c 1A60     		str	r2, [r3]
 2561 001e 5A60     		str	r2, [r3, #4]
 2562 0020 9A60     		str	r2, [r3, #8]
 689:./uart/uart-cmd.c ****  int val=-1; 
 2563              		.loc 1 689 6
 2564 0022 4FF0FF33 		mov	r3, #-1
 2565 0026 FB61     		str	r3, [r7, #28]
 690:./uart/uart-cmd.c ****  if(p.data_len>0)
 2566              		.loc 1 690 6
 2567 0028 97F83830 		ldrb	r3, [r7, #56]	@ zero_extendqisi2
 2568              		.loc 1 690 4
 2569 002c 002B     		cmp	r3, #0
 2570 002e 15D0     		beq	.L110
 691:./uart/uart-cmd.c ****   {
 692:./uart/uart-cmd.c ****     memset(buf,0,16);
 2571              		.loc 1 692 5
 2572 0030 07F10C03 		add	r3, r7, #12
 2573 0034 1022     		movs	r2, #16
 2574 0036 0021     		movs	r1, #0
 2575 0038 1846     		mov	r0, r3
 2576 003a FFF7FEFF 		bl	memset
 693:./uart/uart-cmd.c ****     memcpy(buf,p.data,p.data_len);
 2577              		.loc 1 693 17
 2578 003e 796B     		ldr	r1, [r7, #52]
 2579              		.loc 1 693 24
 2580 0040 97F83830 		ldrb	r3, [r7, #56]	@ zero_extendqisi2
 2581              		.loc 1 693 5
 2582 0044 1A46     		mov	r2, r3
 2583 0046 07F10C03 		add	r3, r7, #12
 2584 004a 1846     		mov	r0, r3
 2585 004c FFF7FEFF 		bl	memcpy
 694:./uart/uart-cmd.c ****     val=atol((const char *)buf); 
 2586              		.loc 1 694 9
 2587 0050 07F10C03 		add	r3, r7, #12
 2588 0054 1846     		mov	r0, r3
 2589 0056 FFF7FEFF 		bl	atol
 2590 005a F861     		str	r0, [r7, #28]
 2591              	.L110:
 695:./uart/uart-cmd.c ****   }
 696:./uart/uart-cmd.c ****    memset(buf,0,16);
 2592              		.loc 1 696 4
 2593 005c 07F10C03 		add	r3, r7, #12
ARM GAS  C:\Users\SAMEER~1.ALM\AppData\Local\Temp\ccXJ6CLf.s 			page 61


 2594 0060 1022     		movs	r2, #16
 2595 0062 0021     		movs	r1, #0
 2596 0064 1846     		mov	r0, r3
 2597 0066 FFF7FEFF 		bl	memset
 697:./uart/uart-cmd.c ****    memcpy(buf,p.param,p.param_len);
 2598              		.loc 1 697 16
 2599 006a F96A     		ldr	r1, [r7, #44]
 2600              		.loc 1 697 24
 2601 006c 97F83030 		ldrb	r3, [r7, #48]	@ zero_extendqisi2
 2602              		.loc 1 697 4
 2603 0070 1A46     		mov	r2, r3
 2604 0072 07F10C03 		add	r3, r7, #12
 2605 0076 1846     		mov	r0, r3
 2606 0078 FFF7FEFF 		bl	memcpy
 698:./uart/uart-cmd.c ****   
 699:./uart/uart-cmd.c ****   if(strcasecmp((const char *)buf,"-r")==0)
 2607              		.loc 1 699 6
 2608 007c 07F10C03 		add	r3, r7, #12
 2609 0080 1849     		ldr	r1, .L115
 2610 0082 1846     		mov	r0, r3
 2611 0084 FFF7FEFF 		bl	strcasecmp
 2612 0088 0346     		mov	r3, r0
 2613              		.loc 1 699 5
 2614 008a 002B     		cmp	r3, #0
 2615 008c 0AD1     		bne	.L111
 700:./uart/uart-cmd.c ****   {
 701:./uart/uart-cmd.c **** 	if(val >= 0x0D && val <=0x75)
 2616              		.loc 1 701 4
 2617 008e FB69     		ldr	r3, [r7, #28]
 2618 0090 0C2B     		cmp	r3, #12
 2619 0092 1FDD     		ble	.L114
 2620              		.loc 1 701 17 discriminator 1
 2621 0094 FB69     		ldr	r3, [r7, #28]
 2622 0096 752B     		cmp	r3, #117
 2623 0098 1CDC     		bgt	.L114
 702:./uart/uart-cmd.c **** 	  *reg_address=val;
 2624              		.loc 1 702 16
 2625 009a FB69     		ldr	r3, [r7, #28]
 2626 009c DAB2     		uxtb	r2, r3
 2627 009e FB6B     		ldr	r3, [r7, #60]
 2628 00a0 1A70     		strb	r2, [r3]
 703:./uart/uart-cmd.c ****   }
 704:./uart/uart-cmd.c ****   else if(strcasecmp((const char *)buf,"-v")==0)
 705:./uart/uart-cmd.c ****   {
 706:./uart/uart-cmd.c **** 	*reg_val=val;
 707:./uart/uart-cmd.c ****   }          
 708:./uart/uart-cmd.c ****  else
 709:./uart/uart-cmd.c ****  {
 710:./uart/uart-cmd.c **** 	uart_print(usartx,"unknown parameter :");
 711:./uart/uart-cmd.c ****   	uart_println(usartx,(char *)buf);
 712:./uart/uart-cmd.c ****  }
 713:./uart/uart-cmd.c **** }
 2629              		.loc 1 713 1
 2630 00a2 17E0     		b	.L114
 2631              	.L111:
 704:./uart/uart-cmd.c ****   {
 2632              		.loc 1 704 11
ARM GAS  C:\Users\SAMEER~1.ALM\AppData\Local\Temp\ccXJ6CLf.s 			page 62


 2633 00a4 07F10C03 		add	r3, r7, #12
 2634 00a8 0F49     		ldr	r1, .L115+4
 2635 00aa 1846     		mov	r0, r3
 2636 00ac FFF7FEFF 		bl	strcasecmp
 2637 00b0 0346     		mov	r3, r0
 704:./uart/uart-cmd.c ****   {
 2638              		.loc 1 704 10
 2639 00b2 002B     		cmp	r3, #0
 2640 00b4 04D1     		bne	.L113
 706:./uart/uart-cmd.c ****   }          
 2641              		.loc 1 706 10
 2642 00b6 FB69     		ldr	r3, [r7, #28]
 2643 00b8 DAB2     		uxtb	r2, r3
 2644 00ba 3B6C     		ldr	r3, [r7, #64]
 2645 00bc 1A70     		strb	r2, [r3]
 2646              		.loc 1 713 1
 2647 00be 09E0     		b	.L114
 2648              	.L113:
 710:./uart/uart-cmd.c ****   	uart_println(usartx,(char *)buf);
 2649              		.loc 1 710 2
 2650 00c0 0A49     		ldr	r1, .L115+8
 2651 00c2 7868     		ldr	r0, [r7, #4]
 2652 00c4 FFF7FEFF 		bl	uart_print
 711:./uart/uart-cmd.c ****  }
 2653              		.loc 1 711 4
 2654 00c8 07F10C03 		add	r3, r7, #12
 2655 00cc 1946     		mov	r1, r3
 2656 00ce 7868     		ldr	r0, [r7, #4]
 2657 00d0 FFF7FEFF 		bl	uart_println
 2658              	.L114:
 2659              		.loc 1 713 1
 2660 00d4 00BF     		nop
 2661 00d6 2037     		adds	r7, r7, #32
 2662              	.LCFI117:
 2663              		.cfi_def_cfa_offset 24
 2664 00d8 BD46     		mov	sp, r7
 2665              	.LCFI118:
 2666              		.cfi_def_cfa_register 13
 2667              		@ sp needed
 2668 00da BDE88040 		pop	{r7, lr}
 2669              	.LCFI119:
 2670              		.cfi_restore 14
 2671              		.cfi_restore 7
 2672              		.cfi_def_cfa_offset 16
 2673 00de 04B0     		add	sp, sp, #16
 2674              	.LCFI120:
 2675              		.cfi_def_cfa_offset 0
 2676 00e0 7047     		bx	lr
 2677              	.L116:
 2678 00e2 00BF     		.align	2
 2679              	.L115:
 2680 00e4 A4030000 		.word	.LC50
 2681 00e8 A8030000 		.word	.LC51
 2682 00ec AC030000 		.word	.LC52
 2683              		.cfi_endproc
 2684              	.LFE54:
 2686              		.section	.rodata
ARM GAS  C:\Users\SAMEER~1.ALM\AppData\Local\Temp\ccXJ6CLf.s 			page 63


 2687              		.align	2
 2688              	.LC53:
 2689 03c0 72656728 		.ascii	"reg(@0x\000"
 2689      40307800 
 2690              		.align	2
 2691              	.LC54:
 2692 03c8 29206861 		.ascii	") has written the value 0x\000"
 2692      73207772 
 2692      69747465 
 2692      6E207468 
 2692      65207661 
 2693              		.section	.text.uart_write_reg_exe,"ax",%progbits
 2694              		.align	1
 2695              		.global	uart_write_reg_exe
 2696              		.syntax unified
 2697              		.thumb
 2698              		.thumb_func
 2700              	uart_write_reg_exe:
 2701              	.LFB55:
 714:./uart/uart-cmd.c **** //-----------------------------------------------------------------------------
 715:./uart/uart-cmd.c **** uint8_t uart_write_reg_exe(USART_TypeDef * usartx, MPU6050_t * mpu,uint8_t reg_address, uint8_t reg
 716:./uart/uart-cmd.c **** {
 2702              		.loc 1 716 1
 2703              		.cfi_startproc
 2704              		@ args = 0, pretend = 0, frame = 24
 2705              		@ frame_needed = 1, uses_anonymous_args = 0
 2706 0000 80B5     		push	{r7, lr}
 2707              	.LCFI121:
 2708              		.cfi_def_cfa_offset 8
 2709              		.cfi_offset 7, -8
 2710              		.cfi_offset 14, -4
 2711 0002 86B0     		sub	sp, sp, #24
 2712              	.LCFI122:
 2713              		.cfi_def_cfa_offset 32
 2714 0004 00AF     		add	r7, sp, #0
 2715              	.LCFI123:
 2716              		.cfi_def_cfa_register 7
 2717 0006 F860     		str	r0, [r7, #12]
 2718 0008 B960     		str	r1, [r7, #8]
 2719 000a 1146     		mov	r1, r2
 2720 000c 1A46     		mov	r2, r3
 2721 000e 0B46     		mov	r3, r1
 2722 0010 FB71     		strb	r3, [r7, #7]
 2723 0012 1346     		mov	r3, r2
 2724 0014 BB71     		strb	r3, [r7, #6]
 717:./uart/uart-cmd.c ****  uint8_t error=0, temp=0;
 2725              		.loc 1 717 10
 2726 0016 0023     		movs	r3, #0
 2727 0018 FB75     		strb	r3, [r7, #23]
 2728              		.loc 1 717 19
 2729 001a 0023     		movs	r3, #0
 2730 001c BB75     		strb	r3, [r7, #22]
 718:./uart/uart-cmd.c ****  error=i2c_write_7bit_base_byte_std(MPU6050_I2C, mpu->Address, reg_address, reg_val);
 2731              		.loc 1 718 8
 2732 001e BB68     		ldr	r3, [r7, #8]
 2733 0020 1978     		ldrb	r1, [r3]	@ zero_extendqisi2
 2734 0022 BB79     		ldrb	r3, [r7, #6]	@ zero_extendqisi2
ARM GAS  C:\Users\SAMEER~1.ALM\AppData\Local\Temp\ccXJ6CLf.s 			page 64


 2735 0024 FA79     		ldrb	r2, [r7, #7]	@ zero_extendqisi2
 2736 0026 1048     		ldr	r0, .L120
 2737 0028 FFF7FEFF 		bl	i2c_write_7bit_base_byte_std
 2738 002c 0346     		mov	r3, r0
 2739 002e FB75     		strb	r3, [r7, #23]
 719:./uart/uart-cmd.c ****  if(error==I2C_OK) 
 2740              		.loc 1 719 4
 2741 0030 FB7D     		ldrb	r3, [r7, #23]	@ zero_extendqisi2
 2742 0032 002B     		cmp	r3, #0
 2743 0034 13D1     		bne	.L118
 720:./uart/uart-cmd.c ****   {
 721:./uart/uart-cmd.c **** 	uart_print(usartx,"reg(@0x");
 2744              		.loc 1 721 2
 2745 0036 0D49     		ldr	r1, .L120+4
 2746 0038 F868     		ldr	r0, [r7, #12]
 2747 003a FFF7FEFF 		bl	uart_print
 722:./uart/uart-cmd.c **** 	uart_print_integer(usartx,reg_address,16);
 2748              		.loc 1 722 2
 2749 003e FB79     		ldrb	r3, [r7, #7]	@ zero_extendqisi2
 2750 0040 1022     		movs	r2, #16
 2751 0042 1946     		mov	r1, r3
 2752 0044 F868     		ldr	r0, [r7, #12]
 2753 0046 FFF7FEFF 		bl	uart_print_integer
 723:./uart/uart-cmd.c **** 	uart_print(usartx,") has written the value 0x");
 2754              		.loc 1 723 2
 2755 004a 0949     		ldr	r1, .L120+8
 2756 004c F868     		ldr	r0, [r7, #12]
 2757 004e FFF7FEFF 		bl	uart_print
 724:./uart/uart-cmd.c **** 	uart_print_integer(usartx,reg_val,16);	
 2758              		.loc 1 724 2
 2759 0052 BB79     		ldrb	r3, [r7, #6]	@ zero_extendqisi2
 2760 0054 1022     		movs	r2, #16
 2761 0056 1946     		mov	r1, r3
 2762 0058 F868     		ldr	r0, [r7, #12]
 2763 005a FFF7FEFF 		bl	uart_print_integer
 2764              	.L118:
 725:./uart/uart-cmd.c ****   }
 726:./uart/uart-cmd.c ****   return error;
 2765              		.loc 1 726 10
 2766 005e FB7D     		ldrb	r3, [r7, #23]	@ zero_extendqisi2
 727:./uart/uart-cmd.c ****   }
 2767              		.loc 1 727 3
 2768 0060 1846     		mov	r0, r3
 2769 0062 1837     		adds	r7, r7, #24
 2770              	.LCFI124:
 2771              		.cfi_def_cfa_offset 8
 2772 0064 BD46     		mov	sp, r7
 2773              	.LCFI125:
 2774              		.cfi_def_cfa_register 13
 2775              		@ sp needed
 2776 0066 80BD     		pop	{r7, pc}
 2777              	.L121:
 2778              		.align	2
 2779              	.L120:
 2780 0068 00540040 		.word	1073763328
 2781 006c C0030000 		.word	.LC53
 2782 0070 C8030000 		.word	.LC54
ARM GAS  C:\Users\SAMEER~1.ALM\AppData\Local\Temp\ccXJ6CLf.s 			page 65


 2783              		.cfi_endproc
 2784              	.LFE55:
 2786              		.section	.rodata
 2787 03e3 00       		.align	2
 2788              	.LC55:
 2789 03e4 6275663A 		.ascii	"buf:\000"
 2789      00
 2790 03e9 000000   		.align	2
 2791              	.LC56:
 2792 03ec 2D616C6C 		.ascii	"-all\000"
 2792      00
 2793 03f1 000000   		.align	2
 2794              	.LC57:
 2795 03f4 2D6100   		.ascii	"-a\000"
 2796 03f7 00       		.align	2
 2797              	.LC58:
 2798 03f8 2D6700   		.ascii	"-g\000"
 2799 03fb 00       		.align	2
 2800              	.LC59:
 2801 03fc 2D7400   		.ascii	"-t\000"
 2802              		.section	.text.uart_read_cmd_param_exe,"ax",%progbits
 2803              		.align	1
 2804              		.global	uart_read_cmd_param_exe
 2805              		.syntax unified
 2806              		.thumb
 2807              		.thumb_func
 2809              	uart_read_cmd_param_exe:
 2810              	.LFB56:
 728:./uart/uart-cmd.c **** //-----------------------------------------------------------------------------
 729:./uart/uart-cmd.c **** 
 730:./uart/uart-cmd.c **** uint8_t uart_read_cmd_param_exe(USART_TypeDef * usartx,param_t p)
 731:./uart/uart-cmd.c **** {
 2811              		.loc 1 731 1
 2812              		.cfi_startproc
 2813              		@ args = 20, pretend = 16, frame = 32
 2814              		@ frame_needed = 1, uses_anonymous_args = 0
 2815 0000 84B0     		sub	sp, sp, #16
 2816              	.LCFI126:
 2817              		.cfi_def_cfa_offset 16
 2818 0002 80B5     		push	{r7, lr}
 2819              	.LCFI127:
 2820              		.cfi_def_cfa_offset 24
 2821              		.cfi_offset 7, -24
 2822              		.cfi_offset 14, -20
 2823 0004 88B0     		sub	sp, sp, #32
 2824              	.LCFI128:
 2825              		.cfi_def_cfa_offset 56
 2826 0006 00AF     		add	r7, sp, #0
 2827              	.LCFI129:
 2828              		.cfi_def_cfa_register 7
 2829 0008 7860     		str	r0, [r7, #4]
 2830 000a 07F12C00 		add	r0, r7, #44
 2831 000e 80E80E00 		stm	r0, {r1, r2, r3}
 732:./uart/uart-cmd.c ****  char buf[16]="";
 2832              		.loc 1 732 7
 2833 0012 0023     		movs	r3, #0
 2834 0014 BB60     		str	r3, [r7, #8]
ARM GAS  C:\Users\SAMEER~1.ALM\AppData\Local\Temp\ccXJ6CLf.s 			page 66


 2835 0016 07F10C03 		add	r3, r7, #12
 2836 001a 0022     		movs	r2, #0
 2837 001c 1A60     		str	r2, [r3]
 2838 001e 5A60     		str	r2, [r3, #4]
 2839 0020 9A60     		str	r2, [r3, #8]
 733:./uart/uart-cmd.c ****  int val=-1; 
 2840              		.loc 1 733 6
 2841 0022 4FF0FF33 		mov	r3, #-1
 2842 0026 FB61     		str	r3, [r7, #28]
 734:./uart/uart-cmd.c ****  uint8_t error=0;
 2843              		.loc 1 734 10
 2844 0028 0023     		movs	r3, #0
 2845 002a FB76     		strb	r3, [r7, #27]
 735:./uart/uart-cmd.c ****  if(p.data_len>0)
 2846              		.loc 1 735 6
 2847 002c 97F83830 		ldrb	r3, [r7, #56]	@ zero_extendqisi2
 2848              		.loc 1 735 4
 2849 0030 002B     		cmp	r3, #0
 2850 0032 15D0     		beq	.L123
 736:./uart/uart-cmd.c ****   {
 737:./uart/uart-cmd.c ****     memset(buf,0,16);
 2851              		.loc 1 737 5
 2852 0034 07F10803 		add	r3, r7, #8
 2853 0038 1022     		movs	r2, #16
 2854 003a 0021     		movs	r1, #0
 2855 003c 1846     		mov	r0, r3
 2856 003e FFF7FEFF 		bl	memset
 738:./uart/uart-cmd.c ****     memcpy(buf,p.data,p.data_len);
 2857              		.loc 1 738 17
 2858 0042 796B     		ldr	r1, [r7, #52]
 2859              		.loc 1 738 24
 2860 0044 97F83830 		ldrb	r3, [r7, #56]	@ zero_extendqisi2
 2861              		.loc 1 738 5
 2862 0048 1A46     		mov	r2, r3
 2863 004a 07F10803 		add	r3, r7, #8
 2864 004e 1846     		mov	r0, r3
 2865 0050 FFF7FEFF 		bl	memcpy
 739:./uart/uart-cmd.c ****     val=atol((const char *)buf); 
 2866              		.loc 1 739 9
 2867 0054 07F10803 		add	r3, r7, #8
 2868 0058 1846     		mov	r0, r3
 2869 005a FFF7FEFF 		bl	atol
 2870 005e F861     		str	r0, [r7, #28]
 2871              	.L123:
 740:./uart/uart-cmd.c ****   }
 741:./uart/uart-cmd.c **** //   memset(buf,0,16);
 742:./uart/uart-cmd.c **** //   memcpy(buf,p.param,p.param_len);
 743:./uart/uart-cmd.c ****     //if(p.param_len> 0)
 744:./uart/uart-cmd.c ****     {
 745:./uart/uart-cmd.c **** 		    memset(buf,0,16);
 2872              		.loc 1 745 7
 2873 0060 07F10803 		add	r3, r7, #8
 2874 0064 1022     		movs	r2, #16
 2875 0066 0021     		movs	r1, #0
 2876 0068 1846     		mov	r0, r3
 2877 006a FFF7FEFF 		bl	memset
 746:./uart/uart-cmd.c ****    	    memcpy(buf,p.param,p.param_len);
ARM GAS  C:\Users\SAMEER~1.ALM\AppData\Local\Temp\ccXJ6CLf.s 			page 67


 2878              		.loc 1 746 21
 2879 006e F96A     		ldr	r1, [r7, #44]
 2880              		.loc 1 746 29
 2881 0070 97F83030 		ldrb	r3, [r7, #48]	@ zero_extendqisi2
 2882              		.loc 1 746 9
 2883 0074 1A46     		mov	r2, r3
 2884 0076 07F10803 		add	r3, r7, #8
 2885 007a 1846     		mov	r0, r3
 2886 007c FFF7FEFF 		bl	memcpy
 747:./uart/uart-cmd.c **** 		    uart_print(usartx,"buf:");
 2887              		.loc 1 747 7
 2888 0080 3A49     		ldr	r1, .L131
 2889 0082 7868     		ldr	r0, [r7, #4]
 2890 0084 FFF7FEFF 		bl	uart_print
 748:./uart/uart-cmd.c **** 		    uart_println(usartx,buf);
 2891              		.loc 1 748 7
 2892 0088 07F10803 		add	r3, r7, #8
 2893 008c 1946     		mov	r1, r3
 2894 008e 7868     		ldr	r0, [r7, #4]
 2895 0090 FFF7FEFF 		bl	uart_println
 749:./uart/uart-cmd.c ****     }
 750:./uart/uart-cmd.c ****   if(strcasecmp((const char *)buf,"-r")==0)
 2896              		.loc 1 750 6
 2897 0094 07F10803 		add	r3, r7, #8
 2898 0098 3549     		ldr	r1, .L131+4
 2899 009a 1846     		mov	r0, r3
 2900 009c FFF7FEFF 		bl	strcasecmp
 2901 00a0 0346     		mov	r3, r0
 2902              		.loc 1 750 5
 2903 00a2 002B     		cmp	r3, #0
 2904 00a4 0FD1     		bne	.L124
 751:./uart/uart-cmd.c ****   {
 752:./uart/uart-cmd.c **** 	  if(val >= 0x0D && val <=0x75)
 2905              		.loc 1 752 6
 2906 00a6 FB69     		ldr	r3, [r7, #28]
 2907 00a8 0C2B     		cmp	r3, #12
 2908 00aa 56DD     		ble	.L125
 2909              		.loc 1 752 19 discriminator 1
 2910 00ac FB69     		ldr	r3, [r7, #28]
 2911 00ae 752B     		cmp	r3, #117
 2912 00b0 53DC     		bgt	.L125
 753:./uart/uart-cmd.c **** 	    error=uart_read_reg_exe(usartx,(MPU6050_t*)&myMPU6050,val);
 2913              		.loc 1 753 12
 2914 00b2 FB69     		ldr	r3, [r7, #28]
 2915 00b4 DBB2     		uxtb	r3, r3
 2916 00b6 1A46     		mov	r2, r3
 2917 00b8 2E49     		ldr	r1, .L131+8
 2918 00ba 7868     		ldr	r0, [r7, #4]
 2919 00bc FFF7FEFF 		bl	uart_read_reg_exe
 2920 00c0 0346     		mov	r3, r0
 2921 00c2 FB76     		strb	r3, [r7, #27]
 2922 00c4 49E0     		b	.L125
 2923              	.L124:
 754:./uart/uart-cmd.c ****   }
 755:./uart/uart-cmd.c ****   else if(strcasecmp((const char *)buf,"-all")==0)
 2924              		.loc 1 755 11
 2925 00c6 07F10803 		add	r3, r7, #8
ARM GAS  C:\Users\SAMEER~1.ALM\AppData\Local\Temp\ccXJ6CLf.s 			page 68


 2926 00ca 2B49     		ldr	r1, .L131+12
 2927 00cc 1846     		mov	r0, r3
 2928 00ce FFF7FEFF 		bl	strcasecmp
 2929 00d2 0346     		mov	r3, r0
 2930              		.loc 1 755 10
 2931 00d4 002B     		cmp	r3, #0
 2932 00d6 06D1     		bne	.L126
 756:./uart/uart-cmd.c ****   {
 757:./uart/uart-cmd.c **** 	    error=uart_read_all_exe(usartx,(MPU6050_t*)&myMPU6050);	
 2933              		.loc 1 757 12
 2934 00d8 2649     		ldr	r1, .L131+8
 2935 00da 7868     		ldr	r0, [r7, #4]
 2936 00dc FFF7FEFF 		bl	uart_read_all_exe
 2937 00e0 0346     		mov	r3, r0
 2938 00e2 FB76     		strb	r3, [r7, #27]
 2939 00e4 39E0     		b	.L125
 2940              	.L126:
 758:./uart/uart-cmd.c ****   }          
 759:./uart/uart-cmd.c ****   else if(strcasecmp((const char *)buf,"-a")==0)
 2941              		.loc 1 759 11
 2942 00e6 07F10803 		add	r3, r7, #8
 2943 00ea 2449     		ldr	r1, .L131+16
 2944 00ec 1846     		mov	r0, r3
 2945 00ee FFF7FEFF 		bl	strcasecmp
 2946 00f2 0346     		mov	r3, r0
 2947              		.loc 1 759 10
 2948 00f4 002B     		cmp	r3, #0
 2949 00f6 06D1     		bne	.L127
 760:./uart/uart-cmd.c ****   {
 761:./uart/uart-cmd.c **** 	    error=uart_read_accelerometer_exe(usartx,(MPU6050_t*)&myMPU6050);
 2950              		.loc 1 761 12
 2951 00f8 1E49     		ldr	r1, .L131+8
 2952 00fa 7868     		ldr	r0, [r7, #4]
 2953 00fc FFF7FEFF 		bl	uart_read_accelerometer_exe
 2954 0100 0346     		mov	r3, r0
 2955 0102 FB76     		strb	r3, [r7, #27]
 2956 0104 29E0     		b	.L125
 2957              	.L127:
 762:./uart/uart-cmd.c ****   }          
 763:./uart/uart-cmd.c ****  else if(strcasecmp((const char *)buf,"-g")==0)
 2958              		.loc 1 763 10
 2959 0106 07F10803 		add	r3, r7, #8
 2960 010a 1D49     		ldr	r1, .L131+20
 2961 010c 1846     		mov	r0, r3
 2962 010e FFF7FEFF 		bl	strcasecmp
 2963 0112 0346     		mov	r3, r0
 2964              		.loc 1 763 9
 2965 0114 002B     		cmp	r3, #0
 2966 0116 06D1     		bne	.L128
 764:./uart/uart-cmd.c ****  {
 765:./uart/uart-cmd.c **** 	    error=uart_read_gyroscope_exe(usartx,(MPU6050_t*)&myMPU6050);
 2967              		.loc 1 765 12
 2968 0118 1649     		ldr	r1, .L131+8
 2969 011a 7868     		ldr	r0, [r7, #4]
 2970 011c FFF7FEFF 		bl	uart_read_gyroscope_exe
 2971 0120 0346     		mov	r3, r0
 2972 0122 FB76     		strb	r3, [r7, #27]
ARM GAS  C:\Users\SAMEER~1.ALM\AppData\Local\Temp\ccXJ6CLf.s 			page 69


 2973 0124 19E0     		b	.L125
 2974              	.L128:
 766:./uart/uart-cmd.c ****  }          
 767:./uart/uart-cmd.c ****  else if(strcasecmp((const char *)buf,"-t")==0)
 2975              		.loc 1 767 10
 2976 0126 07F10803 		add	r3, r7, #8
 2977 012a 1649     		ldr	r1, .L131+24
 2978 012c 1846     		mov	r0, r3
 2979 012e FFF7FEFF 		bl	strcasecmp
 2980 0132 0346     		mov	r3, r0
 2981              		.loc 1 767 9
 2982 0134 002B     		cmp	r3, #0
 2983 0136 06D1     		bne	.L129
 768:./uart/uart-cmd.c ****  {
 769:./uart/uart-cmd.c **** 	    error=uart_read_temperature_exe(usartx,(MPU6050_t*)&myMPU6050);
 2984              		.loc 1 769 12
 2985 0138 0E49     		ldr	r1, .L131+8
 2986 013a 7868     		ldr	r0, [r7, #4]
 2987 013c FFF7FEFF 		bl	uart_read_temperature_exe
 2988 0140 0346     		mov	r3, r0
 2989 0142 FB76     		strb	r3, [r7, #27]
 2990 0144 09E0     		b	.L125
 2991              	.L129:
 770:./uart/uart-cmd.c ****  }          
 771:./uart/uart-cmd.c ****  else
 772:./uart/uart-cmd.c ****  {
 773:./uart/uart-cmd.c **** 	  uart_print(usartx,"unknown parameter :");
 2992              		.loc 1 773 4
 2993 0146 1049     		ldr	r1, .L131+28
 2994 0148 7868     		ldr	r0, [r7, #4]
 2995 014a FFF7FEFF 		bl	uart_print
 774:./uart/uart-cmd.c ****   	uart_println(usartx,(char *)buf);
 2996              		.loc 1 774 4
 2997 014e 07F10803 		add	r3, r7, #8
 2998 0152 1946     		mov	r1, r3
 2999 0154 7868     		ldr	r0, [r7, #4]
 3000 0156 FFF7FEFF 		bl	uart_println
 3001              	.L125:
 775:./uart/uart-cmd.c ****  }
 776:./uart/uart-cmd.c ****   return error;
 3002              		.loc 1 776 10
 3003 015a FB7E     		ldrb	r3, [r7, #27]	@ zero_extendqisi2
 777:./uart/uart-cmd.c **** }
 3004              		.loc 1 777 1
 3005 015c 1846     		mov	r0, r3
 3006 015e 2037     		adds	r7, r7, #32
 3007              	.LCFI130:
 3008              		.cfi_def_cfa_offset 24
 3009 0160 BD46     		mov	sp, r7
 3010              	.LCFI131:
 3011              		.cfi_def_cfa_register 13
 3012              		@ sp needed
 3013 0162 BDE88040 		pop	{r7, lr}
 3014              	.LCFI132:
 3015              		.cfi_restore 14
 3016              		.cfi_restore 7
 3017              		.cfi_def_cfa_offset 16
ARM GAS  C:\Users\SAMEER~1.ALM\AppData\Local\Temp\ccXJ6CLf.s 			page 70


 3018 0166 04B0     		add	sp, sp, #16
 3019              	.LCFI133:
 3020              		.cfi_def_cfa_offset 0
 3021 0168 7047     		bx	lr
 3022              	.L132:
 3023 016a 00BF     		.align	2
 3024              	.L131:
 3025 016c E4030000 		.word	.LC55
 3026 0170 A4030000 		.word	.LC50
 3027 0174 00000000 		.word	myMPU6050
 3028 0178 EC030000 		.word	.LC56
 3029 017c F4030000 		.word	.LC57
 3030 0180 F8030000 		.word	.LC58
 3031 0184 FC030000 		.word	.LC59
 3032 0188 AC030000 		.word	.LC52
 3033              		.cfi_endproc
 3034              	.LFE56:
 3036              		.section	.rodata
 3037 03ff 00       		.align	2
 3038              	.LC60:
 3039 0400 293A2030 		.ascii	"): 0x\000"
 3039      7800
 3040              		.section	.text.uart_read_reg_exe,"ax",%progbits
 3041              		.align	1
 3042              		.global	uart_read_reg_exe
 3043              		.syntax unified
 3044              		.thumb
 3045              		.thumb_func
 3047              	uart_read_reg_exe:
 3048              	.LFB57:
 778:./uart/uart-cmd.c **** //-----------------------------------------------------------------------------
 779:./uart/uart-cmd.c **** uint8_t uart_read_reg_exe(USART_TypeDef * usartx, MPU6050_t * mpu,uint8_t reg_address)
 780:./uart/uart-cmd.c **** {
 3049              		.loc 1 780 1
 3050              		.cfi_startproc
 3051              		@ args = 0, pretend = 0, frame = 24
 3052              		@ frame_needed = 1, uses_anonymous_args = 0
 3053 0000 80B5     		push	{r7, lr}
 3054              	.LCFI134:
 3055              		.cfi_def_cfa_offset 8
 3056              		.cfi_offset 7, -8
 3057              		.cfi_offset 14, -4
 3058 0002 86B0     		sub	sp, sp, #24
 3059              	.LCFI135:
 3060              		.cfi_def_cfa_offset 32
 3061 0004 00AF     		add	r7, sp, #0
 3062              	.LCFI136:
 3063              		.cfi_def_cfa_register 7
 3064 0006 F860     		str	r0, [r7, #12]
 3065 0008 B960     		str	r1, [r7, #8]
 3066 000a 1346     		mov	r3, r2
 3067 000c FB71     		strb	r3, [r7, #7]
 781:./uart/uart-cmd.c ****  uint8_t error=0, temp=0;
 3068              		.loc 1 781 10
 3069 000e 0023     		movs	r3, #0
 3070 0010 FB75     		strb	r3, [r7, #23]
 3071              		.loc 1 781 19
ARM GAS  C:\Users\SAMEER~1.ALM\AppData\Local\Temp\ccXJ6CLf.s 			page 71


 3072 0012 0023     		movs	r3, #0
 3073 0014 BB75     		strb	r3, [r7, #22]
 782:./uart/uart-cmd.c ****  error=i2c_read_7bit_base_byte_std(MPU6050_I2C, mpu->Address, reg_address, &temp);
 3074              		.loc 1 782 8
 3075 0016 BB68     		ldr	r3, [r7, #8]
 3076 0018 1978     		ldrb	r1, [r3]	@ zero_extendqisi2
 3077 001a 07F11603 		add	r3, r7, #22
 3078 001e FA79     		ldrb	r2, [r7, #7]	@ zero_extendqisi2
 3079 0020 1048     		ldr	r0, .L136
 3080 0022 FFF7FEFF 		bl	i2c_read_7bit_base_byte_std
 3081 0026 0346     		mov	r3, r0
 3082 0028 FB75     		strb	r3, [r7, #23]
 783:./uart/uart-cmd.c ****  if(error==I2C_OK) 
 3083              		.loc 1 783 4
 3084 002a FB7D     		ldrb	r3, [r7, #23]	@ zero_extendqisi2
 3085 002c 002B     		cmp	r3, #0
 3086 002e 13D1     		bne	.L134
 784:./uart/uart-cmd.c ****   {
 785:./uart/uart-cmd.c **** 	uart_print(usartx,"reg(@0x");
 3087              		.loc 1 785 2
 3088 0030 0D49     		ldr	r1, .L136+4
 3089 0032 F868     		ldr	r0, [r7, #12]
 3090 0034 FFF7FEFF 		bl	uart_print
 786:./uart/uart-cmd.c **** 	uart_print_integer(usartx,reg_address,16);
 3091              		.loc 1 786 2
 3092 0038 FB79     		ldrb	r3, [r7, #7]	@ zero_extendqisi2
 3093 003a 1022     		movs	r2, #16
 3094 003c 1946     		mov	r1, r3
 3095 003e F868     		ldr	r0, [r7, #12]
 3096 0040 FFF7FEFF 		bl	uart_print_integer
 787:./uart/uart-cmd.c **** 	uart_print(usartx,"): 0x");
 3097              		.loc 1 787 2
 3098 0044 0949     		ldr	r1, .L136+8
 3099 0046 F868     		ldr	r0, [r7, #12]
 3100 0048 FFF7FEFF 		bl	uart_print
 788:./uart/uart-cmd.c **** 	uart_print_integer(usartx,temp,16);
 3101              		.loc 1 788 2
 3102 004c BB7D     		ldrb	r3, [r7, #22]	@ zero_extendqisi2
 3103 004e 1022     		movs	r2, #16
 3104 0050 1946     		mov	r1, r3
 3105 0052 F868     		ldr	r0, [r7, #12]
 3106 0054 FFF7FEFF 		bl	uart_print_integer
 3107              	.L134:
 789:./uart/uart-cmd.c **** 	
 790:./uart/uart-cmd.c ****   }
 791:./uart/uart-cmd.c ****   return error;
 3108              		.loc 1 791 10
 3109 0058 FB7D     		ldrb	r3, [r7, #23]	@ zero_extendqisi2
 792:./uart/uart-cmd.c ****   }
 3110              		.loc 1 792 3
 3111 005a 1846     		mov	r0, r3
 3112 005c 1837     		adds	r7, r7, #24
 3113              	.LCFI137:
 3114              		.cfi_def_cfa_offset 8
 3115 005e BD46     		mov	sp, r7
 3116              	.LCFI138:
 3117              		.cfi_def_cfa_register 13
ARM GAS  C:\Users\SAMEER~1.ALM\AppData\Local\Temp\ccXJ6CLf.s 			page 72


 3118              		@ sp needed
 3119 0060 80BD     		pop	{r7, pc}
 3120              	.L137:
 3121 0062 00BF     		.align	2
 3122              	.L136:
 3123 0064 00540040 		.word	1073763328
 3124 0068 C0030000 		.word	.LC53
 3125 006c 00040000 		.word	.LC60
 3126              		.cfi_endproc
 3127              	.LFE57:
 3129              		.section	.rodata
 3130 0406 0000     		.align	2
 3131              	.LC61:
 3132 0408 2E2E2E2E 		.ascii	"...............\000"
 3132      2E2E2E2E 
 3132      2E2E2E2E 
 3132      2E2E2E00 
 3133              		.align	2
 3134              	.LC62:
 3135 0418 4D505536 		.ascii	"MPU6050 integer Data ...\000"
 3135      30353020 
 3135      696E7465 
 3135      67657220 
 3135      44617461 
 3136 0431 000000   		.align	2
 3137              	.LC63:
 3138 0434 4D505536 		.ascii	"MPU6050 Hex Data ...\000"
 3138      30353020 
 3138      48657820 
 3138      44617461 
 3138      202E2E2E 
 3139 0449 000000   		.align	2
 3140              	.LC64:
 3141 044c 4D505536 		.ascii	"MPU6050 Raw Data ...\000"
 3141      30353020 
 3141      52617720 
 3141      44617461 
 3141      202E2E2E 
 3142              		.section	.text.uart_read_all_exe,"ax",%progbits
 3143              		.align	1
 3144              		.global	uart_read_all_exe
 3145              		.syntax unified
 3146              		.thumb
 3147              		.thumb_func
 3149              	uart_read_all_exe:
 3150              	.LFB58:
 793:./uart/uart-cmd.c **** //-----------------------------------------------------------------------------
 794:./uart/uart-cmd.c **** uint8_t uart_read_all_exe(USART_TypeDef * usartx,MPU6050_t * mpu)
 795:./uart/uart-cmd.c **** {
 3151              		.loc 1 795 1
 3152              		.cfi_startproc
 3153              		@ args = 0, pretend = 0, frame = 16
 3154              		@ frame_needed = 1, uses_anonymous_args = 0
 3155 0000 80B5     		push	{r7, lr}
 3156              	.LCFI139:
 3157              		.cfi_def_cfa_offset 8
 3158              		.cfi_offset 7, -8
ARM GAS  C:\Users\SAMEER~1.ALM\AppData\Local\Temp\ccXJ6CLf.s 			page 73


 3159              		.cfi_offset 14, -4
 3160 0002 84B0     		sub	sp, sp, #16
 3161              	.LCFI140:
 3162              		.cfi_def_cfa_offset 24
 3163 0004 00AF     		add	r7, sp, #0
 3164              	.LCFI141:
 3165              		.cfi_def_cfa_register 7
 3166 0006 7860     		str	r0, [r7, #4]
 3167 0008 3960     		str	r1, [r7]
 796:./uart/uart-cmd.c **** 	uint8_t error=0;
 3168              		.loc 1 796 10
 3169 000a 0023     		movs	r3, #0
 3170 000c FB73     		strb	r3, [r7, #15]
 797:./uart/uart-cmd.c **** 	error=mpu6050_read_All((MPU6050_t *)mpu);
 3171              		.loc 1 797 8
 3172 000e 3868     		ldr	r0, [r7]
 3173 0010 FFF7FEFF 		bl	mpu6050_read_All
 3174 0014 0346     		mov	r3, r0
 3175 0016 FB73     		strb	r3, [r7, #15]
 798:./uart/uart-cmd.c **** 	if(error==I2C_OK)
 3176              		.loc 1 798 4
 3177 0018 FB7B     		ldrb	r3, [r7, #15]	@ zero_extendqisi2
 3178 001a 002B     		cmp	r3, #0
 3179 001c 1FD1     		bne	.L139
 799:./uart/uart-cmd.c **** 	{
 800:./uart/uart-cmd.c **** 		uart_println (usartx,"...............");
 3180              		.loc 1 800 3
 3181 001e 1249     		ldr	r1, .L141
 3182 0020 7868     		ldr	r0, [r7, #4]
 3183 0022 FFF7FEFF 		bl	uart_println
 801:./uart/uart-cmd.c **** 		uart_println (usartx,"MPU6050 integer Data ...");
 3184              		.loc 1 801 3
 3185 0026 1149     		ldr	r1, .L141+4
 3186 0028 7868     		ldr	r0, [r7, #4]
 3187 002a FFF7FEFF 		bl	uart_println
 802:./uart/uart-cmd.c **** 		mpu6050_uart_print_All(usartx,mpu);			  
 3188              		.loc 1 802 3
 3189 002e 3968     		ldr	r1, [r7]
 3190 0030 7868     		ldr	r0, [r7, #4]
 3191 0032 FFF7FEFF 		bl	mpu6050_uart_print_All
 803:./uart/uart-cmd.c **** 		uart_println (usartx,"MPU6050 Hex Data ...");
 3192              		.loc 1 803 3
 3193 0036 0E49     		ldr	r1, .L141+8
 3194 0038 7868     		ldr	r0, [r7, #4]
 3195 003a FFF7FEFF 		bl	uart_println
 804:./uart/uart-cmd.c **** 		mpu6050_uart_print_raw_Data(usartx,mpu);
 3196              		.loc 1 804 3
 3197 003e 3968     		ldr	r1, [r7]
 3198 0040 7868     		ldr	r0, [r7, #4]
 3199 0042 FFF7FEFF 		bl	mpu6050_uart_print_raw_Data
 805:./uart/uart-cmd.c **** 		uart_println (usartx,"MPU6050 Raw Data ...");
 3200              		.loc 1 805 3
 3201 0046 0B49     		ldr	r1, .L141+12
 3202 0048 7868     		ldr	r0, [r7, #4]
 3203 004a FFF7FEFF 		bl	uart_println
 806:./uart/uart-cmd.c **** 		mpu6050_uart_print_raw_Array(usartx,mpu);
 3204              		.loc 1 806 3
ARM GAS  C:\Users\SAMEER~1.ALM\AppData\Local\Temp\ccXJ6CLf.s 			page 74


 3205 004e 3968     		ldr	r1, [r7]
 3206 0050 7868     		ldr	r0, [r7, #4]
 3207 0052 FFF7FEFF 		bl	mpu6050_uart_print_raw_Array
 807:./uart/uart-cmd.c **** 		uart_println (usartx,"...............");						
 3208              		.loc 1 807 3
 3209 0056 0449     		ldr	r1, .L141
 3210 0058 7868     		ldr	r0, [r7, #4]
 3211 005a FFF7FEFF 		bl	uart_println
 3212              	.L139:
 808:./uart/uart-cmd.c **** 	}
 809:./uart/uart-cmd.c **** 	return error;
 3213              		.loc 1 809 9
 3214 005e FB7B     		ldrb	r3, [r7, #15]	@ zero_extendqisi2
 810:./uart/uart-cmd.c **** }
 3215              		.loc 1 810 1
 3216 0060 1846     		mov	r0, r3
 3217 0062 1037     		adds	r7, r7, #16
 3218              	.LCFI142:
 3219              		.cfi_def_cfa_offset 8
 3220 0064 BD46     		mov	sp, r7
 3221              	.LCFI143:
 3222              		.cfi_def_cfa_register 13
 3223              		@ sp needed
 3224 0066 80BD     		pop	{r7, pc}
 3225              	.L142:
 3226              		.align	2
 3227              	.L141:
 3228 0068 08040000 		.word	.LC61
 3229 006c 18040000 		.word	.LC62
 3230 0070 34040000 		.word	.LC63
 3231 0074 4C040000 		.word	.LC64
 3232              		.cfi_endproc
 3233              	.LFE58:
 3235              		.section	.rodata
 3236 0461 000000   		.align	2
 3237              	.LC65:
 3238 0464 4D505536 		.ascii	"MPU6050 Accelerometer Data ...\000"
 3238      30353020 
 3238      41636365 
 3238      6C65726F 
 3238      6D657465 
 3239 0483 00       		.align	2
 3240              	.LC66:
 3241 0484 4D505536 		.ascii	"MPU6050 Accelerometer Hex Data ...\000"
 3241      30353020 
 3241      41636365 
 3241      6C65726F 
 3241      6D657465 
 3242              		.section	.text.uart_read_accelerometer_exe,"ax",%progbits
 3243              		.align	1
 3244              		.global	uart_read_accelerometer_exe
 3245              		.syntax unified
 3246              		.thumb
 3247              		.thumb_func
 3249              	uart_read_accelerometer_exe:
 3250              	.LFB59:
 811:./uart/uart-cmd.c **** //-----------------------------------------------------------------------------
ARM GAS  C:\Users\SAMEER~1.ALM\AppData\Local\Temp\ccXJ6CLf.s 			page 75


 812:./uart/uart-cmd.c **** uint8_t uart_read_accelerometer_exe(USART_TypeDef * usartx,MPU6050_t * mpu)
 813:./uart/uart-cmd.c **** {
 3251              		.loc 1 813 1
 3252              		.cfi_startproc
 3253              		@ args = 0, pretend = 0, frame = 16
 3254              		@ frame_needed = 1, uses_anonymous_args = 0
 3255 0000 80B5     		push	{r7, lr}
 3256              	.LCFI144:
 3257              		.cfi_def_cfa_offset 8
 3258              		.cfi_offset 7, -8
 3259              		.cfi_offset 14, -4
 3260 0002 84B0     		sub	sp, sp, #16
 3261              	.LCFI145:
 3262              		.cfi_def_cfa_offset 24
 3263 0004 00AF     		add	r7, sp, #0
 3264              	.LCFI146:
 3265              		.cfi_def_cfa_register 7
 3266 0006 7860     		str	r0, [r7, #4]
 3267 0008 3960     		str	r1, [r7]
 814:./uart/uart-cmd.c **** 	uint8_t error=0;
 3268              		.loc 1 814 10
 3269 000a 0023     		movs	r3, #0
 3270 000c FB73     		strb	r3, [r7, #15]
 815:./uart/uart-cmd.c **** 	error=mpu6050_read_Accelerometer(mpu);
 3271              		.loc 1 815 8
 3272 000e 3868     		ldr	r0, [r7]
 3273 0010 FFF7FEFF 		bl	mpu6050_read_Accelerometer
 3274 0014 0346     		mov	r3, r0
 3275 0016 FB73     		strb	r3, [r7, #15]
 816:./uart/uart-cmd.c **** 	if(error==I2C_OK)
 3276              		.loc 1 816 4
 3277 0018 FB7B     		ldrb	r3, [r7, #15]	@ zero_extendqisi2
 3278 001a 002B     		cmp	r3, #0
 3279 001c 17D1     		bne	.L144
 817:./uart/uart-cmd.c **** 	{
 818:./uart/uart-cmd.c **** 		uart_println (usartx,"...............");
 3280              		.loc 1 818 3
 3281 001e 0E49     		ldr	r1, .L146
 3282 0020 7868     		ldr	r0, [r7, #4]
 3283 0022 FFF7FEFF 		bl	uart_println
 819:./uart/uart-cmd.c **** 		uart_println (usartx,"MPU6050 Accelerometer Data ...");
 3284              		.loc 1 819 3
 3285 0026 0D49     		ldr	r1, .L146+4
 3286 0028 7868     		ldr	r0, [r7, #4]
 3287 002a FFF7FEFF 		bl	uart_println
 820:./uart/uart-cmd.c **** 		mpu6050_uart_print_Accelometer(usartx,mpu);			  
 3288              		.loc 1 820 3
 3289 002e 3968     		ldr	r1, [r7]
 3290 0030 7868     		ldr	r0, [r7, #4]
 3291 0032 FFF7FEFF 		bl	mpu6050_uart_print_Accelometer
 821:./uart/uart-cmd.c **** 		uart_println (usartx,"MPU6050 Accelerometer Hex Data ...");
 3292              		.loc 1 821 3
 3293 0036 0A49     		ldr	r1, .L146+8
 3294 0038 7868     		ldr	r0, [r7, #4]
 3295 003a FFF7FEFF 		bl	uart_println
 822:./uart/uart-cmd.c **** 		mpu6050_uart_print_raw_Accelometer(usartx,mpu);
 3296              		.loc 1 822 3
ARM GAS  C:\Users\SAMEER~1.ALM\AppData\Local\Temp\ccXJ6CLf.s 			page 76


 3297 003e 3968     		ldr	r1, [r7]
 3298 0040 7868     		ldr	r0, [r7, #4]
 3299 0042 FFF7FEFF 		bl	mpu6050_uart_print_raw_Accelometer
 823:./uart/uart-cmd.c **** 		uart_println (usartx,"...............");						
 3300              		.loc 1 823 3
 3301 0046 0449     		ldr	r1, .L146
 3302 0048 7868     		ldr	r0, [r7, #4]
 3303 004a FFF7FEFF 		bl	uart_println
 3304              	.L144:
 824:./uart/uart-cmd.c **** 	}
 825:./uart/uart-cmd.c **** 	return error;
 3305              		.loc 1 825 9
 3306 004e FB7B     		ldrb	r3, [r7, #15]	@ zero_extendqisi2
 826:./uart/uart-cmd.c **** }
 3307              		.loc 1 826 1
 3308 0050 1846     		mov	r0, r3
 3309 0052 1037     		adds	r7, r7, #16
 3310              	.LCFI147:
 3311              		.cfi_def_cfa_offset 8
 3312 0054 BD46     		mov	sp, r7
 3313              	.LCFI148:
 3314              		.cfi_def_cfa_register 13
 3315              		@ sp needed
 3316 0056 80BD     		pop	{r7, pc}
 3317              	.L147:
 3318              		.align	2
 3319              	.L146:
 3320 0058 08040000 		.word	.LC61
 3321 005c 64040000 		.word	.LC65
 3322 0060 84040000 		.word	.LC66
 3323              		.cfi_endproc
 3324              	.LFE59:
 3326              		.section	.rodata
 3327 04a7 00       		.align	2
 3328              	.LC67:
 3329 04a8 4D505536 		.ascii	"MPU6050 Gyroscope Data ...\000"
 3329      30353020 
 3329      4779726F 
 3329      73636F70 
 3329      65204461 
 3330 04c3 00       		.align	2
 3331              	.LC68:
 3332 04c4 4D505536 		.ascii	"MPU6050 Gyroscope Hex Data ...\000"
 3332      30353020 
 3332      4779726F 
 3332      73636F70 
 3332      65204865 
 3333              		.section	.text.uart_read_gyroscope_exe,"ax",%progbits
 3334              		.align	1
 3335              		.global	uart_read_gyroscope_exe
 3336              		.syntax unified
 3337              		.thumb
 3338              		.thumb_func
 3340              	uart_read_gyroscope_exe:
 3341              	.LFB60:
 827:./uart/uart-cmd.c **** //-----------------------------------------------------------------------------
 828:./uart/uart-cmd.c **** uint8_t uart_read_gyroscope_exe(USART_TypeDef * usartx,MPU6050_t * mpu)
ARM GAS  C:\Users\SAMEER~1.ALM\AppData\Local\Temp\ccXJ6CLf.s 			page 77


 829:./uart/uart-cmd.c **** {
 3342              		.loc 1 829 1
 3343              		.cfi_startproc
 3344              		@ args = 0, pretend = 0, frame = 16
 3345              		@ frame_needed = 1, uses_anonymous_args = 0
 3346 0000 80B5     		push	{r7, lr}
 3347              	.LCFI149:
 3348              		.cfi_def_cfa_offset 8
 3349              		.cfi_offset 7, -8
 3350              		.cfi_offset 14, -4
 3351 0002 84B0     		sub	sp, sp, #16
 3352              	.LCFI150:
 3353              		.cfi_def_cfa_offset 24
 3354 0004 00AF     		add	r7, sp, #0
 3355              	.LCFI151:
 3356              		.cfi_def_cfa_register 7
 3357 0006 7860     		str	r0, [r7, #4]
 3358 0008 3960     		str	r1, [r7]
 830:./uart/uart-cmd.c **** 	uint8_t error=0;
 3359              		.loc 1 830 10
 3360 000a 0023     		movs	r3, #0
 3361 000c FB73     		strb	r3, [r7, #15]
 831:./uart/uart-cmd.c **** 	error=mpu6050_read_Gyroscope(mpu);
 3362              		.loc 1 831 8
 3363 000e 3868     		ldr	r0, [r7]
 3364 0010 FFF7FEFF 		bl	mpu6050_read_Gyroscope
 3365 0014 0346     		mov	r3, r0
 3366 0016 FB73     		strb	r3, [r7, #15]
 832:./uart/uart-cmd.c **** 	if(error==I2C_OK)
 3367              		.loc 1 832 4
 3368 0018 FB7B     		ldrb	r3, [r7, #15]	@ zero_extendqisi2
 3369 001a 002B     		cmp	r3, #0
 3370 001c 17D1     		bne	.L149
 833:./uart/uart-cmd.c **** 	{
 834:./uart/uart-cmd.c **** 		uart_println (usartx,"...............");
 3371              		.loc 1 834 3
 3372 001e 0E49     		ldr	r1, .L151
 3373 0020 7868     		ldr	r0, [r7, #4]
 3374 0022 FFF7FEFF 		bl	uart_println
 835:./uart/uart-cmd.c **** 		uart_println (usartx,"MPU6050 Gyroscope Data ...");
 3375              		.loc 1 835 3
 3376 0026 0D49     		ldr	r1, .L151+4
 3377 0028 7868     		ldr	r0, [r7, #4]
 3378 002a FFF7FEFF 		bl	uart_println
 836:./uart/uart-cmd.c **** 		mpu6050_uart_print_Gyroscope(usartx,mpu);			  
 3379              		.loc 1 836 3
 3380 002e 3968     		ldr	r1, [r7]
 3381 0030 7868     		ldr	r0, [r7, #4]
 3382 0032 FFF7FEFF 		bl	mpu6050_uart_print_Gyroscope
 837:./uart/uart-cmd.c **** 		uart_println (usartx,"MPU6050 Gyroscope Hex Data ...");
 3383              		.loc 1 837 3
 3384 0036 0A49     		ldr	r1, .L151+8
 3385 0038 7868     		ldr	r0, [r7, #4]
 3386 003a FFF7FEFF 		bl	uart_println
 838:./uart/uart-cmd.c **** 		mpu6050_uart_print_raw_Gyroscope(usartx,mpu);
 3387              		.loc 1 838 3
 3388 003e 3968     		ldr	r1, [r7]
ARM GAS  C:\Users\SAMEER~1.ALM\AppData\Local\Temp\ccXJ6CLf.s 			page 78


 3389 0040 7868     		ldr	r0, [r7, #4]
 3390 0042 FFF7FEFF 		bl	mpu6050_uart_print_raw_Gyroscope
 839:./uart/uart-cmd.c **** 		uart_println (usartx,"...............");						
 3391              		.loc 1 839 3
 3392 0046 0449     		ldr	r1, .L151
 3393 0048 7868     		ldr	r0, [r7, #4]
 3394 004a FFF7FEFF 		bl	uart_println
 3395              	.L149:
 840:./uart/uart-cmd.c **** 	}
 841:./uart/uart-cmd.c **** 	return error;
 3396              		.loc 1 841 9
 3397 004e FB7B     		ldrb	r3, [r7, #15]	@ zero_extendqisi2
 842:./uart/uart-cmd.c **** }
 3398              		.loc 1 842 1
 3399 0050 1846     		mov	r0, r3
 3400 0052 1037     		adds	r7, r7, #16
 3401              	.LCFI152:
 3402              		.cfi_def_cfa_offset 8
 3403 0054 BD46     		mov	sp, r7
 3404              	.LCFI153:
 3405              		.cfi_def_cfa_register 13
 3406              		@ sp needed
 3407 0056 80BD     		pop	{r7, pc}
 3408              	.L152:
 3409              		.align	2
 3410              	.L151:
 3411 0058 08040000 		.word	.LC61
 3412 005c A8040000 		.word	.LC67
 3413 0060 C4040000 		.word	.LC68
 3414              		.cfi_endproc
 3415              	.LFE60:
 3417              		.section	.rodata
 3418 04e3 00       		.align	2
 3419              	.LC69:
 3420 04e4 4D505536 		.ascii	"MPU6050 Temperature Data ...\000"
 3420      30353020 
 3420      54656D70 
 3420      65726174 
 3420      75726520 
 3421 0501 000000   		.align	2
 3422              	.LC70:
 3423 0504 4D505536 		.ascii	"MPU6050 Temperature Hex Data ...\000"
 3423      30353020 
 3423      54656D70 
 3423      65726174 
 3423      75726520 
 3424              		.section	.text.uart_read_temperature_exe,"ax",%progbits
 3425              		.align	1
 3426              		.global	uart_read_temperature_exe
 3427              		.syntax unified
 3428              		.thumb
 3429              		.thumb_func
 3431              	uart_read_temperature_exe:
 3432              	.LFB61:
 843:./uart/uart-cmd.c **** //-----------------------------------------------------------------------------
 844:./uart/uart-cmd.c **** uint8_t uart_read_temperature_exe(USART_TypeDef * usartx,MPU6050_t * mpu)
 845:./uart/uart-cmd.c **** {
ARM GAS  C:\Users\SAMEER~1.ALM\AppData\Local\Temp\ccXJ6CLf.s 			page 79


 3433              		.loc 1 845 1
 3434              		.cfi_startproc
 3435              		@ args = 0, pretend = 0, frame = 16
 3436              		@ frame_needed = 1, uses_anonymous_args = 0
 3437 0000 80B5     		push	{r7, lr}
 3438              	.LCFI154:
 3439              		.cfi_def_cfa_offset 8
 3440              		.cfi_offset 7, -8
 3441              		.cfi_offset 14, -4
 3442 0002 84B0     		sub	sp, sp, #16
 3443              	.LCFI155:
 3444              		.cfi_def_cfa_offset 24
 3445 0004 00AF     		add	r7, sp, #0
 3446              	.LCFI156:
 3447              		.cfi_def_cfa_register 7
 3448 0006 7860     		str	r0, [r7, #4]
 3449 0008 3960     		str	r1, [r7]
 846:./uart/uart-cmd.c **** 	uint8_t error=0;
 3450              		.loc 1 846 10
 3451 000a 0023     		movs	r3, #0
 3452 000c FB73     		strb	r3, [r7, #15]
 847:./uart/uart-cmd.c **** 	error=mpu6050_read_Temperature(mpu);
 3453              		.loc 1 847 8
 3454 000e 3868     		ldr	r0, [r7]
 3455 0010 FFF7FEFF 		bl	mpu6050_read_Temperature
 3456 0014 0346     		mov	r3, r0
 3457 0016 FB73     		strb	r3, [r7, #15]
 848:./uart/uart-cmd.c **** 	if(error==I2C_OK)
 3458              		.loc 1 848 4
 3459 0018 FB7B     		ldrb	r3, [r7, #15]	@ zero_extendqisi2
 3460 001a 002B     		cmp	r3, #0
 3461 001c 17D1     		bne	.L154
 849:./uart/uart-cmd.c **** 	{
 850:./uart/uart-cmd.c **** 		uart_println (usartx,"...............");
 3462              		.loc 1 850 3
 3463 001e 0E49     		ldr	r1, .L156
 3464 0020 7868     		ldr	r0, [r7, #4]
 3465 0022 FFF7FEFF 		bl	uart_println
 851:./uart/uart-cmd.c **** 		uart_println (usartx,"MPU6050 Temperature Data ...");
 3466              		.loc 1 851 3
 3467 0026 0D49     		ldr	r1, .L156+4
 3468 0028 7868     		ldr	r0, [r7, #4]
 3469 002a FFF7FEFF 		bl	uart_println
 852:./uart/uart-cmd.c **** 		mpu6050_uart_print_Temperature(usartx,mpu);			  
 3470              		.loc 1 852 3
 3471 002e 3968     		ldr	r1, [r7]
 3472 0030 7868     		ldr	r0, [r7, #4]
 3473 0032 FFF7FEFF 		bl	mpu6050_uart_print_Temperature
 853:./uart/uart-cmd.c **** 		uart_println (usartx,"MPU6050 Temperature Hex Data ...");
 3474              		.loc 1 853 3
 3475 0036 0A49     		ldr	r1, .L156+8
 3476 0038 7868     		ldr	r0, [r7, #4]
 3477 003a FFF7FEFF 		bl	uart_println
 854:./uart/uart-cmd.c **** 		mpu6050_uart_print_raw_Temperature(usartx,mpu);
 3478              		.loc 1 854 3
 3479 003e 3968     		ldr	r1, [r7]
 3480 0040 7868     		ldr	r0, [r7, #4]
ARM GAS  C:\Users\SAMEER~1.ALM\AppData\Local\Temp\ccXJ6CLf.s 			page 80


 3481 0042 FFF7FEFF 		bl	mpu6050_uart_print_raw_Temperature
 855:./uart/uart-cmd.c **** 		uart_println (usartx,"...............");						
 3482              		.loc 1 855 3
 3483 0046 0449     		ldr	r1, .L156
 3484 0048 7868     		ldr	r0, [r7, #4]
 3485 004a FFF7FEFF 		bl	uart_println
 3486              	.L154:
 856:./uart/uart-cmd.c **** 	}
 857:./uart/uart-cmd.c **** 	return error;
 3487              		.loc 1 857 9
 3488 004e FB7B     		ldrb	r3, [r7, #15]	@ zero_extendqisi2
 858:./uart/uart-cmd.c **** }
 3489              		.loc 1 858 1
 3490 0050 1846     		mov	r0, r3
 3491 0052 1037     		adds	r7, r7, #16
 3492              	.LCFI157:
 3493              		.cfi_def_cfa_offset 8
 3494 0054 BD46     		mov	sp, r7
 3495              	.LCFI158:
 3496              		.cfi_def_cfa_register 13
 3497              		@ sp needed
 3498 0056 80BD     		pop	{r7, pc}
 3499              	.L157:
 3500              		.align	2
 3501              	.L156:
 3502 0058 08040000 		.word	.LC61
 3503 005c E4040000 		.word	.LC69
 3504 0060 04050000 		.word	.LC70
 3505              		.cfi_endproc
 3506              	.LFE61:
 3508              		.text
 3509              	.Letext0:
 3510              		.file 2 "c:\\arm-tool\\gcc-arm-none-eabi-10.3-2021.10\\arm-none-eabi\\include\\machine\\_default_t
 3511              		.file 3 "c:\\arm-tool\\gcc-arm-none-eabi-10.3-2021.10\\arm-none-eabi\\include\\sys\\_stdint.h"
 3512              		.file 4 "./.driver/CMSIS/Device/STM32F10x/stm32f10x.h"
 3513              		.file 5 "c:\\arm-tool\\gcc-arm-none-eabi-10.3-2021.10\\lib\\gcc\\arm-none-eabi\\10.3.1\\include\\s
 3514              		.file 6 "./basic/array.h"
 3515              		.file 7 "./i2c/i2c-std.h"
 3516              		.file 8 "./mpu6050/mpu6050.h"
 3517              		.file 9 "./uart/uart.h"
 3518              		.file 10 "./system/system-task.h"
ARM GAS  C:\Users\SAMEER~1.ALM\AppData\Local\Temp\ccXJ6CLf.s 			page 81

